ARM GAS  /tmp/ccet0kph.s 			page 1


   1              		.cpu cortex-m4
   2              		.arch armv7e-m
   3              		.fpu fpv4-sp-d16
   4              		.eabi_attribute 27, 1
   5              		.eabi_attribute 28, 1
   6              		.eabi_attribute 20, 1
   7              		.eabi_attribute 21, 1
   8              		.eabi_attribute 23, 3
   9              		.eabi_attribute 24, 1
  10              		.eabi_attribute 25, 1
  11              		.eabi_attribute 26, 1
  12              		.eabi_attribute 30, 1
  13              		.eabi_attribute 34, 1
  14              		.eabi_attribute 18, 4
  15              		.file	"tim.c"
  16              		.text
  17              	.Ltext0:
  18              		.cfi_sections	.debug_frame
  19              		.section	.text.HAL_TIM_Base_MspInit,"ax",%progbits
  20              		.align	1
  21              		.global	HAL_TIM_Base_MspInit
  22              		.syntax unified
  23              		.thumb
  24              		.thumb_func
  26              	HAL_TIM_Base_MspInit:
  27              	.LVL0:
  28              	.LFB131:
  29              		.file 1 "Src/tim.c"
   1:Src/tim.c     **** /**
   2:Src/tim.c     ****   ******************************************************************************
   3:Src/tim.c     ****   * File Name          : TIM.c
   4:Src/tim.c     ****   * Description        : This file provides code for the configuration
   5:Src/tim.c     ****   *                      of the TIM instances.
   6:Src/tim.c     ****   ******************************************************************************
   7:Src/tim.c     ****   * @attention
   8:Src/tim.c     ****   *
   9:Src/tim.c     ****   * <h2><center>&copy; Copyright (c) 2025 STMicroelectronics.
  10:Src/tim.c     ****   * All rights reserved.</center></h2>
  11:Src/tim.c     ****   *
  12:Src/tim.c     ****   * This software component is licensed by ST under Ultimate Liberty license
  13:Src/tim.c     ****   * SLA0044, the "License"; You may not use this file except in compliance with
  14:Src/tim.c     ****   * the License. You may obtain a copy of the License at:
  15:Src/tim.c     ****   *                             www.st.com/SLA0044
  16:Src/tim.c     ****   *
  17:Src/tim.c     ****   ******************************************************************************
  18:Src/tim.c     ****   */
  19:Src/tim.c     **** 
  20:Src/tim.c     **** /* Includes ------------------------------------------------------------------*/
  21:Src/tim.c     **** #include "tim.h"
  22:Src/tim.c     **** 
  23:Src/tim.c     **** /* USER CODE BEGIN 0 */
  24:Src/tim.c     **** 
  25:Src/tim.c     **** /* USER CODE END 0 */
  26:Src/tim.c     **** 
  27:Src/tim.c     **** TIM_HandleTypeDef htim10;
  28:Src/tim.c     **** 
  29:Src/tim.c     **** /* TIM10 init function */
ARM GAS  /tmp/ccet0kph.s 			page 2


  30:Src/tim.c     **** void MX_TIM10_Init(void)
  31:Src/tim.c     **** {
  32:Src/tim.c     ****   TIM_OC_InitTypeDef sConfigOC = {0};
  33:Src/tim.c     **** 
  34:Src/tim.c     ****   htim10.Instance = TIM10;
  35:Src/tim.c     ****   htim10.Init.Prescaler = 0;
  36:Src/tim.c     ****   htim10.Init.CounterMode = TIM_COUNTERMODE_UP;
  37:Src/tim.c     ****   htim10.Init.Period = 4999;
  38:Src/tim.c     ****   htim10.Init.ClockDivision = TIM_CLOCKDIVISION_DIV1;
  39:Src/tim.c     ****   htim10.Init.AutoReloadPreload = TIM_AUTORELOAD_PRELOAD_DISABLE;
  40:Src/tim.c     ****   if (HAL_TIM_Base_Init(&htim10) != HAL_OK)
  41:Src/tim.c     ****   {
  42:Src/tim.c     ****     Error_Handler();
  43:Src/tim.c     ****   }
  44:Src/tim.c     ****   if (HAL_TIM_PWM_Init(&htim10) != HAL_OK)
  45:Src/tim.c     ****   {
  46:Src/tim.c     ****     Error_Handler();
  47:Src/tim.c     ****   }
  48:Src/tim.c     ****   sConfigOC.OCMode = TIM_OCMODE_PWM1;
  49:Src/tim.c     ****   sConfigOC.Pulse = 0;
  50:Src/tim.c     ****   sConfigOC.OCPolarity = TIM_OCPOLARITY_HIGH;
  51:Src/tim.c     ****   sConfigOC.OCFastMode = TIM_OCFAST_DISABLE;
  52:Src/tim.c     ****   if (HAL_TIM_PWM_ConfigChannel(&htim10, &sConfigOC, TIM_CHANNEL_1) != HAL_OK)
  53:Src/tim.c     ****   {
  54:Src/tim.c     ****     Error_Handler();
  55:Src/tim.c     ****   }
  56:Src/tim.c     ****   HAL_TIM_MspPostInit(&htim10);
  57:Src/tim.c     **** 
  58:Src/tim.c     **** }
  59:Src/tim.c     **** 
  60:Src/tim.c     **** void HAL_TIM_Base_MspInit(TIM_HandleTypeDef* tim_baseHandle)
  61:Src/tim.c     **** {
  30              		.loc 1 61 1 view -0
  31              		.cfi_startproc
  32              		@ args = 0, pretend = 0, frame = 8
  33              		@ frame_needed = 0, uses_anonymous_args = 0
  34              		@ link register save eliminated.
  62:Src/tim.c     **** 
  63:Src/tim.c     ****   if(tim_baseHandle->Instance==TIM10)
  35              		.loc 1 63 3 view .LVU1
  36              		.loc 1 63 20 is_stmt 0 view .LVU2
  37 0000 0268     		ldr	r2, [r0]
  38              		.loc 1 63 5 view .LVU3
  39 0002 094B     		ldr	r3, .L8
  40 0004 9A42     		cmp	r2, r3
  41 0006 00D0     		beq	.L7
  42 0008 7047     		bx	lr
  43              	.L7:
  61:Src/tim.c     **** 
  44              		.loc 1 61 1 view .LVU4
  45 000a 82B0     		sub	sp, sp, #8
  46              	.LCFI0:
  47              		.cfi_def_cfa_offset 8
  64:Src/tim.c     ****   {
  65:Src/tim.c     ****   /* USER CODE BEGIN TIM10_MspInit 0 */
  66:Src/tim.c     **** 
  67:Src/tim.c     ****   /* USER CODE END TIM10_MspInit 0 */
ARM GAS  /tmp/ccet0kph.s 			page 3


  68:Src/tim.c     ****     /* TIM10 clock enable */
  69:Src/tim.c     ****     __HAL_RCC_TIM10_CLK_ENABLE();
  48              		.loc 1 69 5 is_stmt 1 view .LVU5
  49              	.LBB2:
  50              		.loc 1 69 5 view .LVU6
  51 000c 0023     		movs	r3, #0
  52 000e 0193     		str	r3, [sp, #4]
  53              		.loc 1 69 5 view .LVU7
  54 0010 064B     		ldr	r3, .L8+4
  55 0012 5A6C     		ldr	r2, [r3, #68]
  56 0014 42F40032 		orr	r2, r2, #131072
  57 0018 5A64     		str	r2, [r3, #68]
  58              		.loc 1 69 5 view .LVU8
  59 001a 5B6C     		ldr	r3, [r3, #68]
  60 001c 03F40033 		and	r3, r3, #131072
  61 0020 0193     		str	r3, [sp, #4]
  62              		.loc 1 69 5 view .LVU9
  63 0022 019B     		ldr	r3, [sp, #4]
  64              	.LBE2:
  65              		.loc 1 69 5 view .LVU10
  70:Src/tim.c     ****   /* USER CODE BEGIN TIM10_MspInit 1 */
  71:Src/tim.c     **** 
  72:Src/tim.c     ****   /* USER CODE END TIM10_MspInit 1 */
  73:Src/tim.c     ****   }
  74:Src/tim.c     **** }
  66              		.loc 1 74 1 is_stmt 0 view .LVU11
  67 0024 02B0     		add	sp, sp, #8
  68              	.LCFI1:
  69              		.cfi_def_cfa_offset 0
  70              		@ sp needed
  71 0026 7047     		bx	lr
  72              	.L9:
  73              		.align	2
  74              	.L8:
  75 0028 00440140 		.word	1073824768
  76 002c 00380240 		.word	1073887232
  77              		.cfi_endproc
  78              	.LFE131:
  80              		.section	.text.HAL_TIM_MspPostInit,"ax",%progbits
  81              		.align	1
  82              		.global	HAL_TIM_MspPostInit
  83              		.syntax unified
  84              		.thumb
  85              		.thumb_func
  87              	HAL_TIM_MspPostInit:
  88              	.LVL1:
  89              	.LFB132:
  75:Src/tim.c     **** void HAL_TIM_MspPostInit(TIM_HandleTypeDef* timHandle)
  76:Src/tim.c     **** {
  90              		.loc 1 76 1 is_stmt 1 view -0
  91              		.cfi_startproc
  92              		@ args = 0, pretend = 0, frame = 24
  93              		@ frame_needed = 0, uses_anonymous_args = 0
  94              		.loc 1 76 1 is_stmt 0 view .LVU13
  95 0000 30B5     		push	{r4, r5, lr}
  96              	.LCFI2:
  97              		.cfi_def_cfa_offset 12
ARM GAS  /tmp/ccet0kph.s 			page 4


  98              		.cfi_offset 4, -12
  99              		.cfi_offset 5, -8
 100              		.cfi_offset 14, -4
 101 0002 87B0     		sub	sp, sp, #28
 102              	.LCFI3:
 103              		.cfi_def_cfa_offset 40
  77:Src/tim.c     **** 
  78:Src/tim.c     ****   GPIO_InitTypeDef GPIO_InitStruct = {0};
 104              		.loc 1 78 3 is_stmt 1 view .LVU14
 105              		.loc 1 78 20 is_stmt 0 view .LVU15
 106 0004 0023     		movs	r3, #0
 107 0006 0193     		str	r3, [sp, #4]
 108 0008 0293     		str	r3, [sp, #8]
 109 000a 0393     		str	r3, [sp, #12]
 110 000c 0493     		str	r3, [sp, #16]
 111 000e 0593     		str	r3, [sp, #20]
  79:Src/tim.c     ****   if(timHandle->Instance==TIM10)
 112              		.loc 1 79 3 is_stmt 1 view .LVU16
 113              		.loc 1 79 15 is_stmt 0 view .LVU17
 114 0010 0268     		ldr	r2, [r0]
 115              		.loc 1 79 5 view .LVU18
 116 0012 144B     		ldr	r3, .L14
 117 0014 9A42     		cmp	r2, r3
 118 0016 01D0     		beq	.L13
 119              	.LVL2:
 120              	.L10:
  80:Src/tim.c     ****   {
  81:Src/tim.c     ****   /* USER CODE BEGIN TIM10_MspPostInit 0 */
  82:Src/tim.c     **** 
  83:Src/tim.c     ****   /* USER CODE END TIM10_MspPostInit 0 */
  84:Src/tim.c     **** 
  85:Src/tim.c     ****     __HAL_RCC_GPIOF_CLK_ENABLE();
  86:Src/tim.c     ****     /**TIM10 GPIO Configuration
  87:Src/tim.c     ****     PF6     ------> TIM10_CH1
  88:Src/tim.c     ****     */
  89:Src/tim.c     ****     GPIO_InitStruct.Pin = GPIO_PIN_6;
  90:Src/tim.c     ****     GPIO_InitStruct.Mode = GPIO_MODE_AF_PP;
  91:Src/tim.c     ****     GPIO_InitStruct.Pull = GPIO_PULLUP;
  92:Src/tim.c     ****     GPIO_InitStruct.Speed = GPIO_SPEED_FREQ_HIGH;
  93:Src/tim.c     ****     GPIO_InitStruct.Alternate = GPIO_AF3_TIM10;
  94:Src/tim.c     ****     HAL_GPIO_Init(GPIOF, &GPIO_InitStruct);
  95:Src/tim.c     **** 
  96:Src/tim.c     ****   /* USER CODE BEGIN TIM10_MspPostInit 1 */
  97:Src/tim.c     ****     HAL_TIM_Base_Start(&htim10);
  98:Src/tim.c     ****     HAL_TIM_PWM_Start(&htim10, TIM_CHANNEL_1);
  99:Src/tim.c     ****   /* USER CODE END TIM10_MspPostInit 1 */
 100:Src/tim.c     ****   }
 101:Src/tim.c     **** 
 102:Src/tim.c     **** }
 121              		.loc 1 102 1 view .LVU19
 122 0018 07B0     		add	sp, sp, #28
 123              	.LCFI4:
 124              		.cfi_remember_state
 125              		.cfi_def_cfa_offset 12
 126              		@ sp needed
 127 001a 30BD     		pop	{r4, r5, pc}
 128              	.LVL3:
ARM GAS  /tmp/ccet0kph.s 			page 5


 129              	.L13:
 130              	.LCFI5:
 131              		.cfi_restore_state
  85:Src/tim.c     ****     /**TIM10 GPIO Configuration
 132              		.loc 1 85 5 is_stmt 1 view .LVU20
 133              	.LBB3:
  85:Src/tim.c     ****     /**TIM10 GPIO Configuration
 134              		.loc 1 85 5 view .LVU21
 135 001c 0025     		movs	r5, #0
 136 001e 0095     		str	r5, [sp]
  85:Src/tim.c     ****     /**TIM10 GPIO Configuration
 137              		.loc 1 85 5 view .LVU22
 138 0020 03F57443 		add	r3, r3, #62464
 139 0024 1A6B     		ldr	r2, [r3, #48]
 140 0026 42F02002 		orr	r2, r2, #32
 141 002a 1A63     		str	r2, [r3, #48]
  85:Src/tim.c     ****     /**TIM10 GPIO Configuration
 142              		.loc 1 85 5 view .LVU23
 143 002c 1B6B     		ldr	r3, [r3, #48]
 144 002e 03F02003 		and	r3, r3, #32
 145 0032 0093     		str	r3, [sp]
  85:Src/tim.c     ****     /**TIM10 GPIO Configuration
 146              		.loc 1 85 5 view .LVU24
 147 0034 009B     		ldr	r3, [sp]
 148              	.LBE3:
  85:Src/tim.c     ****     /**TIM10 GPIO Configuration
 149              		.loc 1 85 5 view .LVU25
  89:Src/tim.c     ****     GPIO_InitStruct.Mode = GPIO_MODE_AF_PP;
 150              		.loc 1 89 5 view .LVU26
  89:Src/tim.c     ****     GPIO_InitStruct.Mode = GPIO_MODE_AF_PP;
 151              		.loc 1 89 25 is_stmt 0 view .LVU27
 152 0036 4023     		movs	r3, #64
 153 0038 0193     		str	r3, [sp, #4]
  90:Src/tim.c     ****     GPIO_InitStruct.Pull = GPIO_PULLUP;
 154              		.loc 1 90 5 is_stmt 1 view .LVU28
  90:Src/tim.c     ****     GPIO_InitStruct.Pull = GPIO_PULLUP;
 155              		.loc 1 90 26 is_stmt 0 view .LVU29
 156 003a 0223     		movs	r3, #2
 157 003c 0293     		str	r3, [sp, #8]
  91:Src/tim.c     ****     GPIO_InitStruct.Speed = GPIO_SPEED_FREQ_HIGH;
 158              		.loc 1 91 5 is_stmt 1 view .LVU30
  91:Src/tim.c     ****     GPIO_InitStruct.Speed = GPIO_SPEED_FREQ_HIGH;
 159              		.loc 1 91 26 is_stmt 0 view .LVU31
 160 003e 0122     		movs	r2, #1
 161 0040 0392     		str	r2, [sp, #12]
  92:Src/tim.c     ****     GPIO_InitStruct.Alternate = GPIO_AF3_TIM10;
 162              		.loc 1 92 5 is_stmt 1 view .LVU32
  92:Src/tim.c     ****     GPIO_InitStruct.Alternate = GPIO_AF3_TIM10;
 163              		.loc 1 92 27 is_stmt 0 view .LVU33
 164 0042 0493     		str	r3, [sp, #16]
  93:Src/tim.c     ****     HAL_GPIO_Init(GPIOF, &GPIO_InitStruct);
 165              		.loc 1 93 5 is_stmt 1 view .LVU34
  93:Src/tim.c     ****     HAL_GPIO_Init(GPIOF, &GPIO_InitStruct);
 166              		.loc 1 93 31 is_stmt 0 view .LVU35
 167 0044 0323     		movs	r3, #3
 168 0046 0593     		str	r3, [sp, #20]
  94:Src/tim.c     **** 
ARM GAS  /tmp/ccet0kph.s 			page 6


 169              		.loc 1 94 5 is_stmt 1 view .LVU36
 170 0048 01A9     		add	r1, sp, #4
 171 004a 0748     		ldr	r0, .L14+4
 172              	.LVL4:
  94:Src/tim.c     **** 
 173              		.loc 1 94 5 is_stmt 0 view .LVU37
 174 004c FFF7FEFF 		bl	HAL_GPIO_Init
 175              	.LVL5:
  97:Src/tim.c     ****     HAL_TIM_PWM_Start(&htim10, TIM_CHANNEL_1);
 176              		.loc 1 97 5 is_stmt 1 view .LVU38
 177 0050 064C     		ldr	r4, .L14+8
 178 0052 2046     		mov	r0, r4
 179 0054 FFF7FEFF 		bl	HAL_TIM_Base_Start
 180              	.LVL6:
  98:Src/tim.c     ****   /* USER CODE END TIM10_MspPostInit 1 */
 181              		.loc 1 98 5 view .LVU39
 182 0058 2946     		mov	r1, r5
 183 005a 2046     		mov	r0, r4
 184 005c FFF7FEFF 		bl	HAL_TIM_PWM_Start
 185              	.LVL7:
 186              		.loc 1 102 1 is_stmt 0 view .LVU40
 187 0060 DAE7     		b	.L10
 188              	.L15:
 189 0062 00BF     		.align	2
 190              	.L14:
 191 0064 00440140 		.word	1073824768
 192 0068 00140240 		.word	1073878016
 193 006c 00000000 		.word	.LANCHOR0
 194              		.cfi_endproc
 195              	.LFE132:
 197              		.section	.text.MX_TIM10_Init,"ax",%progbits
 198              		.align	1
 199              		.global	MX_TIM10_Init
 200              		.syntax unified
 201              		.thumb
 202              		.thumb_func
 204              	MX_TIM10_Init:
 205              	.LFB130:
  31:Src/tim.c     ****   TIM_OC_InitTypeDef sConfigOC = {0};
 206              		.loc 1 31 1 is_stmt 1 view -0
 207              		.cfi_startproc
 208              		@ args = 0, pretend = 0, frame = 32
 209              		@ frame_needed = 0, uses_anonymous_args = 0
 210 0000 00B5     		push	{lr}
 211              	.LCFI6:
 212              		.cfi_def_cfa_offset 4
 213              		.cfi_offset 14, -4
 214 0002 89B0     		sub	sp, sp, #36
 215              	.LCFI7:
 216              		.cfi_def_cfa_offset 40
  32:Src/tim.c     **** 
 217              		.loc 1 32 3 view .LVU42
  32:Src/tim.c     **** 
 218              		.loc 1 32 22 is_stmt 0 view .LVU43
 219 0004 0023     		movs	r3, #0
 220 0006 0193     		str	r3, [sp, #4]
 221 0008 0293     		str	r3, [sp, #8]
ARM GAS  /tmp/ccet0kph.s 			page 7


 222 000a 0393     		str	r3, [sp, #12]
 223 000c 0493     		str	r3, [sp, #16]
 224 000e 0593     		str	r3, [sp, #20]
 225 0010 0693     		str	r3, [sp, #24]
 226 0012 0793     		str	r3, [sp, #28]
  34:Src/tim.c     ****   htim10.Init.Prescaler = 0;
 227              		.loc 1 34 3 is_stmt 1 view .LVU44
  34:Src/tim.c     ****   htim10.Init.Prescaler = 0;
 228              		.loc 1 34 19 is_stmt 0 view .LVU45
 229 0014 1548     		ldr	r0, .L24
 230 0016 164A     		ldr	r2, .L24+4
 231 0018 0260     		str	r2, [r0]
  35:Src/tim.c     ****   htim10.Init.CounterMode = TIM_COUNTERMODE_UP;
 232              		.loc 1 35 3 is_stmt 1 view .LVU46
  35:Src/tim.c     ****   htim10.Init.CounterMode = TIM_COUNTERMODE_UP;
 233              		.loc 1 35 25 is_stmt 0 view .LVU47
 234 001a 4360     		str	r3, [r0, #4]
  36:Src/tim.c     ****   htim10.Init.Period = 4999;
 235              		.loc 1 36 3 is_stmt 1 view .LVU48
  36:Src/tim.c     ****   htim10.Init.Period = 4999;
 236              		.loc 1 36 27 is_stmt 0 view .LVU49
 237 001c 8360     		str	r3, [r0, #8]
  37:Src/tim.c     ****   htim10.Init.ClockDivision = TIM_CLOCKDIVISION_DIV1;
 238              		.loc 1 37 3 is_stmt 1 view .LVU50
  37:Src/tim.c     ****   htim10.Init.ClockDivision = TIM_CLOCKDIVISION_DIV1;
 239              		.loc 1 37 22 is_stmt 0 view .LVU51
 240 001e 41F28732 		movw	r2, #4999
 241 0022 C260     		str	r2, [r0, #12]
  38:Src/tim.c     ****   htim10.Init.AutoReloadPreload = TIM_AUTORELOAD_PRELOAD_DISABLE;
 242              		.loc 1 38 3 is_stmt 1 view .LVU52
  38:Src/tim.c     ****   htim10.Init.AutoReloadPreload = TIM_AUTORELOAD_PRELOAD_DISABLE;
 243              		.loc 1 38 29 is_stmt 0 view .LVU53
 244 0024 0361     		str	r3, [r0, #16]
  39:Src/tim.c     ****   if (HAL_TIM_Base_Init(&htim10) != HAL_OK)
 245              		.loc 1 39 3 is_stmt 1 view .LVU54
  39:Src/tim.c     ****   if (HAL_TIM_Base_Init(&htim10) != HAL_OK)
 246              		.loc 1 39 33 is_stmt 0 view .LVU55
 247 0026 8361     		str	r3, [r0, #24]
  40:Src/tim.c     ****   {
 248              		.loc 1 40 3 is_stmt 1 view .LVU56
  40:Src/tim.c     ****   {
 249              		.loc 1 40 7 is_stmt 0 view .LVU57
 250 0028 FFF7FEFF 		bl	HAL_TIM_Base_Init
 251              	.LVL8:
  40:Src/tim.c     ****   {
 252              		.loc 1 40 6 view .LVU58
 253 002c A0B9     		cbnz	r0, .L21
 254              	.L17:
  44:Src/tim.c     ****   {
 255              		.loc 1 44 3 is_stmt 1 view .LVU59
  44:Src/tim.c     ****   {
 256              		.loc 1 44 7 is_stmt 0 view .LVU60
 257 002e 0F48     		ldr	r0, .L24
 258 0030 FFF7FEFF 		bl	HAL_TIM_PWM_Init
 259              	.LVL9:
  44:Src/tim.c     ****   {
 260              		.loc 1 44 6 view .LVU61
ARM GAS  /tmp/ccet0kph.s 			page 8


 261 0034 98B9     		cbnz	r0, .L22
 262              	.L18:
  48:Src/tim.c     ****   sConfigOC.Pulse = 0;
 263              		.loc 1 48 3 is_stmt 1 view .LVU62
  48:Src/tim.c     ****   sConfigOC.Pulse = 0;
 264              		.loc 1 48 20 is_stmt 0 view .LVU63
 265 0036 6023     		movs	r3, #96
 266 0038 0193     		str	r3, [sp, #4]
  49:Src/tim.c     ****   sConfigOC.OCPolarity = TIM_OCPOLARITY_HIGH;
 267              		.loc 1 49 3 is_stmt 1 view .LVU64
  49:Src/tim.c     ****   sConfigOC.OCPolarity = TIM_OCPOLARITY_HIGH;
 268              		.loc 1 49 19 is_stmt 0 view .LVU65
 269 003a 0022     		movs	r2, #0
 270 003c 0292     		str	r2, [sp, #8]
  50:Src/tim.c     ****   sConfigOC.OCFastMode = TIM_OCFAST_DISABLE;
 271              		.loc 1 50 3 is_stmt 1 view .LVU66
  50:Src/tim.c     ****   sConfigOC.OCFastMode = TIM_OCFAST_DISABLE;
 272              		.loc 1 50 24 is_stmt 0 view .LVU67
 273 003e 0392     		str	r2, [sp, #12]
  51:Src/tim.c     ****   if (HAL_TIM_PWM_ConfigChannel(&htim10, &sConfigOC, TIM_CHANNEL_1) != HAL_OK)
 274              		.loc 1 51 3 is_stmt 1 view .LVU68
  51:Src/tim.c     ****   if (HAL_TIM_PWM_ConfigChannel(&htim10, &sConfigOC, TIM_CHANNEL_1) != HAL_OK)
 275              		.loc 1 51 24 is_stmt 0 view .LVU69
 276 0040 0592     		str	r2, [sp, #20]
  52:Src/tim.c     ****   {
 277              		.loc 1 52 3 is_stmt 1 view .LVU70
  52:Src/tim.c     ****   {
 278              		.loc 1 52 7 is_stmt 0 view .LVU71
 279 0042 01A9     		add	r1, sp, #4
 280 0044 0948     		ldr	r0, .L24
 281 0046 FFF7FEFF 		bl	HAL_TIM_PWM_ConfigChannel
 282              	.LVL10:
  52:Src/tim.c     ****   {
 283              		.loc 1 52 6 view .LVU72
 284 004a 58B9     		cbnz	r0, .L23
 285              	.L19:
  56:Src/tim.c     **** 
 286              		.loc 1 56 3 is_stmt 1 view .LVU73
 287 004c 0748     		ldr	r0, .L24
 288 004e FFF7FEFF 		bl	HAL_TIM_MspPostInit
 289              	.LVL11:
  58:Src/tim.c     **** 
 290              		.loc 1 58 1 is_stmt 0 view .LVU74
 291 0052 09B0     		add	sp, sp, #36
 292              	.LCFI8:
 293              		.cfi_remember_state
 294              		.cfi_def_cfa_offset 4
 295              		@ sp needed
 296 0054 5DF804FB 		ldr	pc, [sp], #4
 297              	.L21:
 298              	.LCFI9:
 299              		.cfi_restore_state
  42:Src/tim.c     ****   }
 300              		.loc 1 42 5 is_stmt 1 view .LVU75
 301 0058 FFF7FEFF 		bl	Error_Handler
 302              	.LVL12:
 303 005c E7E7     		b	.L17
ARM GAS  /tmp/ccet0kph.s 			page 9


 304              	.L22:
  46:Src/tim.c     ****   }
 305              		.loc 1 46 5 view .LVU76
 306 005e FFF7FEFF 		bl	Error_Handler
 307              	.LVL13:
 308 0062 E8E7     		b	.L18
 309              	.L23:
  54:Src/tim.c     ****   }
 310              		.loc 1 54 5 view .LVU77
 311 0064 FFF7FEFF 		bl	Error_Handler
 312              	.LVL14:
 313 0068 F0E7     		b	.L19
 314              	.L25:
 315 006a 00BF     		.align	2
 316              	.L24:
 317 006c 00000000 		.word	.LANCHOR0
 318 0070 00440140 		.word	1073824768
 319              		.cfi_endproc
 320              	.LFE130:
 322              		.section	.text.HAL_TIM_Base_MspDeInit,"ax",%progbits
 323              		.align	1
 324              		.global	HAL_TIM_Base_MspDeInit
 325              		.syntax unified
 326              		.thumb
 327              		.thumb_func
 329              	HAL_TIM_Base_MspDeInit:
 330              	.LVL15:
 331              	.LFB133:
 103:Src/tim.c     **** 
 104:Src/tim.c     **** void HAL_TIM_Base_MspDeInit(TIM_HandleTypeDef* tim_baseHandle)
 105:Src/tim.c     **** {
 332              		.loc 1 105 1 view -0
 333              		.cfi_startproc
 334              		@ args = 0, pretend = 0, frame = 0
 335              		@ frame_needed = 0, uses_anonymous_args = 0
 336              		@ link register save eliminated.
 106:Src/tim.c     **** 
 107:Src/tim.c     ****   if(tim_baseHandle->Instance==TIM10)
 337              		.loc 1 107 3 view .LVU79
 338              		.loc 1 107 20 is_stmt 0 view .LVU80
 339 0000 0268     		ldr	r2, [r0]
 340              		.loc 1 107 5 view .LVU81
 341 0002 054B     		ldr	r3, .L29
 342 0004 9A42     		cmp	r2, r3
 343 0006 00D0     		beq	.L28
 344              	.L26:
 108:Src/tim.c     ****   {
 109:Src/tim.c     ****   /* USER CODE BEGIN TIM10_MspDeInit 0 */
 110:Src/tim.c     **** 
 111:Src/tim.c     ****   /* USER CODE END TIM10_MspDeInit 0 */
 112:Src/tim.c     ****     /* Peripheral clock disable */
 113:Src/tim.c     ****     __HAL_RCC_TIM10_CLK_DISABLE();
 114:Src/tim.c     ****   /* USER CODE BEGIN TIM10_MspDeInit 1 */
 115:Src/tim.c     **** 
 116:Src/tim.c     ****   /* USER CODE END TIM10_MspDeInit 1 */
 117:Src/tim.c     ****   }
 118:Src/tim.c     **** }
ARM GAS  /tmp/ccet0kph.s 			page 10


 345              		.loc 1 118 1 view .LVU82
 346 0008 7047     		bx	lr
 347              	.L28:
 113:Src/tim.c     ****   /* USER CODE BEGIN TIM10_MspDeInit 1 */
 348              		.loc 1 113 5 is_stmt 1 view .LVU83
 349 000a 044A     		ldr	r2, .L29+4
 350 000c 536C     		ldr	r3, [r2, #68]
 351 000e 23F40033 		bic	r3, r3, #131072
 352 0012 5364     		str	r3, [r2, #68]
 353              		.loc 1 118 1 is_stmt 0 view .LVU84
 354 0014 F8E7     		b	.L26
 355              	.L30:
 356 0016 00BF     		.align	2
 357              	.L29:
 358 0018 00440140 		.word	1073824768
 359 001c 00380240 		.word	1073887232
 360              		.cfi_endproc
 361              	.LFE133:
 363              		.global	htim10
 364              		.section	.bss.htim10,"aw",%nobits
 365              		.align	2
 366              		.set	.LANCHOR0,. + 0
 369              	htim10:
 370 0000 00000000 		.space	64
 370      00000000 
 370      00000000 
 370      00000000 
 370      00000000 
 371              		.text
 372              	.Letext0:
 373              		.file 2 "/home/tianbot/gcc-arm-none-eabi-10.3-2021.10/arm-none-eabi/include/machine/_default_types
 374              		.file 3 "/home/tianbot/gcc-arm-none-eabi-10.3-2021.10/arm-none-eabi/include/sys/_stdint.h"
 375              		.file 4 "Drivers/CMSIS/Device/ST/STM32F4xx/Include/stm32f407xx.h"
 376              		.file 5 "Drivers/STM32F4xx_HAL_Driver/Inc/stm32f4xx_hal_def.h"
 377              		.file 6 "Drivers/STM32F4xx_HAL_Driver/Inc/stm32f4xx_hal_gpio.h"
 378              		.file 7 "Drivers/STM32F4xx_HAL_Driver/Inc/stm32f4xx_hal_dma.h"
 379              		.file 8 "Drivers/STM32F4xx_HAL_Driver/Inc/stm32f4xx_hal_tim.h"
 380              		.file 9 "Inc/main.h"
 381              		.file 10 "Inc/tim.h"
ARM GAS  /tmp/ccet0kph.s 			page 11

