ARM GAS  C:\Users\xixi\AppData\Local\Temp\ccW01pdv.s 			page 1


   1              		.cpu cortex-m4
   2              		.arch armv7e-m
   3              		.fpu fpv4-sp-d16
   4              		.eabi_attribute 27, 1
   5              		.eabi_attribute 28, 1
   6              		.eabi_attribute 20, 1
   7              		.eabi_attribute 21, 1
   8              		.eabi_attribute 23, 3
   9              		.eabi_attribute 24, 1
  10              		.eabi_attribute 25, 1
  11              		.eabi_attribute 26, 1
  12              		.eabi_attribute 30, 1
  13              		.eabi_attribute 34, 1
  14              		.eabi_attribute 18, 4
  15              		.file	"bsp_spi.c"
  16              		.text
  17              	.Ltext0:
  18              		.cfi_sections	.debug_frame
  19              		.section	.text.SPI1_DMA_init,"ax",%progbits
  20              		.align	1
  21              		.global	SPI1_DMA_init
  22              		.syntax unified
  23              		.thumb
  24              		.thumb_func
  26              	SPI1_DMA_init:
  27              	.LVL0:
  28              	.LFB130:
  29              		.file 1 "IMU/bsp_spi.c"
   1:IMU/bsp_spi.c **** #include "bsp_spi.h"
   2:IMU/bsp_spi.c **** #include "main.h"
   3:IMU/bsp_spi.c **** 
   4:IMU/bsp_spi.c **** extern SPI_HandleTypeDef hspi1;
   5:IMU/bsp_spi.c **** extern DMA_HandleTypeDef hdma_spi1_rx;
   6:IMU/bsp_spi.c **** extern DMA_HandleTypeDef hdma_spi1_tx;
   7:IMU/bsp_spi.c **** 
   8:IMU/bsp_spi.c **** void SPI1_DMA_init(uint32_t tx_buf, uint32_t rx_buf, uint16_t num)
   9:IMU/bsp_spi.c **** {
  30              		.loc 1 9 1 view -0
  31              		.cfi_startproc
  32              		@ args = 0, pretend = 0, frame = 0
  33              		@ frame_needed = 0, uses_anonymous_args = 0
  34              		@ link register save eliminated.
  35              		.loc 1 9 1 is_stmt 0 view .LVU1
  36 0000 30B4     		push	{r4, r5}
  37              	.LCFI0:
  38              		.cfi_def_cfa_offset 8
  39              		.cfi_offset 4, -8
  40              		.cfi_offset 5, -4
  10:IMU/bsp_spi.c ****     SET_BIT(hspi1.Instance->CR2, SPI_CR2_TXDMAEN);
  41              		.loc 1 10 5 is_stmt 1 view .LVU2
  42 0002 3C4B     		ldr	r3, .L15
  43 0004 1B68     		ldr	r3, [r3]
  44 0006 5C68     		ldr	r4, [r3, #4]
  45 0008 44F00204 		orr	r4, r4, #2
  46 000c 5C60     		str	r4, [r3, #4]
  11:IMU/bsp_spi.c ****     SET_BIT(hspi1.Instance->CR2, SPI_CR2_RXDMAEN);
  47              		.loc 1 11 5 view .LVU3
ARM GAS  C:\Users\xixi\AppData\Local\Temp\ccW01pdv.s 			page 2


  48 000e 5C68     		ldr	r4, [r3, #4]
  49 0010 44F00104 		orr	r4, r4, #1
  50 0014 5C60     		str	r4, [r3, #4]
  12:IMU/bsp_spi.c **** 
  13:IMU/bsp_spi.c ****     __HAL_SPI_ENABLE(&hspi1);
  51              		.loc 1 13 5 view .LVU4
  52 0016 1C68     		ldr	r4, [r3]
  53 0018 44F04004 		orr	r4, r4, #64
  54 001c 1C60     		str	r4, [r3]
  14:IMU/bsp_spi.c **** 
  15:IMU/bsp_spi.c **** 
  16:IMU/bsp_spi.c ****     //disable DMA
  17:IMU/bsp_spi.c ****     //失效DMA
  18:IMU/bsp_spi.c ****     __HAL_DMA_DISABLE(&hdma_spi1_rx);
  55              		.loc 1 18 5 view .LVU5
  56 001e 364B     		ldr	r3, .L15+4
  57 0020 1C68     		ldr	r4, [r3]
  58 0022 2368     		ldr	r3, [r4]
  59 0024 23F00103 		bic	r3, r3, #1
  60 0028 2360     		str	r3, [r4]
  19:IMU/bsp_spi.c ****     
  20:IMU/bsp_spi.c ****     while(hdma_spi1_rx.Instance->CR & DMA_SxCR_EN)
  61              		.loc 1 20 5 view .LVU6
  62              		.loc 1 20 10 is_stmt 0 view .LVU7
  63 002a 03E0     		b	.L2
  64              	.L3:
  21:IMU/bsp_spi.c ****     {
  22:IMU/bsp_spi.c ****         __HAL_DMA_DISABLE(&hdma_spi1_rx);
  65              		.loc 1 22 9 is_stmt 1 view .LVU8
  66 002c 1C68     		ldr	r4, [r3]
  67 002e 24F00104 		bic	r4, r4, #1
  68 0032 1C60     		str	r4, [r3]
  69              	.L2:
  20:IMU/bsp_spi.c ****     {
  70              		.loc 1 20 10 view .LVU9
  20:IMU/bsp_spi.c ****     {
  71              		.loc 1 20 23 is_stmt 0 view .LVU10
  72 0034 304B     		ldr	r3, .L15+4
  73 0036 1B68     		ldr	r3, [r3]
  20:IMU/bsp_spi.c ****     {
  74              		.loc 1 20 32 view .LVU11
  75 0038 1C68     		ldr	r4, [r3]
  20:IMU/bsp_spi.c ****     {
  76              		.loc 1 20 10 view .LVU12
  77 003a 14F0010F 		tst	r4, #1
  78 003e F5D1     		bne	.L3
  23:IMU/bsp_spi.c ****     }
  24:IMU/bsp_spi.c **** 
  25:IMU/bsp_spi.c ****     __HAL_DMA_CLEAR_FLAG(&hdma_spi1_rx, DMA_LISR_TCIF2);
  79              		.loc 1 25 5 is_stmt 1 view .LVU13
  80 0040 2E4C     		ldr	r4, .L15+8
  81 0042 A342     		cmp	r3, r4
  82 0044 12D9     		bls	.L4
  83              		.loc 1 25 5 is_stmt 0 discriminator 1 view .LVU14
  84 0046 583C     		subs	r4, r4, #88
  85 0048 4FF40015 		mov	r5, #2097152
  86 004c E560     		str	r5, [r4, #12]
ARM GAS  C:\Users\xixi\AppData\Local\Temp\ccW01pdv.s 			page 3


  87              	.L5:
  26:IMU/bsp_spi.c **** 
  27:IMU/bsp_spi.c ****     hdma_spi1_rx.Instance->PAR = (uint32_t) & (SPI1->DR);
  88              		.loc 1 27 5 is_stmt 1 view .LVU15
  89              		.loc 1 27 32 is_stmt 0 view .LVU16
  90 004e 2C4C     		ldr	r4, .L15+12
  91 0050 9C60     		str	r4, [r3, #8]
  28:IMU/bsp_spi.c ****     //memory buffer 1
  29:IMU/bsp_spi.c ****     //内存缓冲区1
  30:IMU/bsp_spi.c ****     hdma_spi1_rx.Instance->M0AR = (uint32_t)(rx_buf);
  92              		.loc 1 30 5 is_stmt 1 view .LVU17
  93              		.loc 1 30 33 is_stmt 0 view .LVU18
  94 0052 D960     		str	r1, [r3, #12]
  31:IMU/bsp_spi.c ****     //data length
  32:IMU/bsp_spi.c ****     //数据长度
  33:IMU/bsp_spi.c ****     __HAL_DMA_SET_COUNTER(&hdma_spi1_rx, num);
  95              		.loc 1 33 5 is_stmt 1 view .LVU19
  96 0054 5A60     		str	r2, [r3, #4]
  34:IMU/bsp_spi.c **** 
  35:IMU/bsp_spi.c ****     __HAL_DMA_ENABLE_IT(&hdma_spi1_rx, DMA_IT_TC);
  97              		.loc 1 35 5 view .LVU20
  98 0056 1968     		ldr	r1, [r3]
  99              	.LVL1:
 100              		.loc 1 35 5 is_stmt 0 view .LVU21
 101 0058 41F01001 		orr	r1, r1, #16
 102 005c 1960     		str	r1, [r3]
  36:IMU/bsp_spi.c **** 
  37:IMU/bsp_spi.c **** 
  38:IMU/bsp_spi.c ****     //disable DMA
  39:IMU/bsp_spi.c ****     //失效DMA
  40:IMU/bsp_spi.c ****     __HAL_DMA_DISABLE(&hdma_spi1_tx);
 103              		.loc 1 40 5 is_stmt 1 view .LVU22
 104 005e 294B     		ldr	r3, .L15+16
 105 0060 1968     		ldr	r1, [r3]
 106 0062 0B68     		ldr	r3, [r1]
 107 0064 23F00103 		bic	r3, r3, #1
 108 0068 0B60     		str	r3, [r1]
  41:IMU/bsp_spi.c ****     
  42:IMU/bsp_spi.c ****     while(hdma_spi1_tx.Instance->CR & DMA_SxCR_EN)
 109              		.loc 1 42 5 view .LVU23
 110              		.loc 1 42 10 is_stmt 0 view .LVU24
 111 006a 19E0     		b	.L8
 112              	.LVL2:
 113              	.L4:
  25:IMU/bsp_spi.c **** 
 114              		.loc 1 25 5 discriminator 2 view .LVU25
 115 006c 264C     		ldr	r4, .L15+20
 116 006e A342     		cmp	r3, r4
 117 0070 05D9     		bls	.L6
  25:IMU/bsp_spi.c **** 
 118              		.loc 1 25 5 discriminator 3 view .LVU26
 119 0072 04F55274 		add	r4, r4, #840
 120 0076 4FF40015 		mov	r5, #2097152
 121 007a A560     		str	r5, [r4, #8]
 122 007c E7E7     		b	.L5
 123              	.L6:
  25:IMU/bsp_spi.c **** 
ARM GAS  C:\Users\xixi\AppData\Local\Temp\ccW01pdv.s 			page 4


 124              		.loc 1 25 5 discriminator 4 view .LVU27
 125 007e 234C     		ldr	r4, .L15+24
 126 0080 A342     		cmp	r3, r4
 127 0082 04D9     		bls	.L7
  25:IMU/bsp_spi.c **** 
 128              		.loc 1 25 5 discriminator 6 view .LVU28
 129 0084 583C     		subs	r4, r4, #88
 130 0086 4FF40015 		mov	r5, #2097152
 131 008a E560     		str	r5, [r4, #12]
 132 008c DFE7     		b	.L5
 133              	.L7:
  25:IMU/bsp_spi.c **** 
 134              		.loc 1 25 5 discriminator 7 view .LVU29
 135 008e 204C     		ldr	r4, .L15+28
 136 0090 4FF40015 		mov	r5, #2097152
 137 0094 A560     		str	r5, [r4, #8]
 138 0096 DAE7     		b	.L5
 139              	.LVL3:
 140              	.L9:
  43:IMU/bsp_spi.c ****     {
  44:IMU/bsp_spi.c ****         __HAL_DMA_DISABLE(&hdma_spi1_tx);
 141              		.loc 1 44 9 is_stmt 1 view .LVU30
 142 0098 1968     		ldr	r1, [r3]
 143 009a 21F00101 		bic	r1, r1, #1
 144 009e 1960     		str	r1, [r3]
 145              	.L8:
  42:IMU/bsp_spi.c ****     {
 146              		.loc 1 42 10 view .LVU31
  42:IMU/bsp_spi.c ****     {
 147              		.loc 1 42 23 is_stmt 0 view .LVU32
 148 00a0 184B     		ldr	r3, .L15+16
 149 00a2 1B68     		ldr	r3, [r3]
  42:IMU/bsp_spi.c ****     {
 150              		.loc 1 42 32 view .LVU33
 151 00a4 1968     		ldr	r1, [r3]
  42:IMU/bsp_spi.c ****     {
 152              		.loc 1 42 10 view .LVU34
 153 00a6 11F0010F 		tst	r1, #1
 154 00aa F5D1     		bne	.L9
  45:IMU/bsp_spi.c ****     }
  46:IMU/bsp_spi.c **** 
  47:IMU/bsp_spi.c **** 
  48:IMU/bsp_spi.c ****     __HAL_DMA_CLEAR_FLAG(&hdma_spi1_tx, DMA_LISR_TCIF3);
 155              		.loc 1 48 5 is_stmt 1 view .LVU35
 156 00ac 1349     		ldr	r1, .L15+8
 157 00ae 8B42     		cmp	r3, r1
 158 00b0 09D9     		bls	.L10
 159              		.loc 1 48 5 is_stmt 0 discriminator 1 view .LVU36
 160 00b2 5839     		subs	r1, r1, #88
 161 00b4 4FF00064 		mov	r4, #134217728
 162 00b8 CC60     		str	r4, [r1, #12]
 163              	.L11:
  49:IMU/bsp_spi.c **** 
  50:IMU/bsp_spi.c ****     hdma_spi1_tx.Instance->PAR = (uint32_t) & (SPI1->DR);
 164              		.loc 1 50 5 is_stmt 1 view .LVU37
 165              		.loc 1 50 32 is_stmt 0 view .LVU38
 166 00ba 1149     		ldr	r1, .L15+12
ARM GAS  C:\Users\xixi\AppData\Local\Temp\ccW01pdv.s 			page 5


 167 00bc 9960     		str	r1, [r3, #8]
  51:IMU/bsp_spi.c ****     //memory buffer 1
  52:IMU/bsp_spi.c ****     //内存缓冲区1
  53:IMU/bsp_spi.c ****     hdma_spi1_tx.Instance->M0AR = (uint32_t)(tx_buf);
 168              		.loc 1 53 5 is_stmt 1 view .LVU39
 169              		.loc 1 53 33 is_stmt 0 view .LVU40
 170 00be D860     		str	r0, [r3, #12]
  54:IMU/bsp_spi.c ****     //data length
  55:IMU/bsp_spi.c ****     //数据长度
  56:IMU/bsp_spi.c ****     __HAL_DMA_SET_COUNTER(&hdma_spi1_tx, num);
 171              		.loc 1 56 5 is_stmt 1 view .LVU41
 172 00c0 5A60     		str	r2, [r3, #4]
  57:IMU/bsp_spi.c **** 
  58:IMU/bsp_spi.c **** 
  59:IMU/bsp_spi.c **** }
 173              		.loc 1 59 1 is_stmt 0 view .LVU42
 174 00c2 30BC     		pop	{r4, r5}
 175              	.LCFI1:
 176              		.cfi_remember_state
 177              		.cfi_restore 5
 178              		.cfi_restore 4
 179              		.cfi_def_cfa_offset 0
 180 00c4 7047     		bx	lr
 181              	.L10:
 182              	.LCFI2:
 183              		.cfi_restore_state
  48:IMU/bsp_spi.c **** 
 184              		.loc 1 48 5 discriminator 2 view .LVU43
 185 00c6 1049     		ldr	r1, .L15+20
 186 00c8 8B42     		cmp	r3, r1
 187 00ca 05D9     		bls	.L12
  48:IMU/bsp_spi.c **** 
 188              		.loc 1 48 5 discriminator 3 view .LVU44
 189 00cc 01F55271 		add	r1, r1, #840
 190 00d0 4FF00064 		mov	r4, #134217728
 191 00d4 8C60     		str	r4, [r1, #8]
 192 00d6 F0E7     		b	.L11
 193              	.L12:
  48:IMU/bsp_spi.c **** 
 194              		.loc 1 48 5 discriminator 4 view .LVU45
 195 00d8 0C49     		ldr	r1, .L15+24
 196 00da 8B42     		cmp	r3, r1
 197 00dc 04D9     		bls	.L13
  48:IMU/bsp_spi.c **** 
 198              		.loc 1 48 5 discriminator 6 view .LVU46
 199 00de 5839     		subs	r1, r1, #88
 200 00e0 4FF00064 		mov	r4, #134217728
 201 00e4 CC60     		str	r4, [r1, #12]
 202 00e6 E8E7     		b	.L11
 203              	.L13:
  48:IMU/bsp_spi.c **** 
 204              		.loc 1 48 5 discriminator 7 view .LVU47
 205 00e8 0949     		ldr	r1, .L15+28
 206 00ea 4FF00064 		mov	r4, #134217728
 207 00ee 8C60     		str	r4, [r1, #8]
 208 00f0 E3E7     		b	.L11
 209              	.L16:
ARM GAS  C:\Users\xixi\AppData\Local\Temp\ccW01pdv.s 			page 6


 210 00f2 00BF     		.align	2
 211              	.L15:
 212 00f4 00000000 		.word	hspi1
 213 00f8 00000000 		.word	hdma_spi1_rx
 214 00fc 58640240 		.word	1073898584
 215 0100 0C300140 		.word	1073819660
 216 0104 00000000 		.word	hdma_spi1_tx
 217 0108 B8600240 		.word	1073897656
 218 010c 58600240 		.word	1073897560
 219 0110 00600240 		.word	1073897472
 220              		.cfi_endproc
 221              	.LFE130:
 223              		.section	.text.SPI1_DMA_enable,"ax",%progbits
 224              		.align	1
 225              		.global	SPI1_DMA_enable
 226              		.syntax unified
 227              		.thumb
 228              		.thumb_func
 230              	SPI1_DMA_enable:
 231              	.LVL4:
 232              	.LFB131:
  60:IMU/bsp_spi.c **** 
  61:IMU/bsp_spi.c **** void SPI1_DMA_enable(uint32_t tx_buf, uint32_t rx_buf, uint16_t ndtr)
  62:IMU/bsp_spi.c **** {
 233              		.loc 1 62 1 is_stmt 1 view -0
 234              		.cfi_startproc
 235              		@ args = 0, pretend = 0, frame = 0
 236              		@ frame_needed = 0, uses_anonymous_args = 0
 237              		@ link register save eliminated.
 238              		.loc 1 62 1 is_stmt 0 view .LVU49
 239 0000 30B4     		push	{r4, r5}
 240              	.LCFI3:
 241              		.cfi_def_cfa_offset 8
 242              		.cfi_offset 4, -8
 243              		.cfi_offset 5, -4
  63:IMU/bsp_spi.c ****     //disable DMA
  64:IMU/bsp_spi.c ****     //失效DMA
  65:IMU/bsp_spi.c ****     __HAL_DMA_DISABLE(&hdma_spi1_rx);
 244              		.loc 1 65 5 is_stmt 1 view .LVU50
 245 0002 AD4B     		ldr	r3, .L623
 246 0004 1C68     		ldr	r4, [r3]
 247 0006 2368     		ldr	r3, [r4]
 248 0008 23F00103 		bic	r3, r3, #1
 249 000c 2360     		str	r3, [r4]
  66:IMU/bsp_spi.c ****     __HAL_DMA_DISABLE(&hdma_spi1_tx);
 250              		.loc 1 66 5 view .LVU51
 251 000e AB4B     		ldr	r3, .L623+4
 252 0010 1C68     		ldr	r4, [r3]
 253 0012 2368     		ldr	r3, [r4]
 254 0014 23F00103 		bic	r3, r3, #1
 255 0018 2360     		str	r3, [r4]
  67:IMU/bsp_spi.c ****     while(hdma_spi1_rx.Instance->CR & DMA_SxCR_EN)
 256              		.loc 1 67 5 view .LVU52
 257              		.loc 1 67 10 is_stmt 0 view .LVU53
 258 001a 03E0     		b	.L18
 259              	.L19:
  68:IMU/bsp_spi.c ****     {
ARM GAS  C:\Users\xixi\AppData\Local\Temp\ccW01pdv.s 			page 7


  69:IMU/bsp_spi.c ****         __HAL_DMA_DISABLE(&hdma_spi1_rx);
 260              		.loc 1 69 9 is_stmt 1 view .LVU54
 261 001c 1C68     		ldr	r4, [r3]
 262 001e 24F00104 		bic	r4, r4, #1
 263 0022 1C60     		str	r4, [r3]
 264              	.L18:
  67:IMU/bsp_spi.c ****     while(hdma_spi1_rx.Instance->CR & DMA_SxCR_EN)
 265              		.loc 1 67 10 view .LVU55
  67:IMU/bsp_spi.c ****     while(hdma_spi1_rx.Instance->CR & DMA_SxCR_EN)
 266              		.loc 1 67 23 is_stmt 0 view .LVU56
 267 0024 A44B     		ldr	r3, .L623
 268 0026 1B68     		ldr	r3, [r3]
  67:IMU/bsp_spi.c ****     while(hdma_spi1_rx.Instance->CR & DMA_SxCR_EN)
 269              		.loc 1 67 32 view .LVU57
 270 0028 1C68     		ldr	r4, [r3]
  67:IMU/bsp_spi.c ****     while(hdma_spi1_rx.Instance->CR & DMA_SxCR_EN)
 271              		.loc 1 67 10 view .LVU58
 272 002a 14F0010F 		tst	r4, #1
 273 002e F5D1     		bne	.L19
 274 0030 03E0     		b	.L20
 275              	.L21:
  70:IMU/bsp_spi.c ****     }
  71:IMU/bsp_spi.c ****     while(hdma_spi1_tx.Instance->CR & DMA_SxCR_EN)
  72:IMU/bsp_spi.c ****     {
  73:IMU/bsp_spi.c ****         __HAL_DMA_DISABLE(&hdma_spi1_tx);
 276              		.loc 1 73 9 is_stmt 1 view .LVU59
 277 0032 1C68     		ldr	r4, [r3]
 278 0034 24F00104 		bic	r4, r4, #1
 279 0038 1C60     		str	r4, [r3]
 280              	.L20:
  71:IMU/bsp_spi.c ****     {
 281              		.loc 1 71 10 view .LVU60
  71:IMU/bsp_spi.c ****     {
 282              		.loc 1 71 23 is_stmt 0 view .LVU61
 283 003a A04B     		ldr	r3, .L623+4
 284 003c 1B68     		ldr	r3, [r3]
  71:IMU/bsp_spi.c ****     {
 285              		.loc 1 71 32 view .LVU62
 286 003e 1C68     		ldr	r4, [r3]
  71:IMU/bsp_spi.c ****     {
 287              		.loc 1 71 10 view .LVU63
 288 0040 14F0010F 		tst	r4, #1
 289 0044 F5D1     		bne	.L21
  74:IMU/bsp_spi.c ****     }
  75:IMU/bsp_spi.c ****     //clear flag
  76:IMU/bsp_spi.c ****     //清除标志位
  77:IMU/bsp_spi.c ****     __HAL_DMA_CLEAR_FLAG (hspi1.hdmarx, __HAL_DMA_GET_TC_FLAG_INDEX(hspi1.hdmarx));
 290              		.loc 1 77 5 is_stmt 1 view .LVU64
 291 0046 9E4C     		ldr	r4, .L623+8
 292 0048 E46C     		ldr	r4, [r4, #76]
 293 004a 2468     		ldr	r4, [r4]
 294 004c 9D4D     		ldr	r5, .L623+12
 295 004e AC42     		cmp	r4, r5
 296 0050 40F29A80 		bls	.L22
 297              		.loc 1 77 5 is_stmt 0 discriminator 1 view .LVU65
 298 0054 A5F58965 		sub	r5, r5, #1096
 299 0058 AC42     		cmp	r4, r5
ARM GAS  C:\Users\xixi\AppData\Local\Temp\ccW01pdv.s 			page 8


 300 005a 31D0     		beq	.L102
 301              		.loc 1 77 5 discriminator 3 view .LVU66
 302 005c 05F58065 		add	r5, r5, #1024
 303 0060 AC42     		cmp	r4, r5
 304 0062 76D0     		beq	.L103
 305              		.loc 1 77 5 discriminator 5 view .LVU67
 306 0064 A5F56875 		sub	r5, r5, #928
 307 0068 AC42     		cmp	r4, r5
 308 006a 74D0     		beq	.L104
 309              		.loc 1 77 5 discriminator 7 view .LVU68
 310 006c 05F58065 		add	r5, r5, #1024
 311 0070 AC42     		cmp	r4, r5
 312 0072 72D0     		beq	.L105
 313              		.loc 1 77 5 discriminator 9 view .LVU69
 314 0074 A5F58965 		sub	r5, r5, #1096
 315 0078 AC42     		cmp	r4, r5
 316 007a 70D0     		beq	.L106
 317              		.loc 1 77 5 discriminator 11 view .LVU70
 318 007c 05F58065 		add	r5, r5, #1024
 319 0080 AC42     		cmp	r4, r5
 320 0082 6FD0     		beq	.L107
 321              		.loc 1 77 5 discriminator 13 view .LVU71
 322 0084 A5F56875 		sub	r5, r5, #928
 323 0088 AC42     		cmp	r4, r5
 324 008a 6ED0     		beq	.L108
 325              		.loc 1 77 5 discriminator 15 view .LVU72
 326 008c 05F58065 		add	r5, r5, #1024
 327 0090 AC42     		cmp	r4, r5
 328 0092 6DD0     		beq	.L109
 329              		.loc 1 77 5 discriminator 17 view .LVU73
 330 0094 A5F58965 		sub	r5, r5, #1096
 331 0098 AC42     		cmp	r4, r5
 332 009a 6CD0     		beq	.L110
 333              		.loc 1 77 5 discriminator 19 view .LVU74
 334 009c 05F58065 		add	r5, r5, #1024
 335 00a0 AC42     		cmp	r4, r5
 336 00a2 6BD0     		beq	.L111
 337              		.loc 1 77 5 discriminator 21 view .LVU75
 338 00a4 A5F56875 		sub	r5, r5, #928
 339 00a8 AC42     		cmp	r4, r5
 340 00aa 6AD0     		beq	.L112
 341              		.loc 1 77 5 discriminator 23 view .LVU76
 342 00ac 05F58065 		add	r5, r5, #1024
 343 00b0 AC42     		cmp	r4, r5
 344 00b2 02D0     		beq	.L583
 345              		.loc 1 77 5 view .LVU77
 346 00b4 4FF00065 		mov	r5, #134217728
 347 00b8 03E0     		b	.L23
 348              	.L583:
 349 00ba 4FF40015 		mov	r5, #2097152
 350 00be 00E0     		b	.L23
 351              	.L102:
 352 00c0 2025     		movs	r5, #32
 353              	.L23:
 354              		.loc 1 77 5 discriminator 50 view .LVU78
 355 00c2 814C     		ldr	r4, .L623+16
 356 00c4 E560     		str	r5, [r4, #12]
ARM GAS  C:\Users\xixi\AppData\Local\Temp\ccW01pdv.s 			page 9


 357              	.L24:
  78:IMU/bsp_spi.c ****     __HAL_DMA_CLEAR_FLAG (hspi1.hdmarx, __HAL_DMA_GET_HT_FLAG_INDEX(hspi1.hdmarx));
 358              		.loc 1 78 5 is_stmt 1 view .LVU79
 359 00c6 7E4C     		ldr	r4, .L623+8
 360 00c8 E46C     		ldr	r4, [r4, #76]
 361 00ca 2468     		ldr	r4, [r4]
 362 00cc 7D4D     		ldr	r5, .L623+12
 363 00ce AC42     		cmp	r4, r5
 364 00d0 40F2D481 		bls	.L30
 365              		.loc 1 78 5 is_stmt 0 discriminator 1 view .LVU80
 366 00d4 A5F58965 		sub	r5, r5, #1096
 367 00d8 AC42     		cmp	r4, r5
 368 00da 00F06B81 		beq	.L150
 369              		.loc 1 78 5 discriminator 3 view .LVU81
 370 00de 05F58065 		add	r5, r5, #1024
 371 00e2 AC42     		cmp	r4, r5
 372 00e4 00F0AF81 		beq	.L151
 373              		.loc 1 78 5 discriminator 5 view .LVU82
 374 00e8 A5F56875 		sub	r5, r5, #928
 375 00ec AC42     		cmp	r4, r5
 376 00ee 00F0AC81 		beq	.L152
 377              		.loc 1 78 5 discriminator 7 view .LVU83
 378 00f2 05F58065 		add	r5, r5, #1024
 379 00f6 AC42     		cmp	r4, r5
 380 00f8 00F0A981 		beq	.L153
 381              		.loc 1 78 5 discriminator 9 view .LVU84
 382 00fc A5F58965 		sub	r5, r5, #1096
 383 0100 AC42     		cmp	r4, r5
 384 0102 00F0A681 		beq	.L154
 385              		.loc 1 78 5 discriminator 11 view .LVU85
 386 0106 05F58065 		add	r5, r5, #1024
 387 010a AC42     		cmp	r4, r5
 388 010c 00F0A481 		beq	.L155
 389              		.loc 1 78 5 discriminator 13 view .LVU86
 390 0110 A5F56875 		sub	r5, r5, #928
 391 0114 AC42     		cmp	r4, r5
 392 0116 00F0A281 		beq	.L156
 393              		.loc 1 78 5 discriminator 15 view .LVU87
 394 011a 05F58065 		add	r5, r5, #1024
 395 011e AC42     		cmp	r4, r5
 396 0120 00F0A081 		beq	.L157
 397              		.loc 1 78 5 discriminator 17 view .LVU88
 398 0124 A5F58965 		sub	r5, r5, #1096
 399 0128 AC42     		cmp	r4, r5
 400 012a 00F09E81 		beq	.L158
 401              		.loc 1 78 5 discriminator 19 view .LVU89
 402 012e 05F58065 		add	r5, r5, #1024
 403 0132 AC42     		cmp	r4, r5
 404 0134 00F09C81 		beq	.L159
 405              		.loc 1 78 5 discriminator 21 view .LVU90
 406 0138 A5F56875 		sub	r5, r5, #928
 407 013c AC42     		cmp	r4, r5
 408 013e 00F09A81 		beq	.L160
 409              		.loc 1 78 5 discriminator 23 view .LVU91
 410 0142 05F58065 		add	r5, r5, #1024
 411 0146 AC42     		cmp	r4, r5
 412 0148 00F03181 		beq	.L584
ARM GAS  C:\Users\xixi\AppData\Local\Temp\ccW01pdv.s 			page 10


 413              		.loc 1 78 5 view .LVU92
 414 014c 4FF08065 		mov	r5, #67108864
 415 0150 31E1     		b	.L31
 416              	.L103:
  77:IMU/bsp_spi.c ****     __HAL_DMA_CLEAR_FLAG (hspi1.hdmarx, __HAL_DMA_GET_HT_FLAG_INDEX(hspi1.hdmarx));
 417              		.loc 1 77 5 view .LVU93
 418 0152 2025     		movs	r5, #32
 419 0154 B5E7     		b	.L23
 420              	.L104:
 421 0156 2025     		movs	r5, #32
 422 0158 B3E7     		b	.L23
 423              	.L105:
 424 015a 2025     		movs	r5, #32
 425 015c B1E7     		b	.L23
 426              	.L106:
 427 015e 4FF40065 		mov	r5, #2048
 428 0162 AEE7     		b	.L23
 429              	.L107:
 430 0164 4FF40065 		mov	r5, #2048
 431 0168 ABE7     		b	.L23
 432              	.L108:
 433 016a 4FF40065 		mov	r5, #2048
 434 016e A8E7     		b	.L23
 435              	.L109:
 436 0170 4FF40065 		mov	r5, #2048
 437 0174 A5E7     		b	.L23
 438              	.L110:
 439 0176 4FF40015 		mov	r5, #2097152
 440 017a A2E7     		b	.L23
 441              	.L111:
 442 017c 4FF40015 		mov	r5, #2097152
 443 0180 9FE7     		b	.L23
 444              	.L112:
 445 0182 4FF40015 		mov	r5, #2097152
 446 0186 9CE7     		b	.L23
 447              	.L22:
  77:IMU/bsp_spi.c ****     __HAL_DMA_CLEAR_FLAG (hspi1.hdmarx, __HAL_DMA_GET_HT_FLAG_INDEX(hspi1.hdmarx));
 448              		.loc 1 77 5 discriminator 2 view .LVU94
 449 0188 504D     		ldr	r5, .L623+20
 450 018a AC42     		cmp	r4, r5
 451 018c 53D9     		bls	.L25
  77:IMU/bsp_spi.c ****     __HAL_DMA_CLEAR_FLAG (hspi1.hdmarx, __HAL_DMA_GET_HT_FLAG_INDEX(hspi1.hdmarx));
 452              		.loc 1 77 5 discriminator 51 view .LVU95
 453 018e A83D     		subs	r5, r5, #168
 454 0190 AC42     		cmp	r4, r5
 455 0192 31D0     		beq	.L114
  77:IMU/bsp_spi.c ****     __HAL_DMA_CLEAR_FLAG (hspi1.hdmarx, __HAL_DMA_GET_HT_FLAG_INDEX(hspi1.hdmarx));
 456              		.loc 1 77 5 discriminator 53 view .LVU96
 457 0194 05F58065 		add	r5, r5, #1024
 458 0198 AC42     		cmp	r4, r5
 459 019a 31D0     		beq	.L115
  77:IMU/bsp_spi.c ****     __HAL_DMA_CLEAR_FLAG (hspi1.hdmarx, __HAL_DMA_GET_HT_FLAG_INDEX(hspi1.hdmarx));
 460              		.loc 1 77 5 discriminator 55 view .LVU97
 461 019c A5F56875 		sub	r5, r5, #928
 462 01a0 AC42     		cmp	r4, r5
 463 01a2 2FD0     		beq	.L116
  77:IMU/bsp_spi.c ****     __HAL_DMA_CLEAR_FLAG (hspi1.hdmarx, __HAL_DMA_GET_HT_FLAG_INDEX(hspi1.hdmarx));
ARM GAS  C:\Users\xixi\AppData\Local\Temp\ccW01pdv.s 			page 11


 464              		.loc 1 77 5 discriminator 57 view .LVU98
 465 01a4 05F58065 		add	r5, r5, #1024
 466 01a8 AC42     		cmp	r4, r5
 467 01aa 2DD0     		beq	.L117
  77:IMU/bsp_spi.c ****     __HAL_DMA_CLEAR_FLAG (hspi1.hdmarx, __HAL_DMA_GET_HT_FLAG_INDEX(hspi1.hdmarx));
 468              		.loc 1 77 5 discriminator 59 view .LVU99
 469 01ac A5F58965 		sub	r5, r5, #1096
 470 01b0 AC42     		cmp	r4, r5
 471 01b2 2BD0     		beq	.L118
  77:IMU/bsp_spi.c ****     __HAL_DMA_CLEAR_FLAG (hspi1.hdmarx, __HAL_DMA_GET_HT_FLAG_INDEX(hspi1.hdmarx));
 472              		.loc 1 77 5 discriminator 61 view .LVU100
 473 01b4 05F58065 		add	r5, r5, #1024
 474 01b8 AC42     		cmp	r4, r5
 475 01ba 2AD0     		beq	.L119
  77:IMU/bsp_spi.c ****     __HAL_DMA_CLEAR_FLAG (hspi1.hdmarx, __HAL_DMA_GET_HT_FLAG_INDEX(hspi1.hdmarx));
 476              		.loc 1 77 5 discriminator 63 view .LVU101
 477 01bc A5F56875 		sub	r5, r5, #928
 478 01c0 AC42     		cmp	r4, r5
 479 01c2 29D0     		beq	.L120
  77:IMU/bsp_spi.c ****     __HAL_DMA_CLEAR_FLAG (hspi1.hdmarx, __HAL_DMA_GET_HT_FLAG_INDEX(hspi1.hdmarx));
 480              		.loc 1 77 5 discriminator 65 view .LVU102
 481 01c4 05F58065 		add	r5, r5, #1024
 482 01c8 AC42     		cmp	r4, r5
 483 01ca 28D0     		beq	.L121
  77:IMU/bsp_spi.c ****     __HAL_DMA_CLEAR_FLAG (hspi1.hdmarx, __HAL_DMA_GET_HT_FLAG_INDEX(hspi1.hdmarx));
 484              		.loc 1 77 5 discriminator 67 view .LVU103
 485 01cc A5F58965 		sub	r5, r5, #1096
 486 01d0 AC42     		cmp	r4, r5
 487 01d2 27D0     		beq	.L122
  77:IMU/bsp_spi.c ****     __HAL_DMA_CLEAR_FLAG (hspi1.hdmarx, __HAL_DMA_GET_HT_FLAG_INDEX(hspi1.hdmarx));
 488              		.loc 1 77 5 discriminator 69 view .LVU104
 489 01d4 05F58065 		add	r5, r5, #1024
 490 01d8 AC42     		cmp	r4, r5
 491 01da 26D0     		beq	.L123
  77:IMU/bsp_spi.c ****     __HAL_DMA_CLEAR_FLAG (hspi1.hdmarx, __HAL_DMA_GET_HT_FLAG_INDEX(hspi1.hdmarx));
 492              		.loc 1 77 5 discriminator 71 view .LVU105
 493 01dc A5F56875 		sub	r5, r5, #928
 494 01e0 AC42     		cmp	r4, r5
 495 01e2 25D0     		beq	.L124
  77:IMU/bsp_spi.c ****     __HAL_DMA_CLEAR_FLAG (hspi1.hdmarx, __HAL_DMA_GET_HT_FLAG_INDEX(hspi1.hdmarx));
 496              		.loc 1 77 5 discriminator 73 view .LVU106
 497 01e4 05F58065 		add	r5, r5, #1024
 498 01e8 AC42     		cmp	r4, r5
 499 01ea 02D0     		beq	.L585
  77:IMU/bsp_spi.c ****     __HAL_DMA_CLEAR_FLAG (hspi1.hdmarx, __HAL_DMA_GET_HT_FLAG_INDEX(hspi1.hdmarx));
 500              		.loc 1 77 5 view .LVU107
 501 01ec 4FF00064 		mov	r4, #134217728
 502 01f0 03E0     		b	.L26
 503              	.L585:
 504 01f2 4FF40014 		mov	r4, #2097152
 505 01f6 00E0     		b	.L26
 506              	.L114:
 507 01f8 2024     		movs	r4, #32
 508              	.L26:
  77:IMU/bsp_spi.c ****     __HAL_DMA_CLEAR_FLAG (hspi1.hdmarx, __HAL_DMA_GET_HT_FLAG_INDEX(hspi1.hdmarx));
 509              		.loc 1 77 5 discriminator 100 view .LVU108
 510 01fa 334D     		ldr	r5, .L623+16
ARM GAS  C:\Users\xixi\AppData\Local\Temp\ccW01pdv.s 			page 12


 511 01fc AC60     		str	r4, [r5, #8]
 512 01fe 62E7     		b	.L24
 513              	.L115:
  77:IMU/bsp_spi.c ****     __HAL_DMA_CLEAR_FLAG (hspi1.hdmarx, __HAL_DMA_GET_HT_FLAG_INDEX(hspi1.hdmarx));
 514              		.loc 1 77 5 view .LVU109
 515 0200 2024     		movs	r4, #32
 516 0202 FAE7     		b	.L26
 517              	.L116:
 518 0204 2024     		movs	r4, #32
 519 0206 F8E7     		b	.L26
 520              	.L117:
 521 0208 2024     		movs	r4, #32
 522 020a F6E7     		b	.L26
 523              	.L118:
 524 020c 4FF40064 		mov	r4, #2048
 525 0210 F3E7     		b	.L26
 526              	.L119:
 527 0212 4FF40064 		mov	r4, #2048
 528 0216 F0E7     		b	.L26
 529              	.L120:
 530 0218 4FF40064 		mov	r4, #2048
 531 021c EDE7     		b	.L26
 532              	.L121:
 533 021e 4FF40064 		mov	r4, #2048
 534 0222 EAE7     		b	.L26
 535              	.L122:
 536 0224 4FF40014 		mov	r4, #2097152
 537 0228 E7E7     		b	.L26
 538              	.L123:
 539 022a 4FF40014 		mov	r4, #2097152
 540 022e E4E7     		b	.L26
 541              	.L124:
 542 0230 4FF40014 		mov	r4, #2097152
 543 0234 E1E7     		b	.L26
 544              	.L25:
  77:IMU/bsp_spi.c ****     __HAL_DMA_CLEAR_FLAG (hspi1.hdmarx, __HAL_DMA_GET_HT_FLAG_INDEX(hspi1.hdmarx));
 545              		.loc 1 77 5 discriminator 52 view .LVU110
 546 0236 264D     		ldr	r5, .L623+24
 547 0238 AC42     		cmp	r4, r5
 548 023a 64D9     		bls	.L27
  77:IMU/bsp_spi.c ****     __HAL_DMA_CLEAR_FLAG (hspi1.hdmarx, __HAL_DMA_GET_HT_FLAG_INDEX(hspi1.hdmarx));
 549              		.loc 1 77 5 discriminator 102 view .LVU111
 550 023c 483D     		subs	r5, r5, #72
 551 023e AC42     		cmp	r4, r5
 552 0240 31D0     		beq	.L126
  77:IMU/bsp_spi.c ****     __HAL_DMA_CLEAR_FLAG (hspi1.hdmarx, __HAL_DMA_GET_HT_FLAG_INDEX(hspi1.hdmarx));
 553              		.loc 1 77 5 discriminator 104 view .LVU112
 554 0242 05F58065 		add	r5, r5, #1024
 555 0246 AC42     		cmp	r4, r5
 556 0248 31D0     		beq	.L127
  77:IMU/bsp_spi.c ****     __HAL_DMA_CLEAR_FLAG (hspi1.hdmarx, __HAL_DMA_GET_HT_FLAG_INDEX(hspi1.hdmarx));
 557              		.loc 1 77 5 discriminator 106 view .LVU113
 558 024a A5F56875 		sub	r5, r5, #928
 559 024e AC42     		cmp	r4, r5
 560 0250 2FD0     		beq	.L128
  77:IMU/bsp_spi.c ****     __HAL_DMA_CLEAR_FLAG (hspi1.hdmarx, __HAL_DMA_GET_HT_FLAG_INDEX(hspi1.hdmarx));
 561              		.loc 1 77 5 discriminator 108 view .LVU114
ARM GAS  C:\Users\xixi\AppData\Local\Temp\ccW01pdv.s 			page 13


 562 0252 05F58065 		add	r5, r5, #1024
 563 0256 AC42     		cmp	r4, r5
 564 0258 3ED0     		beq	.L129
  77:IMU/bsp_spi.c ****     __HAL_DMA_CLEAR_FLAG (hspi1.hdmarx, __HAL_DMA_GET_HT_FLAG_INDEX(hspi1.hdmarx));
 565              		.loc 1 77 5 discriminator 110 view .LVU115
 566 025a A5F58965 		sub	r5, r5, #1096
 567 025e AC42     		cmp	r4, r5
 568 0260 3CD0     		beq	.L130
  77:IMU/bsp_spi.c ****     __HAL_DMA_CLEAR_FLAG (hspi1.hdmarx, __HAL_DMA_GET_HT_FLAG_INDEX(hspi1.hdmarx));
 569              		.loc 1 77 5 discriminator 112 view .LVU116
 570 0262 05F58065 		add	r5, r5, #1024
 571 0266 AC42     		cmp	r4, r5
 572 0268 3BD0     		beq	.L131
  77:IMU/bsp_spi.c ****     __HAL_DMA_CLEAR_FLAG (hspi1.hdmarx, __HAL_DMA_GET_HT_FLAG_INDEX(hspi1.hdmarx));
 573              		.loc 1 77 5 discriminator 114 view .LVU117
 574 026a A5F56875 		sub	r5, r5, #928
 575 026e AC42     		cmp	r4, r5
 576 0270 3AD0     		beq	.L132
  77:IMU/bsp_spi.c ****     __HAL_DMA_CLEAR_FLAG (hspi1.hdmarx, __HAL_DMA_GET_HT_FLAG_INDEX(hspi1.hdmarx));
 577              		.loc 1 77 5 discriminator 116 view .LVU118
 578 0272 05F58065 		add	r5, r5, #1024
 579 0276 AC42     		cmp	r4, r5
 580 0278 39D0     		beq	.L133
  77:IMU/bsp_spi.c ****     __HAL_DMA_CLEAR_FLAG (hspi1.hdmarx, __HAL_DMA_GET_HT_FLAG_INDEX(hspi1.hdmarx));
 581              		.loc 1 77 5 discriminator 118 view .LVU119
 582 027a A5F58965 		sub	r5, r5, #1096
 583 027e AC42     		cmp	r4, r5
 584 0280 38D0     		beq	.L134
  77:IMU/bsp_spi.c ****     __HAL_DMA_CLEAR_FLAG (hspi1.hdmarx, __HAL_DMA_GET_HT_FLAG_INDEX(hspi1.hdmarx));
 585              		.loc 1 77 5 discriminator 120 view .LVU120
 586 0282 05F58065 		add	r5, r5, #1024
 587 0286 AC42     		cmp	r4, r5
 588 0288 37D0     		beq	.L135
  77:IMU/bsp_spi.c ****     __HAL_DMA_CLEAR_FLAG (hspi1.hdmarx, __HAL_DMA_GET_HT_FLAG_INDEX(hspi1.hdmarx));
 589              		.loc 1 77 5 discriminator 122 view .LVU121
 590 028a A5F56875 		sub	r5, r5, #928
 591 028e AC42     		cmp	r4, r5
 592 0290 36D0     		beq	.L136
  77:IMU/bsp_spi.c ****     __HAL_DMA_CLEAR_FLAG (hspi1.hdmarx, __HAL_DMA_GET_HT_FLAG_INDEX(hspi1.hdmarx));
 593              		.loc 1 77 5 discriminator 124 view .LVU122
 594 0292 05F58065 		add	r5, r5, #1024
 595 0296 AC42     		cmp	r4, r5
 596 0298 02D0     		beq	.L586
  77:IMU/bsp_spi.c ****     __HAL_DMA_CLEAR_FLAG (hspi1.hdmarx, __HAL_DMA_GET_HT_FLAG_INDEX(hspi1.hdmarx));
 597              		.loc 1 77 5 view .LVU123
 598 029a 4FF00064 		mov	r4, #134217728
 599 029e 03E0     		b	.L28
 600              	.L586:
 601 02a0 4FF40014 		mov	r4, #2097152
 602 02a4 00E0     		b	.L28
 603              	.L126:
 604 02a6 2024     		movs	r4, #32
 605              	.L28:
  77:IMU/bsp_spi.c ****     __HAL_DMA_CLEAR_FLAG (hspi1.hdmarx, __HAL_DMA_GET_HT_FLAG_INDEX(hspi1.hdmarx));
 606              		.loc 1 77 5 discriminator 151 view .LVU124
 607 02a8 0A4D     		ldr	r5, .L623+28
 608 02aa EC60     		str	r4, [r5, #12]
ARM GAS  C:\Users\xixi\AppData\Local\Temp\ccW01pdv.s 			page 14


 609 02ac 0BE7     		b	.L24
 610              	.L127:
  77:IMU/bsp_spi.c ****     __HAL_DMA_CLEAR_FLAG (hspi1.hdmarx, __HAL_DMA_GET_HT_FLAG_INDEX(hspi1.hdmarx));
 611              		.loc 1 77 5 view .LVU125
 612 02ae 2024     		movs	r4, #32
 613 02b0 FAE7     		b	.L28
 614              	.L128:
 615 02b2 2024     		movs	r4, #32
 616 02b4 F8E7     		b	.L28
 617              	.L624:
 618 02b6 00BF     		.align	2
 619              	.L623:
 620 02b8 00000000 		.word	hdma_spi1_rx
 621 02bc 00000000 		.word	hdma_spi1_tx
 622 02c0 00000000 		.word	hspi1
 623 02c4 58640240 		.word	1073898584
 624 02c8 00640240 		.word	1073898496
 625 02cc B8600240 		.word	1073897656
 626 02d0 58600240 		.word	1073897560
 627 02d4 00600240 		.word	1073897472
 628              	.L129:
 629 02d8 2024     		movs	r4, #32
 630 02da E5E7     		b	.L28
 631              	.L130:
 632 02dc 4FF40064 		mov	r4, #2048
 633 02e0 E2E7     		b	.L28
 634              	.L131:
 635 02e2 4FF40064 		mov	r4, #2048
 636 02e6 DFE7     		b	.L28
 637              	.L132:
 638 02e8 4FF40064 		mov	r4, #2048
 639 02ec DCE7     		b	.L28
 640              	.L133:
 641 02ee 4FF40064 		mov	r4, #2048
 642 02f2 D9E7     		b	.L28
 643              	.L134:
 644 02f4 4FF40014 		mov	r4, #2097152
 645 02f8 D6E7     		b	.L28
 646              	.L135:
 647 02fa 4FF40014 		mov	r4, #2097152
 648 02fe D3E7     		b	.L28
 649              	.L136:
 650 0300 4FF40014 		mov	r4, #2097152
 651 0304 D0E7     		b	.L28
 652              	.L27:
  77:IMU/bsp_spi.c ****     __HAL_DMA_CLEAR_FLAG (hspi1.hdmarx, __HAL_DMA_GET_HT_FLAG_INDEX(hspi1.hdmarx));
 653              		.loc 1 77 5 discriminator 103 view .LVU126
 654 0306 B14D     		ldr	r5, .L625
 655 0308 AC42     		cmp	r4, r5
 656 030a 31D0     		beq	.L138
  77:IMU/bsp_spi.c ****     __HAL_DMA_CLEAR_FLAG (hspi1.hdmarx, __HAL_DMA_GET_HT_FLAG_INDEX(hspi1.hdmarx));
 657              		.loc 1 77 5 discriminator 153 view .LVU127
 658 030c 05F58065 		add	r5, r5, #1024
 659 0310 AC42     		cmp	r4, r5
 660 0312 31D0     		beq	.L139
  77:IMU/bsp_spi.c ****     __HAL_DMA_CLEAR_FLAG (hspi1.hdmarx, __HAL_DMA_GET_HT_FLAG_INDEX(hspi1.hdmarx));
 661              		.loc 1 77 5 discriminator 155 view .LVU128
ARM GAS  C:\Users\xixi\AppData\Local\Temp\ccW01pdv.s 			page 15


 662 0314 A5F56875 		sub	r5, r5, #928
 663 0318 AC42     		cmp	r4, r5
 664 031a 2FD0     		beq	.L140
  77:IMU/bsp_spi.c ****     __HAL_DMA_CLEAR_FLAG (hspi1.hdmarx, __HAL_DMA_GET_HT_FLAG_INDEX(hspi1.hdmarx));
 665              		.loc 1 77 5 discriminator 157 view .LVU129
 666 031c 05F58065 		add	r5, r5, #1024
 667 0320 AC42     		cmp	r4, r5
 668 0322 2DD0     		beq	.L141
  77:IMU/bsp_spi.c ****     __HAL_DMA_CLEAR_FLAG (hspi1.hdmarx, __HAL_DMA_GET_HT_FLAG_INDEX(hspi1.hdmarx));
 669              		.loc 1 77 5 discriminator 159 view .LVU130
 670 0324 A5F58965 		sub	r5, r5, #1096
 671 0328 AC42     		cmp	r4, r5
 672 032a 2BD0     		beq	.L142
  77:IMU/bsp_spi.c ****     __HAL_DMA_CLEAR_FLAG (hspi1.hdmarx, __HAL_DMA_GET_HT_FLAG_INDEX(hspi1.hdmarx));
 673              		.loc 1 77 5 discriminator 161 view .LVU131
 674 032c 05F58065 		add	r5, r5, #1024
 675 0330 AC42     		cmp	r4, r5
 676 0332 2AD0     		beq	.L143
  77:IMU/bsp_spi.c ****     __HAL_DMA_CLEAR_FLAG (hspi1.hdmarx, __HAL_DMA_GET_HT_FLAG_INDEX(hspi1.hdmarx));
 677              		.loc 1 77 5 discriminator 163 view .LVU132
 678 0334 A5F56875 		sub	r5, r5, #928
 679 0338 AC42     		cmp	r4, r5
 680 033a 29D0     		beq	.L144
  77:IMU/bsp_spi.c ****     __HAL_DMA_CLEAR_FLAG (hspi1.hdmarx, __HAL_DMA_GET_HT_FLAG_INDEX(hspi1.hdmarx));
 681              		.loc 1 77 5 discriminator 165 view .LVU133
 682 033c 05F58065 		add	r5, r5, #1024
 683 0340 AC42     		cmp	r4, r5
 684 0342 28D0     		beq	.L145
  77:IMU/bsp_spi.c ****     __HAL_DMA_CLEAR_FLAG (hspi1.hdmarx, __HAL_DMA_GET_HT_FLAG_INDEX(hspi1.hdmarx));
 685              		.loc 1 77 5 discriminator 167 view .LVU134
 686 0344 A5F58965 		sub	r5, r5, #1096
 687 0348 AC42     		cmp	r4, r5
 688 034a 27D0     		beq	.L146
  77:IMU/bsp_spi.c ****     __HAL_DMA_CLEAR_FLAG (hspi1.hdmarx, __HAL_DMA_GET_HT_FLAG_INDEX(hspi1.hdmarx));
 689              		.loc 1 77 5 discriminator 169 view .LVU135
 690 034c 05F58065 		add	r5, r5, #1024
 691 0350 AC42     		cmp	r4, r5
 692 0352 26D0     		beq	.L147
  77:IMU/bsp_spi.c ****     __HAL_DMA_CLEAR_FLAG (hspi1.hdmarx, __HAL_DMA_GET_HT_FLAG_INDEX(hspi1.hdmarx));
 693              		.loc 1 77 5 discriminator 171 view .LVU136
 694 0354 A5F56875 		sub	r5, r5, #928
 695 0358 AC42     		cmp	r4, r5
 696 035a 25D0     		beq	.L148
  77:IMU/bsp_spi.c ****     __HAL_DMA_CLEAR_FLAG (hspi1.hdmarx, __HAL_DMA_GET_HT_FLAG_INDEX(hspi1.hdmarx));
 697              		.loc 1 77 5 discriminator 173 view .LVU137
 698 035c 05F58065 		add	r5, r5, #1024
 699 0360 AC42     		cmp	r4, r5
 700 0362 02D0     		beq	.L587
  77:IMU/bsp_spi.c ****     __HAL_DMA_CLEAR_FLAG (hspi1.hdmarx, __HAL_DMA_GET_HT_FLAG_INDEX(hspi1.hdmarx));
 701              		.loc 1 77 5 view .LVU138
 702 0364 4FF00064 		mov	r4, #134217728
 703 0368 03E0     		b	.L29
 704              	.L587:
 705 036a 4FF40014 		mov	r4, #2097152
 706 036e 00E0     		b	.L29
 707              	.L138:
 708 0370 2024     		movs	r4, #32
ARM GAS  C:\Users\xixi\AppData\Local\Temp\ccW01pdv.s 			page 16


 709              	.L29:
  77:IMU/bsp_spi.c ****     __HAL_DMA_CLEAR_FLAG (hspi1.hdmarx, __HAL_DMA_GET_HT_FLAG_INDEX(hspi1.hdmarx));
 710              		.loc 1 77 5 discriminator 200 view .LVU139
 711 0372 974D     		ldr	r5, .L625+4
 712 0374 AC60     		str	r4, [r5, #8]
 713 0376 A6E6     		b	.L24
 714              	.L139:
  77:IMU/bsp_spi.c ****     __HAL_DMA_CLEAR_FLAG (hspi1.hdmarx, __HAL_DMA_GET_HT_FLAG_INDEX(hspi1.hdmarx));
 715              		.loc 1 77 5 view .LVU140
 716 0378 2024     		movs	r4, #32
 717 037a FAE7     		b	.L29
 718              	.L140:
 719 037c 2024     		movs	r4, #32
 720 037e F8E7     		b	.L29
 721              	.L141:
 722 0380 2024     		movs	r4, #32
 723 0382 F6E7     		b	.L29
 724              	.L142:
 725 0384 4FF40064 		mov	r4, #2048
 726 0388 F3E7     		b	.L29
 727              	.L143:
 728 038a 4FF40064 		mov	r4, #2048
 729 038e F0E7     		b	.L29
 730              	.L144:
 731 0390 4FF40064 		mov	r4, #2048
 732 0394 EDE7     		b	.L29
 733              	.L145:
 734 0396 4FF40064 		mov	r4, #2048
 735 039a EAE7     		b	.L29
 736              	.L146:
 737 039c 4FF40014 		mov	r4, #2097152
 738 03a0 E7E7     		b	.L29
 739              	.L147:
 740 03a2 4FF40014 		mov	r4, #2097152
 741 03a6 E4E7     		b	.L29
 742              	.L148:
 743 03a8 4FF40014 		mov	r4, #2097152
 744 03ac E1E7     		b	.L29
 745              	.L584:
 746              		.loc 1 78 5 view .LVU141
 747 03ae 4FF48015 		mov	r5, #1048576
 748 03b2 00E0     		b	.L31
 749              	.L150:
 750 03b4 1025     		movs	r5, #16
 751              	.L31:
 752              		.loc 1 78 5 discriminator 50 view .LVU142
 753 03b6 874C     		ldr	r4, .L625+8
 754 03b8 E560     		str	r5, [r4, #12]
 755              	.L32:
  79:IMU/bsp_spi.c ****     __HAL_DMA_CLEAR_FLAG (hspi1.hdmarx, __HAL_DMA_GET_TE_FLAG_INDEX(hspi1.hdmarx));
 756              		.loc 1 79 5 is_stmt 1 view .LVU143
 757 03ba 874C     		ldr	r4, .L625+12
 758 03bc E46C     		ldr	r4, [r4, #76]
 759 03be 2468     		ldr	r4, [r4]
 760 03c0 864D     		ldr	r5, .L625+16
 761 03c2 AC42     		cmp	r4, r5
 762 03c4 40F2D181 		bls	.L38
ARM GAS  C:\Users\xixi\AppData\Local\Temp\ccW01pdv.s 			page 17


 763              		.loc 1 79 5 is_stmt 0 discriminator 1 view .LVU144
 764 03c8 A5F58965 		sub	r5, r5, #1096
 765 03cc AC42     		cmp	r4, r5
 766 03ce 00F06881 		beq	.L198
 767              		.loc 1 79 5 discriminator 3 view .LVU145
 768 03d2 05F58065 		add	r5, r5, #1024
 769 03d6 AC42     		cmp	r4, r5
 770 03d8 00F0AC81 		beq	.L199
 771              		.loc 1 79 5 discriminator 5 view .LVU146
 772 03dc A5F56875 		sub	r5, r5, #928
 773 03e0 AC42     		cmp	r4, r5
 774 03e2 00F0A981 		beq	.L200
 775              		.loc 1 79 5 discriminator 7 view .LVU147
 776 03e6 05F58065 		add	r5, r5, #1024
 777 03ea AC42     		cmp	r4, r5
 778 03ec 00F0A681 		beq	.L201
 779              		.loc 1 79 5 discriminator 9 view .LVU148
 780 03f0 A5F58965 		sub	r5, r5, #1096
 781 03f4 AC42     		cmp	r4, r5
 782 03f6 00F0A381 		beq	.L202
 783              		.loc 1 79 5 discriminator 11 view .LVU149
 784 03fa 05F58065 		add	r5, r5, #1024
 785 03fe AC42     		cmp	r4, r5
 786 0400 00F0A181 		beq	.L203
 787              		.loc 1 79 5 discriminator 13 view .LVU150
 788 0404 A5F56875 		sub	r5, r5, #928
 789 0408 AC42     		cmp	r4, r5
 790 040a 00F09F81 		beq	.L204
 791              		.loc 1 79 5 discriminator 15 view .LVU151
 792 040e 05F58065 		add	r5, r5, #1024
 793 0412 AC42     		cmp	r4, r5
 794 0414 00F09D81 		beq	.L205
 795              		.loc 1 79 5 discriminator 17 view .LVU152
 796 0418 A5F58965 		sub	r5, r5, #1096
 797 041c AC42     		cmp	r4, r5
 798 041e 00F09B81 		beq	.L206
 799              		.loc 1 79 5 discriminator 19 view .LVU153
 800 0422 05F58065 		add	r5, r5, #1024
 801 0426 AC42     		cmp	r4, r5
 802 0428 00F09981 		beq	.L207
 803              		.loc 1 79 5 discriminator 21 view .LVU154
 804 042c A5F56875 		sub	r5, r5, #928
 805 0430 AC42     		cmp	r4, r5
 806 0432 00F09781 		beq	.L208
 807              		.loc 1 79 5 discriminator 23 view .LVU155
 808 0436 05F58065 		add	r5, r5, #1024
 809 043a AC42     		cmp	r4, r5
 810 043c 00F02E81 		beq	.L588
 811              		.loc 1 79 5 view .LVU156
 812 0440 4FF00075 		mov	r5, #33554432
 813 0444 2EE1     		b	.L39
 814              	.L151:
  78:IMU/bsp_spi.c ****     __HAL_DMA_CLEAR_FLAG (hspi1.hdmarx, __HAL_DMA_GET_HT_FLAG_INDEX(hspi1.hdmarx));
 815              		.loc 1 78 5 view .LVU157
 816 0446 1025     		movs	r5, #16
 817 0448 B5E7     		b	.L31
 818              	.L152:
ARM GAS  C:\Users\xixi\AppData\Local\Temp\ccW01pdv.s 			page 18


 819 044a 1025     		movs	r5, #16
 820 044c B3E7     		b	.L31
 821              	.L153:
 822 044e 1025     		movs	r5, #16
 823 0450 B1E7     		b	.L31
 824              	.L154:
 825 0452 4FF48065 		mov	r5, #1024
 826 0456 AEE7     		b	.L31
 827              	.L155:
 828 0458 4FF48065 		mov	r5, #1024
 829 045c ABE7     		b	.L31
 830              	.L156:
 831 045e 4FF48065 		mov	r5, #1024
 832 0462 A8E7     		b	.L31
 833              	.L157:
 834 0464 4FF48065 		mov	r5, #1024
 835 0468 A5E7     		b	.L31
 836              	.L158:
 837 046a 4FF48015 		mov	r5, #1048576
 838 046e A2E7     		b	.L31
 839              	.L159:
 840 0470 4FF48015 		mov	r5, #1048576
 841 0474 9FE7     		b	.L31
 842              	.L160:
 843 0476 4FF48015 		mov	r5, #1048576
 844 047a 9CE7     		b	.L31
 845              	.L30:
  78:IMU/bsp_spi.c ****     __HAL_DMA_CLEAR_FLAG (hspi1.hdmarx, __HAL_DMA_GET_HT_FLAG_INDEX(hspi1.hdmarx));
 846              		.loc 1 78 5 discriminator 2 view .LVU158
 847 047c 584D     		ldr	r5, .L625+20
 848 047e AC42     		cmp	r4, r5
 849 0480 53D9     		bls	.L33
  78:IMU/bsp_spi.c ****     __HAL_DMA_CLEAR_FLAG (hspi1.hdmarx, __HAL_DMA_GET_HT_FLAG_INDEX(hspi1.hdmarx));
 850              		.loc 1 78 5 discriminator 51 view .LVU159
 851 0482 A83D     		subs	r5, r5, #168
 852 0484 AC42     		cmp	r4, r5
 853 0486 31D0     		beq	.L162
  78:IMU/bsp_spi.c ****     __HAL_DMA_CLEAR_FLAG (hspi1.hdmarx, __HAL_DMA_GET_HT_FLAG_INDEX(hspi1.hdmarx));
 854              		.loc 1 78 5 discriminator 53 view .LVU160
 855 0488 05F58065 		add	r5, r5, #1024
 856 048c AC42     		cmp	r4, r5
 857 048e 31D0     		beq	.L163
  78:IMU/bsp_spi.c ****     __HAL_DMA_CLEAR_FLAG (hspi1.hdmarx, __HAL_DMA_GET_HT_FLAG_INDEX(hspi1.hdmarx));
 858              		.loc 1 78 5 discriminator 55 view .LVU161
 859 0490 A5F56875 		sub	r5, r5, #928
 860 0494 AC42     		cmp	r4, r5
 861 0496 2FD0     		beq	.L164
  78:IMU/bsp_spi.c ****     __HAL_DMA_CLEAR_FLAG (hspi1.hdmarx, __HAL_DMA_GET_HT_FLAG_INDEX(hspi1.hdmarx));
 862              		.loc 1 78 5 discriminator 57 view .LVU162
 863 0498 05F58065 		add	r5, r5, #1024
 864 049c AC42     		cmp	r4, r5
 865 049e 2DD0     		beq	.L165
  78:IMU/bsp_spi.c ****     __HAL_DMA_CLEAR_FLAG (hspi1.hdmarx, __HAL_DMA_GET_HT_FLAG_INDEX(hspi1.hdmarx));
 866              		.loc 1 78 5 discriminator 59 view .LVU163
 867 04a0 A5F58965 		sub	r5, r5, #1096
 868 04a4 AC42     		cmp	r4, r5
 869 04a6 2BD0     		beq	.L166
ARM GAS  C:\Users\xixi\AppData\Local\Temp\ccW01pdv.s 			page 19


  78:IMU/bsp_spi.c ****     __HAL_DMA_CLEAR_FLAG (hspi1.hdmarx, __HAL_DMA_GET_HT_FLAG_INDEX(hspi1.hdmarx));
 870              		.loc 1 78 5 discriminator 61 view .LVU164
 871 04a8 05F58065 		add	r5, r5, #1024
 872 04ac AC42     		cmp	r4, r5
 873 04ae 2AD0     		beq	.L167
  78:IMU/bsp_spi.c ****     __HAL_DMA_CLEAR_FLAG (hspi1.hdmarx, __HAL_DMA_GET_HT_FLAG_INDEX(hspi1.hdmarx));
 874              		.loc 1 78 5 discriminator 63 view .LVU165
 875 04b0 A5F56875 		sub	r5, r5, #928
 876 04b4 AC42     		cmp	r4, r5
 877 04b6 29D0     		beq	.L168
  78:IMU/bsp_spi.c ****     __HAL_DMA_CLEAR_FLAG (hspi1.hdmarx, __HAL_DMA_GET_HT_FLAG_INDEX(hspi1.hdmarx));
 878              		.loc 1 78 5 discriminator 65 view .LVU166
 879 04b8 05F58065 		add	r5, r5, #1024
 880 04bc AC42     		cmp	r4, r5
 881 04be 28D0     		beq	.L169
  78:IMU/bsp_spi.c ****     __HAL_DMA_CLEAR_FLAG (hspi1.hdmarx, __HAL_DMA_GET_HT_FLAG_INDEX(hspi1.hdmarx));
 882              		.loc 1 78 5 discriminator 67 view .LVU167
 883 04c0 A5F58965 		sub	r5, r5, #1096
 884 04c4 AC42     		cmp	r4, r5
 885 04c6 27D0     		beq	.L170
  78:IMU/bsp_spi.c ****     __HAL_DMA_CLEAR_FLAG (hspi1.hdmarx, __HAL_DMA_GET_HT_FLAG_INDEX(hspi1.hdmarx));
 886              		.loc 1 78 5 discriminator 69 view .LVU168
 887 04c8 05F58065 		add	r5, r5, #1024
 888 04cc AC42     		cmp	r4, r5
 889 04ce 26D0     		beq	.L171
  78:IMU/bsp_spi.c ****     __HAL_DMA_CLEAR_FLAG (hspi1.hdmarx, __HAL_DMA_GET_HT_FLAG_INDEX(hspi1.hdmarx));
 890              		.loc 1 78 5 discriminator 71 view .LVU169
 891 04d0 A5F56875 		sub	r5, r5, #928
 892 04d4 AC42     		cmp	r4, r5
 893 04d6 25D0     		beq	.L172
  78:IMU/bsp_spi.c ****     __HAL_DMA_CLEAR_FLAG (hspi1.hdmarx, __HAL_DMA_GET_HT_FLAG_INDEX(hspi1.hdmarx));
 894              		.loc 1 78 5 discriminator 73 view .LVU170
 895 04d8 05F58065 		add	r5, r5, #1024
 896 04dc AC42     		cmp	r4, r5
 897 04de 02D0     		beq	.L589
  78:IMU/bsp_spi.c ****     __HAL_DMA_CLEAR_FLAG (hspi1.hdmarx, __HAL_DMA_GET_HT_FLAG_INDEX(hspi1.hdmarx));
 898              		.loc 1 78 5 view .LVU171
 899 04e0 4FF08064 		mov	r4, #67108864
 900 04e4 03E0     		b	.L34
 901              	.L589:
 902 04e6 4FF48014 		mov	r4, #1048576
 903 04ea 00E0     		b	.L34
 904              	.L162:
 905 04ec 1024     		movs	r4, #16
 906              	.L34:
  78:IMU/bsp_spi.c ****     __HAL_DMA_CLEAR_FLAG (hspi1.hdmarx, __HAL_DMA_GET_HT_FLAG_INDEX(hspi1.hdmarx));
 907              		.loc 1 78 5 discriminator 100 view .LVU172
 908 04ee 394D     		ldr	r5, .L625+8
 909 04f0 AC60     		str	r4, [r5, #8]
 910 04f2 62E7     		b	.L32
 911              	.L163:
  78:IMU/bsp_spi.c ****     __HAL_DMA_CLEAR_FLAG (hspi1.hdmarx, __HAL_DMA_GET_HT_FLAG_INDEX(hspi1.hdmarx));
 912              		.loc 1 78 5 view .LVU173
 913 04f4 1024     		movs	r4, #16
 914 04f6 FAE7     		b	.L34
 915              	.L164:
 916 04f8 1024     		movs	r4, #16
ARM GAS  C:\Users\xixi\AppData\Local\Temp\ccW01pdv.s 			page 20


 917 04fa F8E7     		b	.L34
 918              	.L165:
 919 04fc 1024     		movs	r4, #16
 920 04fe F6E7     		b	.L34
 921              	.L166:
 922 0500 4FF48064 		mov	r4, #1024
 923 0504 F3E7     		b	.L34
 924              	.L167:
 925 0506 4FF48064 		mov	r4, #1024
 926 050a F0E7     		b	.L34
 927              	.L168:
 928 050c 4FF48064 		mov	r4, #1024
 929 0510 EDE7     		b	.L34
 930              	.L169:
 931 0512 4FF48064 		mov	r4, #1024
 932 0516 EAE7     		b	.L34
 933              	.L170:
 934 0518 4FF48014 		mov	r4, #1048576
 935 051c E7E7     		b	.L34
 936              	.L171:
 937 051e 4FF48014 		mov	r4, #1048576
 938 0522 E4E7     		b	.L34
 939              	.L172:
 940 0524 4FF48014 		mov	r4, #1048576
 941 0528 E1E7     		b	.L34
 942              	.L33:
  78:IMU/bsp_spi.c ****     __HAL_DMA_CLEAR_FLAG (hspi1.hdmarx, __HAL_DMA_GET_HT_FLAG_INDEX(hspi1.hdmarx));
 943              		.loc 1 78 5 discriminator 52 view .LVU174
 944 052a 2E4D     		ldr	r5, .L625+24
 945 052c AC42     		cmp	r4, r5
 946 052e 61D9     		bls	.L35
  78:IMU/bsp_spi.c ****     __HAL_DMA_CLEAR_FLAG (hspi1.hdmarx, __HAL_DMA_GET_HT_FLAG_INDEX(hspi1.hdmarx));
 947              		.loc 1 78 5 discriminator 102 view .LVU175
 948 0530 483D     		subs	r5, r5, #72
 949 0532 AC42     		cmp	r4, r5
 950 0534 31D0     		beq	.L174
  78:IMU/bsp_spi.c ****     __HAL_DMA_CLEAR_FLAG (hspi1.hdmarx, __HAL_DMA_GET_HT_FLAG_INDEX(hspi1.hdmarx));
 951              		.loc 1 78 5 discriminator 104 view .LVU176
 952 0536 05F58065 		add	r5, r5, #1024
 953 053a AC42     		cmp	r4, r5
 954 053c 31D0     		beq	.L175
  78:IMU/bsp_spi.c ****     __HAL_DMA_CLEAR_FLAG (hspi1.hdmarx, __HAL_DMA_GET_HT_FLAG_INDEX(hspi1.hdmarx));
 955              		.loc 1 78 5 discriminator 106 view .LVU177
 956 053e A5F56875 		sub	r5, r5, #928
 957 0542 AC42     		cmp	r4, r5
 958 0544 2FD0     		beq	.L176
  78:IMU/bsp_spi.c ****     __HAL_DMA_CLEAR_FLAG (hspi1.hdmarx, __HAL_DMA_GET_HT_FLAG_INDEX(hspi1.hdmarx));
 959              		.loc 1 78 5 discriminator 108 view .LVU178
 960 0546 05F58065 		add	r5, r5, #1024
 961 054a AC42     		cmp	r4, r5
 962 054c 2DD0     		beq	.L177
  78:IMU/bsp_spi.c ****     __HAL_DMA_CLEAR_FLAG (hspi1.hdmarx, __HAL_DMA_GET_HT_FLAG_INDEX(hspi1.hdmarx));
 963              		.loc 1 78 5 discriminator 110 view .LVU179
 964 054e A5F58965 		sub	r5, r5, #1096
 965 0552 AC42     		cmp	r4, r5
 966 0554 2BD0     		beq	.L178
  78:IMU/bsp_spi.c ****     __HAL_DMA_CLEAR_FLAG (hspi1.hdmarx, __HAL_DMA_GET_HT_FLAG_INDEX(hspi1.hdmarx));
ARM GAS  C:\Users\xixi\AppData\Local\Temp\ccW01pdv.s 			page 21


 967              		.loc 1 78 5 discriminator 112 view .LVU180
 968 0556 05F58065 		add	r5, r5, #1024
 969 055a AC42     		cmp	r4, r5
 970 055c 2AD0     		beq	.L179
  78:IMU/bsp_spi.c ****     __HAL_DMA_CLEAR_FLAG (hspi1.hdmarx, __HAL_DMA_GET_HT_FLAG_INDEX(hspi1.hdmarx));
 971              		.loc 1 78 5 discriminator 114 view .LVU181
 972 055e A5F56875 		sub	r5, r5, #928
 973 0562 AC42     		cmp	r4, r5
 974 0564 29D0     		beq	.L180
  78:IMU/bsp_spi.c ****     __HAL_DMA_CLEAR_FLAG (hspi1.hdmarx, __HAL_DMA_GET_HT_FLAG_INDEX(hspi1.hdmarx));
 975              		.loc 1 78 5 discriminator 116 view .LVU182
 976 0566 05F58065 		add	r5, r5, #1024
 977 056a AC42     		cmp	r4, r5
 978 056c 28D0     		beq	.L181
  78:IMU/bsp_spi.c ****     __HAL_DMA_CLEAR_FLAG (hspi1.hdmarx, __HAL_DMA_GET_HT_FLAG_INDEX(hspi1.hdmarx));
 979              		.loc 1 78 5 discriminator 118 view .LVU183
 980 056e A5F58965 		sub	r5, r5, #1096
 981 0572 AC42     		cmp	r4, r5
 982 0574 27D0     		beq	.L182
  78:IMU/bsp_spi.c ****     __HAL_DMA_CLEAR_FLAG (hspi1.hdmarx, __HAL_DMA_GET_HT_FLAG_INDEX(hspi1.hdmarx));
 983              		.loc 1 78 5 discriminator 120 view .LVU184
 984 0576 05F58065 		add	r5, r5, #1024
 985 057a AC42     		cmp	r4, r5
 986 057c 34D0     		beq	.L183
  78:IMU/bsp_spi.c ****     __HAL_DMA_CLEAR_FLAG (hspi1.hdmarx, __HAL_DMA_GET_HT_FLAG_INDEX(hspi1.hdmarx));
 987              		.loc 1 78 5 discriminator 122 view .LVU185
 988 057e A5F56875 		sub	r5, r5, #928
 989 0582 AC42     		cmp	r4, r5
 990 0584 33D0     		beq	.L184
  78:IMU/bsp_spi.c ****     __HAL_DMA_CLEAR_FLAG (hspi1.hdmarx, __HAL_DMA_GET_HT_FLAG_INDEX(hspi1.hdmarx));
 991              		.loc 1 78 5 discriminator 124 view .LVU186
 992 0586 05F58065 		add	r5, r5, #1024
 993 058a AC42     		cmp	r4, r5
 994 058c 02D0     		beq	.L590
  78:IMU/bsp_spi.c ****     __HAL_DMA_CLEAR_FLAG (hspi1.hdmarx, __HAL_DMA_GET_HT_FLAG_INDEX(hspi1.hdmarx));
 995              		.loc 1 78 5 view .LVU187
 996 058e 4FF08064 		mov	r4, #67108864
 997 0592 03E0     		b	.L36
 998              	.L590:
 999 0594 4FF48014 		mov	r4, #1048576
 1000 0598 00E0     		b	.L36
 1001              	.L174:
 1002 059a 1024     		movs	r4, #16
 1003              	.L36:
  78:IMU/bsp_spi.c ****     __HAL_DMA_CLEAR_FLAG (hspi1.hdmarx, __HAL_DMA_GET_HT_FLAG_INDEX(hspi1.hdmarx));
 1004              		.loc 1 78 5 discriminator 151 view .LVU188
 1005 059c 0C4D     		ldr	r5, .L625+4
 1006 059e EC60     		str	r4, [r5, #12]
 1007 05a0 0BE7     		b	.L32
 1008              	.L175:
  78:IMU/bsp_spi.c ****     __HAL_DMA_CLEAR_FLAG (hspi1.hdmarx, __HAL_DMA_GET_HT_FLAG_INDEX(hspi1.hdmarx));
 1009              		.loc 1 78 5 view .LVU189
 1010 05a2 1024     		movs	r4, #16
 1011 05a4 FAE7     		b	.L36
 1012              	.L176:
 1013 05a6 1024     		movs	r4, #16
 1014 05a8 F8E7     		b	.L36
ARM GAS  C:\Users\xixi\AppData\Local\Temp\ccW01pdv.s 			page 22


 1015              	.L177:
 1016 05aa 1024     		movs	r4, #16
 1017 05ac F6E7     		b	.L36
 1018              	.L178:
 1019 05ae 4FF48064 		mov	r4, #1024
 1020 05b2 F3E7     		b	.L36
 1021              	.L179:
 1022 05b4 4FF48064 		mov	r4, #1024
 1023 05b8 F0E7     		b	.L36
 1024              	.L180:
 1025 05ba 4FF48064 		mov	r4, #1024
 1026 05be EDE7     		b	.L36
 1027              	.L181:
 1028 05c0 4FF48064 		mov	r4, #1024
 1029 05c4 EAE7     		b	.L36
 1030              	.L182:
 1031 05c6 4FF48014 		mov	r4, #1048576
 1032 05ca E7E7     		b	.L36
 1033              	.L626:
 1034              		.align	2
 1035              	.L625:
 1036 05cc 10600240 		.word	1073897488
 1037 05d0 00600240 		.word	1073897472
 1038 05d4 00640240 		.word	1073898496
 1039 05d8 00000000 		.word	hspi1
 1040 05dc 58640240 		.word	1073898584
 1041 05e0 B8600240 		.word	1073897656
 1042 05e4 58600240 		.word	1073897560
 1043              	.L183:
 1044 05e8 4FF48014 		mov	r4, #1048576
 1045 05ec D6E7     		b	.L36
 1046              	.L184:
 1047 05ee 4FF48014 		mov	r4, #1048576
 1048 05f2 D3E7     		b	.L36
 1049              	.L35:
  78:IMU/bsp_spi.c ****     __HAL_DMA_CLEAR_FLAG (hspi1.hdmarx, __HAL_DMA_GET_HT_FLAG_INDEX(hspi1.hdmarx));
 1050              		.loc 1 78 5 discriminator 103 view .LVU190
 1051 05f4 B14D     		ldr	r5, .L627
 1052 05f6 AC42     		cmp	r4, r5
 1053 05f8 31D0     		beq	.L186
  78:IMU/bsp_spi.c ****     __HAL_DMA_CLEAR_FLAG (hspi1.hdmarx, __HAL_DMA_GET_HT_FLAG_INDEX(hspi1.hdmarx));
 1054              		.loc 1 78 5 discriminator 153 view .LVU191
 1055 05fa 05F58065 		add	r5, r5, #1024
 1056 05fe AC42     		cmp	r4, r5
 1057 0600 31D0     		beq	.L187
  78:IMU/bsp_spi.c ****     __HAL_DMA_CLEAR_FLAG (hspi1.hdmarx, __HAL_DMA_GET_HT_FLAG_INDEX(hspi1.hdmarx));
 1058              		.loc 1 78 5 discriminator 155 view .LVU192
 1059 0602 A5F56875 		sub	r5, r5, #928
 1060 0606 AC42     		cmp	r4, r5
 1061 0608 2FD0     		beq	.L188
  78:IMU/bsp_spi.c ****     __HAL_DMA_CLEAR_FLAG (hspi1.hdmarx, __HAL_DMA_GET_HT_FLAG_INDEX(hspi1.hdmarx));
 1062              		.loc 1 78 5 discriminator 157 view .LVU193
 1063 060a 05F58065 		add	r5, r5, #1024
 1064 060e AC42     		cmp	r4, r5
 1065 0610 2DD0     		beq	.L189
  78:IMU/bsp_spi.c ****     __HAL_DMA_CLEAR_FLAG (hspi1.hdmarx, __HAL_DMA_GET_HT_FLAG_INDEX(hspi1.hdmarx));
 1066              		.loc 1 78 5 discriminator 159 view .LVU194
ARM GAS  C:\Users\xixi\AppData\Local\Temp\ccW01pdv.s 			page 23


 1067 0612 A5F58965 		sub	r5, r5, #1096
 1068 0616 AC42     		cmp	r4, r5
 1069 0618 2BD0     		beq	.L190
  78:IMU/bsp_spi.c ****     __HAL_DMA_CLEAR_FLAG (hspi1.hdmarx, __HAL_DMA_GET_HT_FLAG_INDEX(hspi1.hdmarx));
 1070              		.loc 1 78 5 discriminator 161 view .LVU195
 1071 061a 05F58065 		add	r5, r5, #1024
 1072 061e AC42     		cmp	r4, r5
 1073 0620 2AD0     		beq	.L191
  78:IMU/bsp_spi.c ****     __HAL_DMA_CLEAR_FLAG (hspi1.hdmarx, __HAL_DMA_GET_HT_FLAG_INDEX(hspi1.hdmarx));
 1074              		.loc 1 78 5 discriminator 163 view .LVU196
 1075 0622 A5F56875 		sub	r5, r5, #928
 1076 0626 AC42     		cmp	r4, r5
 1077 0628 29D0     		beq	.L192
  78:IMU/bsp_spi.c ****     __HAL_DMA_CLEAR_FLAG (hspi1.hdmarx, __HAL_DMA_GET_HT_FLAG_INDEX(hspi1.hdmarx));
 1078              		.loc 1 78 5 discriminator 165 view .LVU197
 1079 062a 05F58065 		add	r5, r5, #1024
 1080 062e AC42     		cmp	r4, r5
 1081 0630 28D0     		beq	.L193
  78:IMU/bsp_spi.c ****     __HAL_DMA_CLEAR_FLAG (hspi1.hdmarx, __HAL_DMA_GET_HT_FLAG_INDEX(hspi1.hdmarx));
 1082              		.loc 1 78 5 discriminator 167 view .LVU198
 1083 0632 A5F58965 		sub	r5, r5, #1096
 1084 0636 AC42     		cmp	r4, r5
 1085 0638 27D0     		beq	.L194
  78:IMU/bsp_spi.c ****     __HAL_DMA_CLEAR_FLAG (hspi1.hdmarx, __HAL_DMA_GET_HT_FLAG_INDEX(hspi1.hdmarx));
 1086              		.loc 1 78 5 discriminator 169 view .LVU199
 1087 063a 05F58065 		add	r5, r5, #1024
 1088 063e AC42     		cmp	r4, r5
 1089 0640 26D0     		beq	.L195
  78:IMU/bsp_spi.c ****     __HAL_DMA_CLEAR_FLAG (hspi1.hdmarx, __HAL_DMA_GET_HT_FLAG_INDEX(hspi1.hdmarx));
 1090              		.loc 1 78 5 discriminator 171 view .LVU200
 1091 0642 A5F56875 		sub	r5, r5, #928
 1092 0646 AC42     		cmp	r4, r5
 1093 0648 25D0     		beq	.L196
  78:IMU/bsp_spi.c ****     __HAL_DMA_CLEAR_FLAG (hspi1.hdmarx, __HAL_DMA_GET_HT_FLAG_INDEX(hspi1.hdmarx));
 1094              		.loc 1 78 5 discriminator 173 view .LVU201
 1095 064a 05F58065 		add	r5, r5, #1024
 1096 064e AC42     		cmp	r4, r5
 1097 0650 02D0     		beq	.L591
  78:IMU/bsp_spi.c ****     __HAL_DMA_CLEAR_FLAG (hspi1.hdmarx, __HAL_DMA_GET_HT_FLAG_INDEX(hspi1.hdmarx));
 1098              		.loc 1 78 5 view .LVU202
 1099 0652 4FF08064 		mov	r4, #67108864
 1100 0656 03E0     		b	.L37
 1101              	.L591:
 1102 0658 4FF48014 		mov	r4, #1048576
 1103 065c 00E0     		b	.L37
 1104              	.L186:
 1105 065e 1024     		movs	r4, #16
 1106              	.L37:
  78:IMU/bsp_spi.c ****     __HAL_DMA_CLEAR_FLAG (hspi1.hdmarx, __HAL_DMA_GET_HT_FLAG_INDEX(hspi1.hdmarx));
 1107              		.loc 1 78 5 discriminator 200 view .LVU203
 1108 0660 974D     		ldr	r5, .L627+4
 1109 0662 AC60     		str	r4, [r5, #8]
 1110 0664 A9E6     		b	.L32
 1111              	.L187:
  78:IMU/bsp_spi.c ****     __HAL_DMA_CLEAR_FLAG (hspi1.hdmarx, __HAL_DMA_GET_HT_FLAG_INDEX(hspi1.hdmarx));
 1112              		.loc 1 78 5 view .LVU204
 1113 0666 1024     		movs	r4, #16
ARM GAS  C:\Users\xixi\AppData\Local\Temp\ccW01pdv.s 			page 24


 1114 0668 FAE7     		b	.L37
 1115              	.L188:
 1116 066a 1024     		movs	r4, #16
 1117 066c F8E7     		b	.L37
 1118              	.L189:
 1119 066e 1024     		movs	r4, #16
 1120 0670 F6E7     		b	.L37
 1121              	.L190:
 1122 0672 4FF48064 		mov	r4, #1024
 1123 0676 F3E7     		b	.L37
 1124              	.L191:
 1125 0678 4FF48064 		mov	r4, #1024
 1126 067c F0E7     		b	.L37
 1127              	.L192:
 1128 067e 4FF48064 		mov	r4, #1024
 1129 0682 EDE7     		b	.L37
 1130              	.L193:
 1131 0684 4FF48064 		mov	r4, #1024
 1132 0688 EAE7     		b	.L37
 1133              	.L194:
 1134 068a 4FF48014 		mov	r4, #1048576
 1135 068e E7E7     		b	.L37
 1136              	.L195:
 1137 0690 4FF48014 		mov	r4, #1048576
 1138 0694 E4E7     		b	.L37
 1139              	.L196:
 1140 0696 4FF48014 		mov	r4, #1048576
 1141 069a E1E7     		b	.L37
 1142              	.L588:
 1143              		.loc 1 79 5 view .LVU205
 1144 069c 4FF40025 		mov	r5, #524288
 1145 06a0 00E0     		b	.L39
 1146              	.L198:
 1147 06a2 0825     		movs	r5, #8
 1148              	.L39:
 1149              		.loc 1 79 5 discriminator 50 view .LVU206
 1150 06a4 874C     		ldr	r4, .L627+8
 1151 06a6 E560     		str	r5, [r4, #12]
 1152              	.L40:
  80:IMU/bsp_spi.c ****     __HAL_DMA_CLEAR_FLAG (hspi1.hdmarx, __HAL_DMA_GET_DME_FLAG_INDEX(hspi1.hdmarx));
 1153              		.loc 1 80 5 is_stmt 1 view .LVU207
 1154 06a8 874C     		ldr	r4, .L627+12
 1155 06aa E46C     		ldr	r4, [r4, #76]
 1156 06ac 2468     		ldr	r4, [r4]
 1157 06ae 874D     		ldr	r5, .L627+16
 1158 06b0 AC42     		cmp	r4, r5
 1159 06b2 40F2D281 		bls	.L46
 1160              		.loc 1 80 5 is_stmt 0 discriminator 1 view .LVU208
 1161 06b6 A5F58965 		sub	r5, r5, #1096
 1162 06ba AC42     		cmp	r4, r5
 1163 06bc 00F06981 		beq	.L246
 1164              		.loc 1 80 5 discriminator 3 view .LVU209
 1165 06c0 05F58065 		add	r5, r5, #1024
 1166 06c4 AC42     		cmp	r4, r5
 1167 06c6 00F0AD81 		beq	.L247
 1168              		.loc 1 80 5 discriminator 5 view .LVU210
 1169 06ca A5F56875 		sub	r5, r5, #928
ARM GAS  C:\Users\xixi\AppData\Local\Temp\ccW01pdv.s 			page 25


 1170 06ce AC42     		cmp	r4, r5
 1171 06d0 00F0AA81 		beq	.L248
 1172              		.loc 1 80 5 discriminator 7 view .LVU211
 1173 06d4 05F58065 		add	r5, r5, #1024
 1174 06d8 AC42     		cmp	r4, r5
 1175 06da 00F0A781 		beq	.L249
 1176              		.loc 1 80 5 discriminator 9 view .LVU212
 1177 06de A5F58965 		sub	r5, r5, #1096
 1178 06e2 AC42     		cmp	r4, r5
 1179 06e4 00F0A481 		beq	.L250
 1180              		.loc 1 80 5 discriminator 11 view .LVU213
 1181 06e8 05F58065 		add	r5, r5, #1024
 1182 06ec AC42     		cmp	r4, r5
 1183 06ee 00F0A281 		beq	.L251
 1184              		.loc 1 80 5 discriminator 13 view .LVU214
 1185 06f2 A5F56875 		sub	r5, r5, #928
 1186 06f6 AC42     		cmp	r4, r5
 1187 06f8 00F0A081 		beq	.L252
 1188              		.loc 1 80 5 discriminator 15 view .LVU215
 1189 06fc 05F58065 		add	r5, r5, #1024
 1190 0700 AC42     		cmp	r4, r5
 1191 0702 00F09E81 		beq	.L253
 1192              		.loc 1 80 5 discriminator 17 view .LVU216
 1193 0706 A5F58965 		sub	r5, r5, #1096
 1194 070a AC42     		cmp	r4, r5
 1195 070c 00F09C81 		beq	.L254
 1196              		.loc 1 80 5 discriminator 19 view .LVU217
 1197 0710 05F58065 		add	r5, r5, #1024
 1198 0714 AC42     		cmp	r4, r5
 1199 0716 00F09A81 		beq	.L255
 1200              		.loc 1 80 5 discriminator 21 view .LVU218
 1201 071a A5F56875 		sub	r5, r5, #928
 1202 071e AC42     		cmp	r4, r5
 1203 0720 00F09881 		beq	.L256
 1204              		.loc 1 80 5 discriminator 23 view .LVU219
 1205 0724 05F58065 		add	r5, r5, #1024
 1206 0728 AC42     		cmp	r4, r5
 1207 072a 00F02F81 		beq	.L592
 1208              		.loc 1 80 5 view .LVU220
 1209 072e 4FF08075 		mov	r5, #16777216
 1210 0732 2FE1     		b	.L47
 1211              	.L199:
  79:IMU/bsp_spi.c ****     __HAL_DMA_CLEAR_FLAG (hspi1.hdmarx, __HAL_DMA_GET_TE_FLAG_INDEX(hspi1.hdmarx));
 1212              		.loc 1 79 5 view .LVU221
 1213 0734 0825     		movs	r5, #8
 1214 0736 B5E7     		b	.L39
 1215              	.L200:
 1216 0738 0825     		movs	r5, #8
 1217 073a B3E7     		b	.L39
 1218              	.L201:
 1219 073c 0825     		movs	r5, #8
 1220 073e B1E7     		b	.L39
 1221              	.L202:
 1222 0740 4FF40075 		mov	r5, #512
 1223 0744 AEE7     		b	.L39
 1224              	.L203:
 1225 0746 4FF40075 		mov	r5, #512
ARM GAS  C:\Users\xixi\AppData\Local\Temp\ccW01pdv.s 			page 26


 1226 074a ABE7     		b	.L39
 1227              	.L204:
 1228 074c 4FF40075 		mov	r5, #512
 1229 0750 A8E7     		b	.L39
 1230              	.L205:
 1231 0752 4FF40075 		mov	r5, #512
 1232 0756 A5E7     		b	.L39
 1233              	.L206:
 1234 0758 4FF40025 		mov	r5, #524288
 1235 075c A2E7     		b	.L39
 1236              	.L207:
 1237 075e 4FF40025 		mov	r5, #524288
 1238 0762 9FE7     		b	.L39
 1239              	.L208:
 1240 0764 4FF40025 		mov	r5, #524288
 1241 0768 9CE7     		b	.L39
 1242              	.L38:
  79:IMU/bsp_spi.c ****     __HAL_DMA_CLEAR_FLAG (hspi1.hdmarx, __HAL_DMA_GET_TE_FLAG_INDEX(hspi1.hdmarx));
 1243              		.loc 1 79 5 discriminator 2 view .LVU222
 1244 076a 594D     		ldr	r5, .L627+20
 1245 076c AC42     		cmp	r4, r5
 1246 076e 53D9     		bls	.L41
  79:IMU/bsp_spi.c ****     __HAL_DMA_CLEAR_FLAG (hspi1.hdmarx, __HAL_DMA_GET_TE_FLAG_INDEX(hspi1.hdmarx));
 1247              		.loc 1 79 5 discriminator 51 view .LVU223
 1248 0770 A83D     		subs	r5, r5, #168
 1249 0772 AC42     		cmp	r4, r5
 1250 0774 31D0     		beq	.L210
  79:IMU/bsp_spi.c ****     __HAL_DMA_CLEAR_FLAG (hspi1.hdmarx, __HAL_DMA_GET_TE_FLAG_INDEX(hspi1.hdmarx));
 1251              		.loc 1 79 5 discriminator 53 view .LVU224
 1252 0776 05F58065 		add	r5, r5, #1024
 1253 077a AC42     		cmp	r4, r5
 1254 077c 31D0     		beq	.L211
  79:IMU/bsp_spi.c ****     __HAL_DMA_CLEAR_FLAG (hspi1.hdmarx, __HAL_DMA_GET_TE_FLAG_INDEX(hspi1.hdmarx));
 1255              		.loc 1 79 5 discriminator 55 view .LVU225
 1256 077e A5F56875 		sub	r5, r5, #928
 1257 0782 AC42     		cmp	r4, r5
 1258 0784 2FD0     		beq	.L212
  79:IMU/bsp_spi.c ****     __HAL_DMA_CLEAR_FLAG (hspi1.hdmarx, __HAL_DMA_GET_TE_FLAG_INDEX(hspi1.hdmarx));
 1259              		.loc 1 79 5 discriminator 57 view .LVU226
 1260 0786 05F58065 		add	r5, r5, #1024
 1261 078a AC42     		cmp	r4, r5
 1262 078c 2DD0     		beq	.L213
  79:IMU/bsp_spi.c ****     __HAL_DMA_CLEAR_FLAG (hspi1.hdmarx, __HAL_DMA_GET_TE_FLAG_INDEX(hspi1.hdmarx));
 1263              		.loc 1 79 5 discriminator 59 view .LVU227
 1264 078e A5F58965 		sub	r5, r5, #1096
 1265 0792 AC42     		cmp	r4, r5
 1266 0794 2BD0     		beq	.L214
  79:IMU/bsp_spi.c ****     __HAL_DMA_CLEAR_FLAG (hspi1.hdmarx, __HAL_DMA_GET_TE_FLAG_INDEX(hspi1.hdmarx));
 1267              		.loc 1 79 5 discriminator 61 view .LVU228
 1268 0796 05F58065 		add	r5, r5, #1024
 1269 079a AC42     		cmp	r4, r5
 1270 079c 2AD0     		beq	.L215
  79:IMU/bsp_spi.c ****     __HAL_DMA_CLEAR_FLAG (hspi1.hdmarx, __HAL_DMA_GET_TE_FLAG_INDEX(hspi1.hdmarx));
 1271              		.loc 1 79 5 discriminator 63 view .LVU229
 1272 079e A5F56875 		sub	r5, r5, #928
 1273 07a2 AC42     		cmp	r4, r5
 1274 07a4 29D0     		beq	.L216
ARM GAS  C:\Users\xixi\AppData\Local\Temp\ccW01pdv.s 			page 27


  79:IMU/bsp_spi.c ****     __HAL_DMA_CLEAR_FLAG (hspi1.hdmarx, __HAL_DMA_GET_TE_FLAG_INDEX(hspi1.hdmarx));
 1275              		.loc 1 79 5 discriminator 65 view .LVU230
 1276 07a6 05F58065 		add	r5, r5, #1024
 1277 07aa AC42     		cmp	r4, r5
 1278 07ac 28D0     		beq	.L217
  79:IMU/bsp_spi.c ****     __HAL_DMA_CLEAR_FLAG (hspi1.hdmarx, __HAL_DMA_GET_TE_FLAG_INDEX(hspi1.hdmarx));
 1279              		.loc 1 79 5 discriminator 67 view .LVU231
 1280 07ae A5F58965 		sub	r5, r5, #1096
 1281 07b2 AC42     		cmp	r4, r5
 1282 07b4 27D0     		beq	.L218
  79:IMU/bsp_spi.c ****     __HAL_DMA_CLEAR_FLAG (hspi1.hdmarx, __HAL_DMA_GET_TE_FLAG_INDEX(hspi1.hdmarx));
 1283              		.loc 1 79 5 discriminator 69 view .LVU232
 1284 07b6 05F58065 		add	r5, r5, #1024
 1285 07ba AC42     		cmp	r4, r5
 1286 07bc 26D0     		beq	.L219
  79:IMU/bsp_spi.c ****     __HAL_DMA_CLEAR_FLAG (hspi1.hdmarx, __HAL_DMA_GET_TE_FLAG_INDEX(hspi1.hdmarx));
 1287              		.loc 1 79 5 discriminator 71 view .LVU233
 1288 07be A5F56875 		sub	r5, r5, #928
 1289 07c2 AC42     		cmp	r4, r5
 1290 07c4 25D0     		beq	.L220
  79:IMU/bsp_spi.c ****     __HAL_DMA_CLEAR_FLAG (hspi1.hdmarx, __HAL_DMA_GET_TE_FLAG_INDEX(hspi1.hdmarx));
 1291              		.loc 1 79 5 discriminator 73 view .LVU234
 1292 07c6 05F58065 		add	r5, r5, #1024
 1293 07ca AC42     		cmp	r4, r5
 1294 07cc 02D0     		beq	.L593
  79:IMU/bsp_spi.c ****     __HAL_DMA_CLEAR_FLAG (hspi1.hdmarx, __HAL_DMA_GET_TE_FLAG_INDEX(hspi1.hdmarx));
 1295              		.loc 1 79 5 view .LVU235
 1296 07ce 4FF00074 		mov	r4, #33554432
 1297 07d2 03E0     		b	.L42
 1298              	.L593:
 1299 07d4 4FF40024 		mov	r4, #524288
 1300 07d8 00E0     		b	.L42
 1301              	.L210:
 1302 07da 0824     		movs	r4, #8
 1303              	.L42:
  79:IMU/bsp_spi.c ****     __HAL_DMA_CLEAR_FLAG (hspi1.hdmarx, __HAL_DMA_GET_TE_FLAG_INDEX(hspi1.hdmarx));
 1304              		.loc 1 79 5 discriminator 100 view .LVU236
 1305 07dc 394D     		ldr	r5, .L627+8
 1306 07de AC60     		str	r4, [r5, #8]
 1307 07e0 62E7     		b	.L40
 1308              	.L211:
  79:IMU/bsp_spi.c ****     __HAL_DMA_CLEAR_FLAG (hspi1.hdmarx, __HAL_DMA_GET_TE_FLAG_INDEX(hspi1.hdmarx));
 1309              		.loc 1 79 5 view .LVU237
 1310 07e2 0824     		movs	r4, #8
 1311 07e4 FAE7     		b	.L42
 1312              	.L212:
 1313 07e6 0824     		movs	r4, #8
 1314 07e8 F8E7     		b	.L42
 1315              	.L213:
 1316 07ea 0824     		movs	r4, #8
 1317 07ec F6E7     		b	.L42
 1318              	.L214:
 1319 07ee 4FF40074 		mov	r4, #512
 1320 07f2 F3E7     		b	.L42
 1321              	.L215:
 1322 07f4 4FF40074 		mov	r4, #512
 1323 07f8 F0E7     		b	.L42
ARM GAS  C:\Users\xixi\AppData\Local\Temp\ccW01pdv.s 			page 28


 1324              	.L216:
 1325 07fa 4FF40074 		mov	r4, #512
 1326 07fe EDE7     		b	.L42
 1327              	.L217:
 1328 0800 4FF40074 		mov	r4, #512
 1329 0804 EAE7     		b	.L42
 1330              	.L218:
 1331 0806 4FF40024 		mov	r4, #524288
 1332 080a E7E7     		b	.L42
 1333              	.L219:
 1334 080c 4FF40024 		mov	r4, #524288
 1335 0810 E4E7     		b	.L42
 1336              	.L220:
 1337 0812 4FF40024 		mov	r4, #524288
 1338 0816 E1E7     		b	.L42
 1339              	.L41:
  79:IMU/bsp_spi.c ****     __HAL_DMA_CLEAR_FLAG (hspi1.hdmarx, __HAL_DMA_GET_TE_FLAG_INDEX(hspi1.hdmarx));
 1340              		.loc 1 79 5 discriminator 52 view .LVU238
 1341 0818 2E4D     		ldr	r5, .L627+24
 1342 081a AC42     		cmp	r4, r5
 1343 081c 62D9     		bls	.L43
  79:IMU/bsp_spi.c ****     __HAL_DMA_CLEAR_FLAG (hspi1.hdmarx, __HAL_DMA_GET_TE_FLAG_INDEX(hspi1.hdmarx));
 1344              		.loc 1 79 5 discriminator 102 view .LVU239
 1345 081e 483D     		subs	r5, r5, #72
 1346 0820 AC42     		cmp	r4, r5
 1347 0822 31D0     		beq	.L222
  79:IMU/bsp_spi.c ****     __HAL_DMA_CLEAR_FLAG (hspi1.hdmarx, __HAL_DMA_GET_TE_FLAG_INDEX(hspi1.hdmarx));
 1348              		.loc 1 79 5 discriminator 104 view .LVU240
 1349 0824 05F58065 		add	r5, r5, #1024
 1350 0828 AC42     		cmp	r4, r5
 1351 082a 31D0     		beq	.L223
  79:IMU/bsp_spi.c ****     __HAL_DMA_CLEAR_FLAG (hspi1.hdmarx, __HAL_DMA_GET_TE_FLAG_INDEX(hspi1.hdmarx));
 1352              		.loc 1 79 5 discriminator 106 view .LVU241
 1353 082c A5F56875 		sub	r5, r5, #928
 1354 0830 AC42     		cmp	r4, r5
 1355 0832 2FD0     		beq	.L224
  79:IMU/bsp_spi.c ****     __HAL_DMA_CLEAR_FLAG (hspi1.hdmarx, __HAL_DMA_GET_TE_FLAG_INDEX(hspi1.hdmarx));
 1356              		.loc 1 79 5 discriminator 108 view .LVU242
 1357 0834 05F58065 		add	r5, r5, #1024
 1358 0838 AC42     		cmp	r4, r5
 1359 083a 2DD0     		beq	.L225
  79:IMU/bsp_spi.c ****     __HAL_DMA_CLEAR_FLAG (hspi1.hdmarx, __HAL_DMA_GET_TE_FLAG_INDEX(hspi1.hdmarx));
 1360              		.loc 1 79 5 discriminator 110 view .LVU243
 1361 083c A5F58965 		sub	r5, r5, #1096
 1362 0840 AC42     		cmp	r4, r5
 1363 0842 2BD0     		beq	.L226
  79:IMU/bsp_spi.c ****     __HAL_DMA_CLEAR_FLAG (hspi1.hdmarx, __HAL_DMA_GET_TE_FLAG_INDEX(hspi1.hdmarx));
 1364              		.loc 1 79 5 discriminator 112 view .LVU244
 1365 0844 05F58065 		add	r5, r5, #1024
 1366 0848 AC42     		cmp	r4, r5
 1367 084a 2AD0     		beq	.L227
  79:IMU/bsp_spi.c ****     __HAL_DMA_CLEAR_FLAG (hspi1.hdmarx, __HAL_DMA_GET_TE_FLAG_INDEX(hspi1.hdmarx));
 1368              		.loc 1 79 5 discriminator 114 view .LVU245
 1369 084c A5F56875 		sub	r5, r5, #928
 1370 0850 AC42     		cmp	r4, r5
 1371 0852 29D0     		beq	.L228
  79:IMU/bsp_spi.c ****     __HAL_DMA_CLEAR_FLAG (hspi1.hdmarx, __HAL_DMA_GET_TE_FLAG_INDEX(hspi1.hdmarx));
ARM GAS  C:\Users\xixi\AppData\Local\Temp\ccW01pdv.s 			page 29


 1372              		.loc 1 79 5 discriminator 116 view .LVU246
 1373 0854 05F58065 		add	r5, r5, #1024
 1374 0858 AC42     		cmp	r4, r5
 1375 085a 28D0     		beq	.L229
  79:IMU/bsp_spi.c ****     __HAL_DMA_CLEAR_FLAG (hspi1.hdmarx, __HAL_DMA_GET_TE_FLAG_INDEX(hspi1.hdmarx));
 1376              		.loc 1 79 5 discriminator 118 view .LVU247
 1377 085c A5F58965 		sub	r5, r5, #1096
 1378 0860 AC42     		cmp	r4, r5
 1379 0862 27D0     		beq	.L230
  79:IMU/bsp_spi.c ****     __HAL_DMA_CLEAR_FLAG (hspi1.hdmarx, __HAL_DMA_GET_TE_FLAG_INDEX(hspi1.hdmarx));
 1380              		.loc 1 79 5 discriminator 120 view .LVU248
 1381 0864 05F58065 		add	r5, r5, #1024
 1382 0868 AC42     		cmp	r4, r5
 1383 086a 35D0     		beq	.L231
  79:IMU/bsp_spi.c ****     __HAL_DMA_CLEAR_FLAG (hspi1.hdmarx, __HAL_DMA_GET_TE_FLAG_INDEX(hspi1.hdmarx));
 1384              		.loc 1 79 5 discriminator 122 view .LVU249
 1385 086c A5F56875 		sub	r5, r5, #928
 1386 0870 AC42     		cmp	r4, r5
 1387 0872 34D0     		beq	.L232
  79:IMU/bsp_spi.c ****     __HAL_DMA_CLEAR_FLAG (hspi1.hdmarx, __HAL_DMA_GET_TE_FLAG_INDEX(hspi1.hdmarx));
 1388              		.loc 1 79 5 discriminator 124 view .LVU250
 1389 0874 05F58065 		add	r5, r5, #1024
 1390 0878 AC42     		cmp	r4, r5
 1391 087a 02D0     		beq	.L594
  79:IMU/bsp_spi.c ****     __HAL_DMA_CLEAR_FLAG (hspi1.hdmarx, __HAL_DMA_GET_TE_FLAG_INDEX(hspi1.hdmarx));
 1392              		.loc 1 79 5 view .LVU251
 1393 087c 4FF00074 		mov	r4, #33554432
 1394 0880 03E0     		b	.L44
 1395              	.L594:
 1396 0882 4FF40024 		mov	r4, #524288
 1397 0886 00E0     		b	.L44
 1398              	.L222:
 1399 0888 0824     		movs	r4, #8
 1400              	.L44:
  79:IMU/bsp_spi.c ****     __HAL_DMA_CLEAR_FLAG (hspi1.hdmarx, __HAL_DMA_GET_TE_FLAG_INDEX(hspi1.hdmarx));
 1401              		.loc 1 79 5 discriminator 151 view .LVU252
 1402 088a 0D4D     		ldr	r5, .L627+4
 1403 088c EC60     		str	r4, [r5, #12]
 1404 088e 0BE7     		b	.L40
 1405              	.L223:
  79:IMU/bsp_spi.c ****     __HAL_DMA_CLEAR_FLAG (hspi1.hdmarx, __HAL_DMA_GET_TE_FLAG_INDEX(hspi1.hdmarx));
 1406              		.loc 1 79 5 view .LVU253
 1407 0890 0824     		movs	r4, #8
 1408 0892 FAE7     		b	.L44
 1409              	.L224:
 1410 0894 0824     		movs	r4, #8
 1411 0896 F8E7     		b	.L44
 1412              	.L225:
 1413 0898 0824     		movs	r4, #8
 1414 089a F6E7     		b	.L44
 1415              	.L226:
 1416 089c 4FF40074 		mov	r4, #512
 1417 08a0 F3E7     		b	.L44
 1418              	.L227:
 1419 08a2 4FF40074 		mov	r4, #512
 1420 08a6 F0E7     		b	.L44
 1421              	.L228:
ARM GAS  C:\Users\xixi\AppData\Local\Temp\ccW01pdv.s 			page 30


 1422 08a8 4FF40074 		mov	r4, #512
 1423 08ac EDE7     		b	.L44
 1424              	.L229:
 1425 08ae 4FF40074 		mov	r4, #512
 1426 08b2 EAE7     		b	.L44
 1427              	.L230:
 1428 08b4 4FF40024 		mov	r4, #524288
 1429 08b8 E7E7     		b	.L44
 1430              	.L628:
 1431 08ba 00BF     		.align	2
 1432              	.L627:
 1433 08bc 10600240 		.word	1073897488
 1434 08c0 00600240 		.word	1073897472
 1435 08c4 00640240 		.word	1073898496
 1436 08c8 00000000 		.word	hspi1
 1437 08cc 58640240 		.word	1073898584
 1438 08d0 B8600240 		.word	1073897656
 1439 08d4 58600240 		.word	1073897560
 1440              	.L231:
 1441 08d8 4FF40024 		mov	r4, #524288
 1442 08dc D5E7     		b	.L44
 1443              	.L232:
 1444 08de 4FF40024 		mov	r4, #524288
 1445 08e2 D2E7     		b	.L44
 1446              	.L43:
  79:IMU/bsp_spi.c ****     __HAL_DMA_CLEAR_FLAG (hspi1.hdmarx, __HAL_DMA_GET_TE_FLAG_INDEX(hspi1.hdmarx));
 1447              		.loc 1 79 5 discriminator 103 view .LVU254
 1448 08e4 B14D     		ldr	r5, .L629
 1449 08e6 AC42     		cmp	r4, r5
 1450 08e8 31D0     		beq	.L234
  79:IMU/bsp_spi.c ****     __HAL_DMA_CLEAR_FLAG (hspi1.hdmarx, __HAL_DMA_GET_TE_FLAG_INDEX(hspi1.hdmarx));
 1451              		.loc 1 79 5 discriminator 153 view .LVU255
 1452 08ea 05F58065 		add	r5, r5, #1024
 1453 08ee AC42     		cmp	r4, r5
 1454 08f0 31D0     		beq	.L235
  79:IMU/bsp_spi.c ****     __HAL_DMA_CLEAR_FLAG (hspi1.hdmarx, __HAL_DMA_GET_TE_FLAG_INDEX(hspi1.hdmarx));
 1455              		.loc 1 79 5 discriminator 155 view .LVU256
 1456 08f2 A5F56875 		sub	r5, r5, #928
 1457 08f6 AC42     		cmp	r4, r5
 1458 08f8 2FD0     		beq	.L236
  79:IMU/bsp_spi.c ****     __HAL_DMA_CLEAR_FLAG (hspi1.hdmarx, __HAL_DMA_GET_TE_FLAG_INDEX(hspi1.hdmarx));
 1459              		.loc 1 79 5 discriminator 157 view .LVU257
 1460 08fa 05F58065 		add	r5, r5, #1024
 1461 08fe AC42     		cmp	r4, r5
 1462 0900 2DD0     		beq	.L237
  79:IMU/bsp_spi.c ****     __HAL_DMA_CLEAR_FLAG (hspi1.hdmarx, __HAL_DMA_GET_TE_FLAG_INDEX(hspi1.hdmarx));
 1463              		.loc 1 79 5 discriminator 159 view .LVU258
 1464 0902 A5F58965 		sub	r5, r5, #1096
 1465 0906 AC42     		cmp	r4, r5
 1466 0908 2BD0     		beq	.L238
  79:IMU/bsp_spi.c ****     __HAL_DMA_CLEAR_FLAG (hspi1.hdmarx, __HAL_DMA_GET_TE_FLAG_INDEX(hspi1.hdmarx));
 1467              		.loc 1 79 5 discriminator 161 view .LVU259
 1468 090a 05F58065 		add	r5, r5, #1024
 1469 090e AC42     		cmp	r4, r5
 1470 0910 2AD0     		beq	.L239
  79:IMU/bsp_spi.c ****     __HAL_DMA_CLEAR_FLAG (hspi1.hdmarx, __HAL_DMA_GET_TE_FLAG_INDEX(hspi1.hdmarx));
 1471              		.loc 1 79 5 discriminator 163 view .LVU260
ARM GAS  C:\Users\xixi\AppData\Local\Temp\ccW01pdv.s 			page 31


 1472 0912 A5F56875 		sub	r5, r5, #928
 1473 0916 AC42     		cmp	r4, r5
 1474 0918 29D0     		beq	.L240
  79:IMU/bsp_spi.c ****     __HAL_DMA_CLEAR_FLAG (hspi1.hdmarx, __HAL_DMA_GET_TE_FLAG_INDEX(hspi1.hdmarx));
 1475              		.loc 1 79 5 discriminator 165 view .LVU261
 1476 091a 05F58065 		add	r5, r5, #1024
 1477 091e AC42     		cmp	r4, r5
 1478 0920 28D0     		beq	.L241
  79:IMU/bsp_spi.c ****     __HAL_DMA_CLEAR_FLAG (hspi1.hdmarx, __HAL_DMA_GET_TE_FLAG_INDEX(hspi1.hdmarx));
 1479              		.loc 1 79 5 discriminator 167 view .LVU262
 1480 0922 A5F58965 		sub	r5, r5, #1096
 1481 0926 AC42     		cmp	r4, r5
 1482 0928 27D0     		beq	.L242
  79:IMU/bsp_spi.c ****     __HAL_DMA_CLEAR_FLAG (hspi1.hdmarx, __HAL_DMA_GET_TE_FLAG_INDEX(hspi1.hdmarx));
 1483              		.loc 1 79 5 discriminator 169 view .LVU263
 1484 092a 05F58065 		add	r5, r5, #1024
 1485 092e AC42     		cmp	r4, r5
 1486 0930 26D0     		beq	.L243
  79:IMU/bsp_spi.c ****     __HAL_DMA_CLEAR_FLAG (hspi1.hdmarx, __HAL_DMA_GET_TE_FLAG_INDEX(hspi1.hdmarx));
 1487              		.loc 1 79 5 discriminator 171 view .LVU264
 1488 0932 A5F56875 		sub	r5, r5, #928
 1489 0936 AC42     		cmp	r4, r5
 1490 0938 25D0     		beq	.L244
  79:IMU/bsp_spi.c ****     __HAL_DMA_CLEAR_FLAG (hspi1.hdmarx, __HAL_DMA_GET_TE_FLAG_INDEX(hspi1.hdmarx));
 1491              		.loc 1 79 5 discriminator 173 view .LVU265
 1492 093a 05F58065 		add	r5, r5, #1024
 1493 093e AC42     		cmp	r4, r5
 1494 0940 02D0     		beq	.L595
  79:IMU/bsp_spi.c ****     __HAL_DMA_CLEAR_FLAG (hspi1.hdmarx, __HAL_DMA_GET_TE_FLAG_INDEX(hspi1.hdmarx));
 1495              		.loc 1 79 5 view .LVU266
 1496 0942 4FF00074 		mov	r4, #33554432
 1497 0946 03E0     		b	.L45
 1498              	.L595:
 1499 0948 4FF40024 		mov	r4, #524288
 1500 094c 00E0     		b	.L45
 1501              	.L234:
 1502 094e 0824     		movs	r4, #8
 1503              	.L45:
  79:IMU/bsp_spi.c ****     __HAL_DMA_CLEAR_FLAG (hspi1.hdmarx, __HAL_DMA_GET_TE_FLAG_INDEX(hspi1.hdmarx));
 1504              		.loc 1 79 5 discriminator 200 view .LVU267
 1505 0950 974D     		ldr	r5, .L629+4
 1506 0952 AC60     		str	r4, [r5, #8]
 1507 0954 A8E6     		b	.L40
 1508              	.L235:
  79:IMU/bsp_spi.c ****     __HAL_DMA_CLEAR_FLAG (hspi1.hdmarx, __HAL_DMA_GET_TE_FLAG_INDEX(hspi1.hdmarx));
 1509              		.loc 1 79 5 view .LVU268
 1510 0956 0824     		movs	r4, #8
 1511 0958 FAE7     		b	.L45
 1512              	.L236:
 1513 095a 0824     		movs	r4, #8
 1514 095c F8E7     		b	.L45
 1515              	.L237:
 1516 095e 0824     		movs	r4, #8
 1517 0960 F6E7     		b	.L45
 1518              	.L238:
 1519 0962 4FF40074 		mov	r4, #512
 1520 0966 F3E7     		b	.L45
ARM GAS  C:\Users\xixi\AppData\Local\Temp\ccW01pdv.s 			page 32


 1521              	.L239:
 1522 0968 4FF40074 		mov	r4, #512
 1523 096c F0E7     		b	.L45
 1524              	.L240:
 1525 096e 4FF40074 		mov	r4, #512
 1526 0972 EDE7     		b	.L45
 1527              	.L241:
 1528 0974 4FF40074 		mov	r4, #512
 1529 0978 EAE7     		b	.L45
 1530              	.L242:
 1531 097a 4FF40024 		mov	r4, #524288
 1532 097e E7E7     		b	.L45
 1533              	.L243:
 1534 0980 4FF40024 		mov	r4, #524288
 1535 0984 E4E7     		b	.L45
 1536              	.L244:
 1537 0986 4FF40024 		mov	r4, #524288
 1538 098a E1E7     		b	.L45
 1539              	.L592:
 1540              		.loc 1 80 5 view .LVU269
 1541 098c 4FF48025 		mov	r5, #262144
 1542 0990 00E0     		b	.L47
 1543              	.L246:
 1544 0992 0425     		movs	r5, #4
 1545              	.L47:
 1546              		.loc 1 80 5 discriminator 50 view .LVU270
 1547 0994 874C     		ldr	r4, .L629+8
 1548 0996 E560     		str	r5, [r4, #12]
 1549              	.L48:
  81:IMU/bsp_spi.c ****     __HAL_DMA_CLEAR_FLAG (hspi1.hdmarx, __HAL_DMA_GET_FE_FLAG_INDEX(hspi1.hdmarx));
 1550              		.loc 1 81 5 is_stmt 1 view .LVU271
 1551 0998 874C     		ldr	r4, .L629+12
 1552 099a E46C     		ldr	r4, [r4, #76]
 1553 099c 2468     		ldr	r4, [r4]
 1554 099e 874D     		ldr	r5, .L629+16
 1555 09a0 AC42     		cmp	r4, r5
 1556 09a2 40F2CE81 		bls	.L54
 1557              		.loc 1 81 5 is_stmt 0 discriminator 1 view .LVU272
 1558 09a6 A5F58965 		sub	r5, r5, #1096
 1559 09aa AC42     		cmp	r4, r5
 1560 09ac 00F06981 		beq	.L294
 1561              		.loc 1 81 5 discriminator 3 view .LVU273
 1562 09b0 05F58065 		add	r5, r5, #1024
 1563 09b4 AC42     		cmp	r4, r5
 1564 09b6 00F0AD81 		beq	.L295
 1565              		.loc 1 81 5 discriminator 5 view .LVU274
 1566 09ba A5F56875 		sub	r5, r5, #928
 1567 09be AC42     		cmp	r4, r5
 1568 09c0 00F0AA81 		beq	.L296
 1569              		.loc 1 81 5 discriminator 7 view .LVU275
 1570 09c4 05F58065 		add	r5, r5, #1024
 1571 09c8 AC42     		cmp	r4, r5
 1572 09ca 00F0A781 		beq	.L297
 1573              		.loc 1 81 5 discriminator 9 view .LVU276
 1574 09ce A5F58965 		sub	r5, r5, #1096
 1575 09d2 AC42     		cmp	r4, r5
 1576 09d4 00F0A481 		beq	.L298
ARM GAS  C:\Users\xixi\AppData\Local\Temp\ccW01pdv.s 			page 33


 1577              		.loc 1 81 5 discriminator 11 view .LVU277
 1578 09d8 05F58065 		add	r5, r5, #1024
 1579 09dc AC42     		cmp	r4, r5
 1580 09de 00F0A181 		beq	.L299
 1581              		.loc 1 81 5 discriminator 13 view .LVU278
 1582 09e2 A5F56875 		sub	r5, r5, #928
 1583 09e6 AC42     		cmp	r4, r5
 1584 09e8 00F09E81 		beq	.L300
 1585              		.loc 1 81 5 discriminator 15 view .LVU279
 1586 09ec 05F58065 		add	r5, r5, #1024
 1587 09f0 AC42     		cmp	r4, r5
 1588 09f2 00F09B81 		beq	.L301
 1589              		.loc 1 81 5 discriminator 17 view .LVU280
 1590 09f6 A5F58965 		sub	r5, r5, #1096
 1591 09fa AC42     		cmp	r4, r5
 1592 09fc 00F09881 		beq	.L302
 1593              		.loc 1 81 5 discriminator 19 view .LVU281
 1594 0a00 05F58065 		add	r5, r5, #1024
 1595 0a04 AC42     		cmp	r4, r5
 1596 0a06 00F09681 		beq	.L303
 1597              		.loc 1 81 5 discriminator 21 view .LVU282
 1598 0a0a A5F56875 		sub	r5, r5, #928
 1599 0a0e AC42     		cmp	r4, r5
 1600 0a10 00F09481 		beq	.L304
 1601              		.loc 1 81 5 discriminator 23 view .LVU283
 1602 0a14 05F58065 		add	r5, r5, #1024
 1603 0a18 AC42     		cmp	r4, r5
 1604 0a1a 00F02F81 		beq	.L596
 1605              		.loc 1 81 5 view .LVU284
 1606 0a1e 4FF48005 		mov	r5, #4194304
 1607 0a22 2FE1     		b	.L55
 1608              	.L247:
  80:IMU/bsp_spi.c ****     __HAL_DMA_CLEAR_FLAG (hspi1.hdmarx, __HAL_DMA_GET_DME_FLAG_INDEX(hspi1.hdmarx));
 1609              		.loc 1 80 5 view .LVU285
 1610 0a24 0425     		movs	r5, #4
 1611 0a26 B5E7     		b	.L47
 1612              	.L248:
 1613 0a28 0425     		movs	r5, #4
 1614 0a2a B3E7     		b	.L47
 1615              	.L249:
 1616 0a2c 0425     		movs	r5, #4
 1617 0a2e B1E7     		b	.L47
 1618              	.L250:
 1619 0a30 4FF48075 		mov	r5, #256
 1620 0a34 AEE7     		b	.L47
 1621              	.L251:
 1622 0a36 4FF48075 		mov	r5, #256
 1623 0a3a ABE7     		b	.L47
 1624              	.L252:
 1625 0a3c 4FF48075 		mov	r5, #256
 1626 0a40 A8E7     		b	.L47
 1627              	.L253:
 1628 0a42 4FF48075 		mov	r5, #256
 1629 0a46 A5E7     		b	.L47
 1630              	.L254:
 1631 0a48 4FF48025 		mov	r5, #262144
 1632 0a4c A2E7     		b	.L47
ARM GAS  C:\Users\xixi\AppData\Local\Temp\ccW01pdv.s 			page 34


 1633              	.L255:
 1634 0a4e 4FF48025 		mov	r5, #262144
 1635 0a52 9FE7     		b	.L47
 1636              	.L256:
 1637 0a54 4FF48025 		mov	r5, #262144
 1638 0a58 9CE7     		b	.L47
 1639              	.L46:
  80:IMU/bsp_spi.c ****     __HAL_DMA_CLEAR_FLAG (hspi1.hdmarx, __HAL_DMA_GET_DME_FLAG_INDEX(hspi1.hdmarx));
 1640              		.loc 1 80 5 discriminator 2 view .LVU286
 1641 0a5a 594D     		ldr	r5, .L629+20
 1642 0a5c AC42     		cmp	r4, r5
 1643 0a5e 53D9     		bls	.L49
  80:IMU/bsp_spi.c ****     __HAL_DMA_CLEAR_FLAG (hspi1.hdmarx, __HAL_DMA_GET_DME_FLAG_INDEX(hspi1.hdmarx));
 1644              		.loc 1 80 5 discriminator 51 view .LVU287
 1645 0a60 A83D     		subs	r5, r5, #168
 1646 0a62 AC42     		cmp	r4, r5
 1647 0a64 31D0     		beq	.L258
  80:IMU/bsp_spi.c ****     __HAL_DMA_CLEAR_FLAG (hspi1.hdmarx, __HAL_DMA_GET_DME_FLAG_INDEX(hspi1.hdmarx));
 1648              		.loc 1 80 5 discriminator 53 view .LVU288
 1649 0a66 05F58065 		add	r5, r5, #1024
 1650 0a6a AC42     		cmp	r4, r5
 1651 0a6c 31D0     		beq	.L259
  80:IMU/bsp_spi.c ****     __HAL_DMA_CLEAR_FLAG (hspi1.hdmarx, __HAL_DMA_GET_DME_FLAG_INDEX(hspi1.hdmarx));
 1652              		.loc 1 80 5 discriminator 55 view .LVU289
 1653 0a6e A5F56875 		sub	r5, r5, #928
 1654 0a72 AC42     		cmp	r4, r5
 1655 0a74 2FD0     		beq	.L260
  80:IMU/bsp_spi.c ****     __HAL_DMA_CLEAR_FLAG (hspi1.hdmarx, __HAL_DMA_GET_DME_FLAG_INDEX(hspi1.hdmarx));
 1656              		.loc 1 80 5 discriminator 57 view .LVU290
 1657 0a76 05F58065 		add	r5, r5, #1024
 1658 0a7a AC42     		cmp	r4, r5
 1659 0a7c 2DD0     		beq	.L261
  80:IMU/bsp_spi.c ****     __HAL_DMA_CLEAR_FLAG (hspi1.hdmarx, __HAL_DMA_GET_DME_FLAG_INDEX(hspi1.hdmarx));
 1660              		.loc 1 80 5 discriminator 59 view .LVU291
 1661 0a7e A5F58965 		sub	r5, r5, #1096
 1662 0a82 AC42     		cmp	r4, r5
 1663 0a84 2BD0     		beq	.L262
  80:IMU/bsp_spi.c ****     __HAL_DMA_CLEAR_FLAG (hspi1.hdmarx, __HAL_DMA_GET_DME_FLAG_INDEX(hspi1.hdmarx));
 1664              		.loc 1 80 5 discriminator 61 view .LVU292
 1665 0a86 05F58065 		add	r5, r5, #1024
 1666 0a8a AC42     		cmp	r4, r5
 1667 0a8c 2AD0     		beq	.L263
  80:IMU/bsp_spi.c ****     __HAL_DMA_CLEAR_FLAG (hspi1.hdmarx, __HAL_DMA_GET_DME_FLAG_INDEX(hspi1.hdmarx));
 1668              		.loc 1 80 5 discriminator 63 view .LVU293
 1669 0a8e A5F56875 		sub	r5, r5, #928
 1670 0a92 AC42     		cmp	r4, r5
 1671 0a94 29D0     		beq	.L264
  80:IMU/bsp_spi.c ****     __HAL_DMA_CLEAR_FLAG (hspi1.hdmarx, __HAL_DMA_GET_DME_FLAG_INDEX(hspi1.hdmarx));
 1672              		.loc 1 80 5 discriminator 65 view .LVU294
 1673 0a96 05F58065 		add	r5, r5, #1024
 1674 0a9a AC42     		cmp	r4, r5
 1675 0a9c 28D0     		beq	.L265
  80:IMU/bsp_spi.c ****     __HAL_DMA_CLEAR_FLAG (hspi1.hdmarx, __HAL_DMA_GET_DME_FLAG_INDEX(hspi1.hdmarx));
 1676              		.loc 1 80 5 discriminator 67 view .LVU295
 1677 0a9e A5F58965 		sub	r5, r5, #1096
 1678 0aa2 AC42     		cmp	r4, r5
 1679 0aa4 27D0     		beq	.L266
ARM GAS  C:\Users\xixi\AppData\Local\Temp\ccW01pdv.s 			page 35


  80:IMU/bsp_spi.c ****     __HAL_DMA_CLEAR_FLAG (hspi1.hdmarx, __HAL_DMA_GET_DME_FLAG_INDEX(hspi1.hdmarx));
 1680              		.loc 1 80 5 discriminator 69 view .LVU296
 1681 0aa6 05F58065 		add	r5, r5, #1024
 1682 0aaa AC42     		cmp	r4, r5
 1683 0aac 26D0     		beq	.L267
  80:IMU/bsp_spi.c ****     __HAL_DMA_CLEAR_FLAG (hspi1.hdmarx, __HAL_DMA_GET_DME_FLAG_INDEX(hspi1.hdmarx));
 1684              		.loc 1 80 5 discriminator 71 view .LVU297
 1685 0aae A5F56875 		sub	r5, r5, #928
 1686 0ab2 AC42     		cmp	r4, r5
 1687 0ab4 25D0     		beq	.L268
  80:IMU/bsp_spi.c ****     __HAL_DMA_CLEAR_FLAG (hspi1.hdmarx, __HAL_DMA_GET_DME_FLAG_INDEX(hspi1.hdmarx));
 1688              		.loc 1 80 5 discriminator 73 view .LVU298
 1689 0ab6 05F58065 		add	r5, r5, #1024
 1690 0aba AC42     		cmp	r4, r5
 1691 0abc 02D0     		beq	.L597
  80:IMU/bsp_spi.c ****     __HAL_DMA_CLEAR_FLAG (hspi1.hdmarx, __HAL_DMA_GET_DME_FLAG_INDEX(hspi1.hdmarx));
 1692              		.loc 1 80 5 view .LVU299
 1693 0abe 4FF08074 		mov	r4, #16777216
 1694 0ac2 03E0     		b	.L50
 1695              	.L597:
 1696 0ac4 4FF48024 		mov	r4, #262144
 1697 0ac8 00E0     		b	.L50
 1698              	.L258:
 1699 0aca 0424     		movs	r4, #4
 1700              	.L50:
  80:IMU/bsp_spi.c ****     __HAL_DMA_CLEAR_FLAG (hspi1.hdmarx, __HAL_DMA_GET_DME_FLAG_INDEX(hspi1.hdmarx));
 1701              		.loc 1 80 5 discriminator 100 view .LVU300
 1702 0acc 394D     		ldr	r5, .L629+8
 1703 0ace AC60     		str	r4, [r5, #8]
 1704 0ad0 62E7     		b	.L48
 1705              	.L259:
  80:IMU/bsp_spi.c ****     __HAL_DMA_CLEAR_FLAG (hspi1.hdmarx, __HAL_DMA_GET_DME_FLAG_INDEX(hspi1.hdmarx));
 1706              		.loc 1 80 5 view .LVU301
 1707 0ad2 0424     		movs	r4, #4
 1708 0ad4 FAE7     		b	.L50
 1709              	.L260:
 1710 0ad6 0424     		movs	r4, #4
 1711 0ad8 F8E7     		b	.L50
 1712              	.L261:
 1713 0ada 0424     		movs	r4, #4
 1714 0adc F6E7     		b	.L50
 1715              	.L262:
 1716 0ade 4FF48074 		mov	r4, #256
 1717 0ae2 F3E7     		b	.L50
 1718              	.L263:
 1719 0ae4 4FF48074 		mov	r4, #256
 1720 0ae8 F0E7     		b	.L50
 1721              	.L264:
 1722 0aea 4FF48074 		mov	r4, #256
 1723 0aee EDE7     		b	.L50
 1724              	.L265:
 1725 0af0 4FF48074 		mov	r4, #256
 1726 0af4 EAE7     		b	.L50
 1727              	.L266:
 1728 0af6 4FF48024 		mov	r4, #262144
 1729 0afa E7E7     		b	.L50
 1730              	.L267:
ARM GAS  C:\Users\xixi\AppData\Local\Temp\ccW01pdv.s 			page 36


 1731 0afc 4FF48024 		mov	r4, #262144
 1732 0b00 E4E7     		b	.L50
 1733              	.L268:
 1734 0b02 4FF48024 		mov	r4, #262144
 1735 0b06 E1E7     		b	.L50
 1736              	.L49:
  80:IMU/bsp_spi.c ****     __HAL_DMA_CLEAR_FLAG (hspi1.hdmarx, __HAL_DMA_GET_DME_FLAG_INDEX(hspi1.hdmarx));
 1737              		.loc 1 80 5 discriminator 52 view .LVU302
 1738 0b08 2E4D     		ldr	r5, .L629+24
 1739 0b0a AC42     		cmp	r4, r5
 1740 0b0c 62D9     		bls	.L51
  80:IMU/bsp_spi.c ****     __HAL_DMA_CLEAR_FLAG (hspi1.hdmarx, __HAL_DMA_GET_DME_FLAG_INDEX(hspi1.hdmarx));
 1741              		.loc 1 80 5 discriminator 102 view .LVU303
 1742 0b0e 483D     		subs	r5, r5, #72
 1743 0b10 AC42     		cmp	r4, r5
 1744 0b12 31D0     		beq	.L270
  80:IMU/bsp_spi.c ****     __HAL_DMA_CLEAR_FLAG (hspi1.hdmarx, __HAL_DMA_GET_DME_FLAG_INDEX(hspi1.hdmarx));
 1745              		.loc 1 80 5 discriminator 104 view .LVU304
 1746 0b14 05F58065 		add	r5, r5, #1024
 1747 0b18 AC42     		cmp	r4, r5
 1748 0b1a 31D0     		beq	.L271
  80:IMU/bsp_spi.c ****     __HAL_DMA_CLEAR_FLAG (hspi1.hdmarx, __HAL_DMA_GET_DME_FLAG_INDEX(hspi1.hdmarx));
 1749              		.loc 1 80 5 discriminator 106 view .LVU305
 1750 0b1c A5F56875 		sub	r5, r5, #928
 1751 0b20 AC42     		cmp	r4, r5
 1752 0b22 2FD0     		beq	.L272
  80:IMU/bsp_spi.c ****     __HAL_DMA_CLEAR_FLAG (hspi1.hdmarx, __HAL_DMA_GET_DME_FLAG_INDEX(hspi1.hdmarx));
 1753              		.loc 1 80 5 discriminator 108 view .LVU306
 1754 0b24 05F58065 		add	r5, r5, #1024
 1755 0b28 AC42     		cmp	r4, r5
 1756 0b2a 2DD0     		beq	.L273
  80:IMU/bsp_spi.c ****     __HAL_DMA_CLEAR_FLAG (hspi1.hdmarx, __HAL_DMA_GET_DME_FLAG_INDEX(hspi1.hdmarx));
 1757              		.loc 1 80 5 discriminator 110 view .LVU307
 1758 0b2c A5F58965 		sub	r5, r5, #1096
 1759 0b30 AC42     		cmp	r4, r5
 1760 0b32 2BD0     		beq	.L274
  80:IMU/bsp_spi.c ****     __HAL_DMA_CLEAR_FLAG (hspi1.hdmarx, __HAL_DMA_GET_DME_FLAG_INDEX(hspi1.hdmarx));
 1761              		.loc 1 80 5 discriminator 112 view .LVU308
 1762 0b34 05F58065 		add	r5, r5, #1024
 1763 0b38 AC42     		cmp	r4, r5
 1764 0b3a 2AD0     		beq	.L275
  80:IMU/bsp_spi.c ****     __HAL_DMA_CLEAR_FLAG (hspi1.hdmarx, __HAL_DMA_GET_DME_FLAG_INDEX(hspi1.hdmarx));
 1765              		.loc 1 80 5 discriminator 114 view .LVU309
 1766 0b3c A5F56875 		sub	r5, r5, #928
 1767 0b40 AC42     		cmp	r4, r5
 1768 0b42 29D0     		beq	.L276
  80:IMU/bsp_spi.c ****     __HAL_DMA_CLEAR_FLAG (hspi1.hdmarx, __HAL_DMA_GET_DME_FLAG_INDEX(hspi1.hdmarx));
 1769              		.loc 1 80 5 discriminator 116 view .LVU310
 1770 0b44 05F58065 		add	r5, r5, #1024
 1771 0b48 AC42     		cmp	r4, r5
 1772 0b4a 28D0     		beq	.L277
  80:IMU/bsp_spi.c ****     __HAL_DMA_CLEAR_FLAG (hspi1.hdmarx, __HAL_DMA_GET_DME_FLAG_INDEX(hspi1.hdmarx));
 1773              		.loc 1 80 5 discriminator 118 view .LVU311
 1774 0b4c A5F58965 		sub	r5, r5, #1096
 1775 0b50 AC42     		cmp	r4, r5
 1776 0b52 27D0     		beq	.L278
  80:IMU/bsp_spi.c ****     __HAL_DMA_CLEAR_FLAG (hspi1.hdmarx, __HAL_DMA_GET_DME_FLAG_INDEX(hspi1.hdmarx));
ARM GAS  C:\Users\xixi\AppData\Local\Temp\ccW01pdv.s 			page 37


 1777              		.loc 1 80 5 discriminator 120 view .LVU312
 1778 0b54 05F58065 		add	r5, r5, #1024
 1779 0b58 AC42     		cmp	r4, r5
 1780 0b5a 35D0     		beq	.L279
  80:IMU/bsp_spi.c ****     __HAL_DMA_CLEAR_FLAG (hspi1.hdmarx, __HAL_DMA_GET_DME_FLAG_INDEX(hspi1.hdmarx));
 1781              		.loc 1 80 5 discriminator 122 view .LVU313
 1782 0b5c A5F56875 		sub	r5, r5, #928
 1783 0b60 AC42     		cmp	r4, r5
 1784 0b62 34D0     		beq	.L280
  80:IMU/bsp_spi.c ****     __HAL_DMA_CLEAR_FLAG (hspi1.hdmarx, __HAL_DMA_GET_DME_FLAG_INDEX(hspi1.hdmarx));
 1785              		.loc 1 80 5 discriminator 124 view .LVU314
 1786 0b64 05F58065 		add	r5, r5, #1024
 1787 0b68 AC42     		cmp	r4, r5
 1788 0b6a 02D0     		beq	.L598
  80:IMU/bsp_spi.c ****     __HAL_DMA_CLEAR_FLAG (hspi1.hdmarx, __HAL_DMA_GET_DME_FLAG_INDEX(hspi1.hdmarx));
 1789              		.loc 1 80 5 view .LVU315
 1790 0b6c 4FF08074 		mov	r4, #16777216
 1791 0b70 03E0     		b	.L52
 1792              	.L598:
 1793 0b72 4FF48024 		mov	r4, #262144
 1794 0b76 00E0     		b	.L52
 1795              	.L270:
 1796 0b78 0424     		movs	r4, #4
 1797              	.L52:
  80:IMU/bsp_spi.c ****     __HAL_DMA_CLEAR_FLAG (hspi1.hdmarx, __HAL_DMA_GET_DME_FLAG_INDEX(hspi1.hdmarx));
 1798              		.loc 1 80 5 discriminator 151 view .LVU316
 1799 0b7a 0D4D     		ldr	r5, .L629+4
 1800 0b7c EC60     		str	r4, [r5, #12]
 1801 0b7e 0BE7     		b	.L48
 1802              	.L271:
  80:IMU/bsp_spi.c ****     __HAL_DMA_CLEAR_FLAG (hspi1.hdmarx, __HAL_DMA_GET_DME_FLAG_INDEX(hspi1.hdmarx));
 1803              		.loc 1 80 5 view .LVU317
 1804 0b80 0424     		movs	r4, #4
 1805 0b82 FAE7     		b	.L52
 1806              	.L272:
 1807 0b84 0424     		movs	r4, #4
 1808 0b86 F8E7     		b	.L52
 1809              	.L273:
 1810 0b88 0424     		movs	r4, #4
 1811 0b8a F6E7     		b	.L52
 1812              	.L274:
 1813 0b8c 4FF48074 		mov	r4, #256
 1814 0b90 F3E7     		b	.L52
 1815              	.L275:
 1816 0b92 4FF48074 		mov	r4, #256
 1817 0b96 F0E7     		b	.L52
 1818              	.L276:
 1819 0b98 4FF48074 		mov	r4, #256
 1820 0b9c EDE7     		b	.L52
 1821              	.L277:
 1822 0b9e 4FF48074 		mov	r4, #256
 1823 0ba2 EAE7     		b	.L52
 1824              	.L278:
 1825 0ba4 4FF48024 		mov	r4, #262144
 1826 0ba8 E7E7     		b	.L52
 1827              	.L630:
 1828 0baa 00BF     		.align	2
ARM GAS  C:\Users\xixi\AppData\Local\Temp\ccW01pdv.s 			page 38


 1829              	.L629:
 1830 0bac 10600240 		.word	1073897488
 1831 0bb0 00600240 		.word	1073897472
 1832 0bb4 00640240 		.word	1073898496
 1833 0bb8 00000000 		.word	hspi1
 1834 0bbc 58640240 		.word	1073898584
 1835 0bc0 B8600240 		.word	1073897656
 1836 0bc4 58600240 		.word	1073897560
 1837              	.L279:
 1838 0bc8 4FF48024 		mov	r4, #262144
 1839 0bcc D5E7     		b	.L52
 1840              	.L280:
 1841 0bce 4FF48024 		mov	r4, #262144
 1842 0bd2 D2E7     		b	.L52
 1843              	.L51:
  80:IMU/bsp_spi.c ****     __HAL_DMA_CLEAR_FLAG (hspi1.hdmarx, __HAL_DMA_GET_DME_FLAG_INDEX(hspi1.hdmarx));
 1844              		.loc 1 80 5 discriminator 103 view .LVU318
 1845 0bd4 AE4D     		ldr	r5, .L631
 1846 0bd6 AC42     		cmp	r4, r5
 1847 0bd8 31D0     		beq	.L282
  80:IMU/bsp_spi.c ****     __HAL_DMA_CLEAR_FLAG (hspi1.hdmarx, __HAL_DMA_GET_DME_FLAG_INDEX(hspi1.hdmarx));
 1848              		.loc 1 80 5 discriminator 153 view .LVU319
 1849 0bda 05F58065 		add	r5, r5, #1024
 1850 0bde AC42     		cmp	r4, r5
 1851 0be0 31D0     		beq	.L283
  80:IMU/bsp_spi.c ****     __HAL_DMA_CLEAR_FLAG (hspi1.hdmarx, __HAL_DMA_GET_DME_FLAG_INDEX(hspi1.hdmarx));
 1852              		.loc 1 80 5 discriminator 155 view .LVU320
 1853 0be2 A5F56875 		sub	r5, r5, #928
 1854 0be6 AC42     		cmp	r4, r5
 1855 0be8 2FD0     		beq	.L284
  80:IMU/bsp_spi.c ****     __HAL_DMA_CLEAR_FLAG (hspi1.hdmarx, __HAL_DMA_GET_DME_FLAG_INDEX(hspi1.hdmarx));
 1856              		.loc 1 80 5 discriminator 157 view .LVU321
 1857 0bea 05F58065 		add	r5, r5, #1024
 1858 0bee AC42     		cmp	r4, r5
 1859 0bf0 2DD0     		beq	.L285
  80:IMU/bsp_spi.c ****     __HAL_DMA_CLEAR_FLAG (hspi1.hdmarx, __HAL_DMA_GET_DME_FLAG_INDEX(hspi1.hdmarx));
 1860              		.loc 1 80 5 discriminator 159 view .LVU322
 1861 0bf2 A5F58965 		sub	r5, r5, #1096
 1862 0bf6 AC42     		cmp	r4, r5
 1863 0bf8 2BD0     		beq	.L286
  80:IMU/bsp_spi.c ****     __HAL_DMA_CLEAR_FLAG (hspi1.hdmarx, __HAL_DMA_GET_DME_FLAG_INDEX(hspi1.hdmarx));
 1864              		.loc 1 80 5 discriminator 161 view .LVU323
 1865 0bfa 05F58065 		add	r5, r5, #1024
 1866 0bfe AC42     		cmp	r4, r5
 1867 0c00 2AD0     		beq	.L287
  80:IMU/bsp_spi.c ****     __HAL_DMA_CLEAR_FLAG (hspi1.hdmarx, __HAL_DMA_GET_DME_FLAG_INDEX(hspi1.hdmarx));
 1868              		.loc 1 80 5 discriminator 163 view .LVU324
 1869 0c02 A5F56875 		sub	r5, r5, #928
 1870 0c06 AC42     		cmp	r4, r5
 1871 0c08 29D0     		beq	.L288
  80:IMU/bsp_spi.c ****     __HAL_DMA_CLEAR_FLAG (hspi1.hdmarx, __HAL_DMA_GET_DME_FLAG_INDEX(hspi1.hdmarx));
 1872              		.loc 1 80 5 discriminator 165 view .LVU325
 1873 0c0a 05F58065 		add	r5, r5, #1024
 1874 0c0e AC42     		cmp	r4, r5
 1875 0c10 28D0     		beq	.L289
  80:IMU/bsp_spi.c ****     __HAL_DMA_CLEAR_FLAG (hspi1.hdmarx, __HAL_DMA_GET_DME_FLAG_INDEX(hspi1.hdmarx));
 1876              		.loc 1 80 5 discriminator 167 view .LVU326
ARM GAS  C:\Users\xixi\AppData\Local\Temp\ccW01pdv.s 			page 39


 1877 0c12 A5F58965 		sub	r5, r5, #1096
 1878 0c16 AC42     		cmp	r4, r5
 1879 0c18 27D0     		beq	.L290
  80:IMU/bsp_spi.c ****     __HAL_DMA_CLEAR_FLAG (hspi1.hdmarx, __HAL_DMA_GET_DME_FLAG_INDEX(hspi1.hdmarx));
 1880              		.loc 1 80 5 discriminator 169 view .LVU327
 1881 0c1a 05F58065 		add	r5, r5, #1024
 1882 0c1e AC42     		cmp	r4, r5
 1883 0c20 26D0     		beq	.L291
  80:IMU/bsp_spi.c ****     __HAL_DMA_CLEAR_FLAG (hspi1.hdmarx, __HAL_DMA_GET_DME_FLAG_INDEX(hspi1.hdmarx));
 1884              		.loc 1 80 5 discriminator 171 view .LVU328
 1885 0c22 A5F56875 		sub	r5, r5, #928
 1886 0c26 AC42     		cmp	r4, r5
 1887 0c28 25D0     		beq	.L292
  80:IMU/bsp_spi.c ****     __HAL_DMA_CLEAR_FLAG (hspi1.hdmarx, __HAL_DMA_GET_DME_FLAG_INDEX(hspi1.hdmarx));
 1888              		.loc 1 80 5 discriminator 173 view .LVU329
 1889 0c2a 05F58065 		add	r5, r5, #1024
 1890 0c2e AC42     		cmp	r4, r5
 1891 0c30 02D0     		beq	.L599
  80:IMU/bsp_spi.c ****     __HAL_DMA_CLEAR_FLAG (hspi1.hdmarx, __HAL_DMA_GET_DME_FLAG_INDEX(hspi1.hdmarx));
 1892              		.loc 1 80 5 view .LVU330
 1893 0c32 4FF08074 		mov	r4, #16777216
 1894 0c36 03E0     		b	.L53
 1895              	.L599:
 1896 0c38 4FF48024 		mov	r4, #262144
 1897 0c3c 00E0     		b	.L53
 1898              	.L282:
 1899 0c3e 0424     		movs	r4, #4
 1900              	.L53:
  80:IMU/bsp_spi.c ****     __HAL_DMA_CLEAR_FLAG (hspi1.hdmarx, __HAL_DMA_GET_DME_FLAG_INDEX(hspi1.hdmarx));
 1901              		.loc 1 80 5 discriminator 200 view .LVU331
 1902 0c40 944D     		ldr	r5, .L631+4
 1903 0c42 AC60     		str	r4, [r5, #8]
 1904 0c44 A8E6     		b	.L48
 1905              	.L283:
  80:IMU/bsp_spi.c ****     __HAL_DMA_CLEAR_FLAG (hspi1.hdmarx, __HAL_DMA_GET_DME_FLAG_INDEX(hspi1.hdmarx));
 1906              		.loc 1 80 5 view .LVU332
 1907 0c46 0424     		movs	r4, #4
 1908 0c48 FAE7     		b	.L53
 1909              	.L284:
 1910 0c4a 0424     		movs	r4, #4
 1911 0c4c F8E7     		b	.L53
 1912              	.L285:
 1913 0c4e 0424     		movs	r4, #4
 1914 0c50 F6E7     		b	.L53
 1915              	.L286:
 1916 0c52 4FF48074 		mov	r4, #256
 1917 0c56 F3E7     		b	.L53
 1918              	.L287:
 1919 0c58 4FF48074 		mov	r4, #256
 1920 0c5c F0E7     		b	.L53
 1921              	.L288:
 1922 0c5e 4FF48074 		mov	r4, #256
 1923 0c62 EDE7     		b	.L53
 1924              	.L289:
 1925 0c64 4FF48074 		mov	r4, #256
 1926 0c68 EAE7     		b	.L53
 1927              	.L290:
ARM GAS  C:\Users\xixi\AppData\Local\Temp\ccW01pdv.s 			page 40


 1928 0c6a 4FF48024 		mov	r4, #262144
 1929 0c6e E7E7     		b	.L53
 1930              	.L291:
 1931 0c70 4FF48024 		mov	r4, #262144
 1932 0c74 E4E7     		b	.L53
 1933              	.L292:
 1934 0c76 4FF48024 		mov	r4, #262144
 1935 0c7a E1E7     		b	.L53
 1936              	.L596:
 1937              		.loc 1 81 5 view .LVU333
 1938 0c7c 4FF48035 		mov	r5, #65536
 1939 0c80 00E0     		b	.L55
 1940              	.L294:
 1941 0c82 0125     		movs	r5, #1
 1942              	.L55:
 1943              		.loc 1 81 5 discriminator 50 view .LVU334
 1944 0c84 844C     		ldr	r4, .L631+8
 1945 0c86 E560     		str	r5, [r4, #12]
 1946              	.L56:
  82:IMU/bsp_spi.c **** 
  83:IMU/bsp_spi.c ****     __HAL_DMA_CLEAR_FLAG (hspi1.hdmatx, __HAL_DMA_GET_TC_FLAG_INDEX(hspi1.hdmatx));
 1947              		.loc 1 83 5 is_stmt 1 view .LVU335
 1948 0c88 844C     		ldr	r4, .L631+12
 1949 0c8a A46C     		ldr	r4, [r4, #72]
 1950 0c8c 2468     		ldr	r4, [r4]
 1951 0c8e 844D     		ldr	r5, .L631+16
 1952 0c90 AC42     		cmp	r4, r5
 1953 0c92 40F2C281 		bls	.L62
 1954              		.loc 1 83 5 is_stmt 0 discriminator 1 view .LVU336
 1955 0c96 A5F58965 		sub	r5, r5, #1096
 1956 0c9a AC42     		cmp	r4, r5
 1957 0c9c 00F05981 		beq	.L342
 1958              		.loc 1 83 5 discriminator 3 view .LVU337
 1959 0ca0 05F58065 		add	r5, r5, #1024
 1960 0ca4 AC42     		cmp	r4, r5
 1961 0ca6 00F09D81 		beq	.L343
 1962              		.loc 1 83 5 discriminator 5 view .LVU338
 1963 0caa A5F56875 		sub	r5, r5, #928
 1964 0cae AC42     		cmp	r4, r5
 1965 0cb0 00F09A81 		beq	.L344
 1966              		.loc 1 83 5 discriminator 7 view .LVU339
 1967 0cb4 05F58065 		add	r5, r5, #1024
 1968 0cb8 AC42     		cmp	r4, r5
 1969 0cba 00F09781 		beq	.L345
 1970              		.loc 1 83 5 discriminator 9 view .LVU340
 1971 0cbe A5F58965 		sub	r5, r5, #1096
 1972 0cc2 AC42     		cmp	r4, r5
 1973 0cc4 00F09481 		beq	.L346
 1974              		.loc 1 83 5 discriminator 11 view .LVU341
 1975 0cc8 05F58065 		add	r5, r5, #1024
 1976 0ccc AC42     		cmp	r4, r5
 1977 0cce 00F09281 		beq	.L347
 1978              		.loc 1 83 5 discriminator 13 view .LVU342
 1979 0cd2 A5F56875 		sub	r5, r5, #928
 1980 0cd6 AC42     		cmp	r4, r5
 1981 0cd8 00F09081 		beq	.L348
 1982              		.loc 1 83 5 discriminator 15 view .LVU343
ARM GAS  C:\Users\xixi\AppData\Local\Temp\ccW01pdv.s 			page 41


 1983 0cdc 05F58065 		add	r5, r5, #1024
 1984 0ce0 AC42     		cmp	r4, r5
 1985 0ce2 00F08E81 		beq	.L349
 1986              		.loc 1 83 5 discriminator 17 view .LVU344
 1987 0ce6 A5F58965 		sub	r5, r5, #1096
 1988 0cea AC42     		cmp	r4, r5
 1989 0cec 00F08C81 		beq	.L350
 1990              		.loc 1 83 5 discriminator 19 view .LVU345
 1991 0cf0 05F58065 		add	r5, r5, #1024
 1992 0cf4 AC42     		cmp	r4, r5
 1993 0cf6 00F08A81 		beq	.L351
 1994              		.loc 1 83 5 discriminator 21 view .LVU346
 1995 0cfa A5F56875 		sub	r5, r5, #928
 1996 0cfe AC42     		cmp	r4, r5
 1997 0d00 00F08881 		beq	.L352
 1998              		.loc 1 83 5 discriminator 23 view .LVU347
 1999 0d04 05F58065 		add	r5, r5, #1024
 2000 0d08 AC42     		cmp	r4, r5
 2001 0d0a 00F01F81 		beq	.L600
 2002              		.loc 1 83 5 view .LVU348
 2003 0d0e 4FF00065 		mov	r5, #134217728
 2004 0d12 1FE1     		b	.L63
 2005              	.L295:
  81:IMU/bsp_spi.c ****     __HAL_DMA_CLEAR_FLAG (hspi1.hdmarx, __HAL_DMA_GET_FE_FLAG_INDEX(hspi1.hdmarx));
 2006              		.loc 1 81 5 view .LVU349
 2007 0d14 0125     		movs	r5, #1
 2008 0d16 B5E7     		b	.L55
 2009              	.L296:
 2010 0d18 0125     		movs	r5, #1
 2011 0d1a B3E7     		b	.L55
 2012              	.L297:
 2013 0d1c 0125     		movs	r5, #1
 2014 0d1e B1E7     		b	.L55
 2015              	.L298:
 2016 0d20 4025     		movs	r5, #64
 2017 0d22 AFE7     		b	.L55
 2018              	.L299:
 2019 0d24 4025     		movs	r5, #64
 2020 0d26 ADE7     		b	.L55
 2021              	.L300:
 2022 0d28 4025     		movs	r5, #64
 2023 0d2a ABE7     		b	.L55
 2024              	.L301:
 2025 0d2c 4025     		movs	r5, #64
 2026 0d2e A9E7     		b	.L55
 2027              	.L302:
 2028 0d30 4FF48035 		mov	r5, #65536
 2029 0d34 A6E7     		b	.L55
 2030              	.L303:
 2031 0d36 4FF48035 		mov	r5, #65536
 2032 0d3a A3E7     		b	.L55
 2033              	.L304:
 2034 0d3c 4FF48035 		mov	r5, #65536
 2035 0d40 A0E7     		b	.L55
 2036              	.L54:
  81:IMU/bsp_spi.c ****     __HAL_DMA_CLEAR_FLAG (hspi1.hdmarx, __HAL_DMA_GET_FE_FLAG_INDEX(hspi1.hdmarx));
 2037              		.loc 1 81 5 discriminator 2 view .LVU350
ARM GAS  C:\Users\xixi\AppData\Local\Temp\ccW01pdv.s 			page 42


 2038 0d42 584D     		ldr	r5, .L631+20
 2039 0d44 AC42     		cmp	r4, r5
 2040 0d46 4FD9     		bls	.L57
  81:IMU/bsp_spi.c ****     __HAL_DMA_CLEAR_FLAG (hspi1.hdmarx, __HAL_DMA_GET_FE_FLAG_INDEX(hspi1.hdmarx));
 2041              		.loc 1 81 5 discriminator 51 view .LVU351
 2042 0d48 A83D     		subs	r5, r5, #168
 2043 0d4a AC42     		cmp	r4, r5
 2044 0d4c 31D0     		beq	.L306
  81:IMU/bsp_spi.c ****     __HAL_DMA_CLEAR_FLAG (hspi1.hdmarx, __HAL_DMA_GET_FE_FLAG_INDEX(hspi1.hdmarx));
 2045              		.loc 1 81 5 discriminator 53 view .LVU352
 2046 0d4e 05F58065 		add	r5, r5, #1024
 2047 0d52 AC42     		cmp	r4, r5
 2048 0d54 31D0     		beq	.L307
  81:IMU/bsp_spi.c ****     __HAL_DMA_CLEAR_FLAG (hspi1.hdmarx, __HAL_DMA_GET_FE_FLAG_INDEX(hspi1.hdmarx));
 2049              		.loc 1 81 5 discriminator 55 view .LVU353
 2050 0d56 A5F56875 		sub	r5, r5, #928
 2051 0d5a AC42     		cmp	r4, r5
 2052 0d5c 2FD0     		beq	.L308
  81:IMU/bsp_spi.c ****     __HAL_DMA_CLEAR_FLAG (hspi1.hdmarx, __HAL_DMA_GET_FE_FLAG_INDEX(hspi1.hdmarx));
 2053              		.loc 1 81 5 discriminator 57 view .LVU354
 2054 0d5e 05F58065 		add	r5, r5, #1024
 2055 0d62 AC42     		cmp	r4, r5
 2056 0d64 2DD0     		beq	.L309
  81:IMU/bsp_spi.c ****     __HAL_DMA_CLEAR_FLAG (hspi1.hdmarx, __HAL_DMA_GET_FE_FLAG_INDEX(hspi1.hdmarx));
 2057              		.loc 1 81 5 discriminator 59 view .LVU355
 2058 0d66 A5F58965 		sub	r5, r5, #1096
 2059 0d6a AC42     		cmp	r4, r5
 2060 0d6c 2BD0     		beq	.L310
  81:IMU/bsp_spi.c ****     __HAL_DMA_CLEAR_FLAG (hspi1.hdmarx, __HAL_DMA_GET_FE_FLAG_INDEX(hspi1.hdmarx));
 2061              		.loc 1 81 5 discriminator 61 view .LVU356
 2062 0d6e 05F58065 		add	r5, r5, #1024
 2063 0d72 AC42     		cmp	r4, r5
 2064 0d74 29D0     		beq	.L311
  81:IMU/bsp_spi.c ****     __HAL_DMA_CLEAR_FLAG (hspi1.hdmarx, __HAL_DMA_GET_FE_FLAG_INDEX(hspi1.hdmarx));
 2065              		.loc 1 81 5 discriminator 63 view .LVU357
 2066 0d76 A5F56875 		sub	r5, r5, #928
 2067 0d7a AC42     		cmp	r4, r5
 2068 0d7c 27D0     		beq	.L312
  81:IMU/bsp_spi.c ****     __HAL_DMA_CLEAR_FLAG (hspi1.hdmarx, __HAL_DMA_GET_FE_FLAG_INDEX(hspi1.hdmarx));
 2069              		.loc 1 81 5 discriminator 65 view .LVU358
 2070 0d7e 05F58065 		add	r5, r5, #1024
 2071 0d82 AC42     		cmp	r4, r5
 2072 0d84 25D0     		beq	.L313
  81:IMU/bsp_spi.c ****     __HAL_DMA_CLEAR_FLAG (hspi1.hdmarx, __HAL_DMA_GET_FE_FLAG_INDEX(hspi1.hdmarx));
 2073              		.loc 1 81 5 discriminator 67 view .LVU359
 2074 0d86 A5F58965 		sub	r5, r5, #1096
 2075 0d8a AC42     		cmp	r4, r5
 2076 0d8c 23D0     		beq	.L314
  81:IMU/bsp_spi.c ****     __HAL_DMA_CLEAR_FLAG (hspi1.hdmarx, __HAL_DMA_GET_FE_FLAG_INDEX(hspi1.hdmarx));
 2077              		.loc 1 81 5 discriminator 69 view .LVU360
 2078 0d8e 05F58065 		add	r5, r5, #1024
 2079 0d92 AC42     		cmp	r4, r5
 2080 0d94 22D0     		beq	.L315
  81:IMU/bsp_spi.c ****     __HAL_DMA_CLEAR_FLAG (hspi1.hdmarx, __HAL_DMA_GET_FE_FLAG_INDEX(hspi1.hdmarx));
 2081              		.loc 1 81 5 discriminator 71 view .LVU361
 2082 0d96 A5F56875 		sub	r5, r5, #928
 2083 0d9a AC42     		cmp	r4, r5
ARM GAS  C:\Users\xixi\AppData\Local\Temp\ccW01pdv.s 			page 43


 2084 0d9c 21D0     		beq	.L316
  81:IMU/bsp_spi.c ****     __HAL_DMA_CLEAR_FLAG (hspi1.hdmarx, __HAL_DMA_GET_FE_FLAG_INDEX(hspi1.hdmarx));
 2085              		.loc 1 81 5 discriminator 73 view .LVU362
 2086 0d9e 05F58065 		add	r5, r5, #1024
 2087 0da2 AC42     		cmp	r4, r5
 2088 0da4 02D0     		beq	.L601
  81:IMU/bsp_spi.c ****     __HAL_DMA_CLEAR_FLAG (hspi1.hdmarx, __HAL_DMA_GET_FE_FLAG_INDEX(hspi1.hdmarx));
 2089              		.loc 1 81 5 view .LVU363
 2090 0da6 4FF48004 		mov	r4, #4194304
 2091 0daa 03E0     		b	.L58
 2092              	.L601:
 2093 0dac 4FF48034 		mov	r4, #65536
 2094 0db0 00E0     		b	.L58
 2095              	.L306:
 2096 0db2 0124     		movs	r4, #1
 2097              	.L58:
  81:IMU/bsp_spi.c ****     __HAL_DMA_CLEAR_FLAG (hspi1.hdmarx, __HAL_DMA_GET_FE_FLAG_INDEX(hspi1.hdmarx));
 2098              		.loc 1 81 5 discriminator 100 view .LVU364
 2099 0db4 384D     		ldr	r5, .L631+8
 2100 0db6 AC60     		str	r4, [r5, #8]
 2101 0db8 66E7     		b	.L56
 2102              	.L307:
  81:IMU/bsp_spi.c ****     __HAL_DMA_CLEAR_FLAG (hspi1.hdmarx, __HAL_DMA_GET_FE_FLAG_INDEX(hspi1.hdmarx));
 2103              		.loc 1 81 5 view .LVU365
 2104 0dba 0124     		movs	r4, #1
 2105 0dbc FAE7     		b	.L58
 2106              	.L308:
 2107 0dbe 0124     		movs	r4, #1
 2108 0dc0 F8E7     		b	.L58
 2109              	.L309:
 2110 0dc2 0124     		movs	r4, #1
 2111 0dc4 F6E7     		b	.L58
 2112              	.L310:
 2113 0dc6 4024     		movs	r4, #64
 2114 0dc8 F4E7     		b	.L58
 2115              	.L311:
 2116 0dca 4024     		movs	r4, #64
 2117 0dcc F2E7     		b	.L58
 2118              	.L312:
 2119 0dce 4024     		movs	r4, #64
 2120 0dd0 F0E7     		b	.L58
 2121              	.L313:
 2122 0dd2 4024     		movs	r4, #64
 2123 0dd4 EEE7     		b	.L58
 2124              	.L314:
 2125 0dd6 4FF48034 		mov	r4, #65536
 2126 0dda EBE7     		b	.L58
 2127              	.L315:
 2128 0ddc 4FF48034 		mov	r4, #65536
 2129 0de0 E8E7     		b	.L58
 2130              	.L316:
 2131 0de2 4FF48034 		mov	r4, #65536
 2132 0de6 E5E7     		b	.L58
 2133              	.L57:
  81:IMU/bsp_spi.c ****     __HAL_DMA_CLEAR_FLAG (hspi1.hdmarx, __HAL_DMA_GET_FE_FLAG_INDEX(hspi1.hdmarx));
 2134              		.loc 1 81 5 discriminator 52 view .LVU366
 2135 0de8 2F4D     		ldr	r5, .L631+24
ARM GAS  C:\Users\xixi\AppData\Local\Temp\ccW01pdv.s 			page 44


 2136 0dea AC42     		cmp	r4, r5
 2137 0dec 5ED9     		bls	.L59
  81:IMU/bsp_spi.c ****     __HAL_DMA_CLEAR_FLAG (hspi1.hdmarx, __HAL_DMA_GET_FE_FLAG_INDEX(hspi1.hdmarx));
 2138              		.loc 1 81 5 discriminator 102 view .LVU367
 2139 0dee 483D     		subs	r5, r5, #72
 2140 0df0 AC42     		cmp	r4, r5
 2141 0df2 31D0     		beq	.L318
  81:IMU/bsp_spi.c ****     __HAL_DMA_CLEAR_FLAG (hspi1.hdmarx, __HAL_DMA_GET_FE_FLAG_INDEX(hspi1.hdmarx));
 2142              		.loc 1 81 5 discriminator 104 view .LVU368
 2143 0df4 05F58065 		add	r5, r5, #1024
 2144 0df8 AC42     		cmp	r4, r5
 2145 0dfa 31D0     		beq	.L319
  81:IMU/bsp_spi.c ****     __HAL_DMA_CLEAR_FLAG (hspi1.hdmarx, __HAL_DMA_GET_FE_FLAG_INDEX(hspi1.hdmarx));
 2146              		.loc 1 81 5 discriminator 106 view .LVU369
 2147 0dfc A5F56875 		sub	r5, r5, #928
 2148 0e00 AC42     		cmp	r4, r5
 2149 0e02 2FD0     		beq	.L320
  81:IMU/bsp_spi.c ****     __HAL_DMA_CLEAR_FLAG (hspi1.hdmarx, __HAL_DMA_GET_FE_FLAG_INDEX(hspi1.hdmarx));
 2150              		.loc 1 81 5 discriminator 108 view .LVU370
 2151 0e04 05F58065 		add	r5, r5, #1024
 2152 0e08 AC42     		cmp	r4, r5
 2153 0e0a 2DD0     		beq	.L321
  81:IMU/bsp_spi.c ****     __HAL_DMA_CLEAR_FLAG (hspi1.hdmarx, __HAL_DMA_GET_FE_FLAG_INDEX(hspi1.hdmarx));
 2154              		.loc 1 81 5 discriminator 110 view .LVU371
 2155 0e0c A5F58965 		sub	r5, r5, #1096
 2156 0e10 AC42     		cmp	r4, r5
 2157 0e12 2BD0     		beq	.L322
  81:IMU/bsp_spi.c ****     __HAL_DMA_CLEAR_FLAG (hspi1.hdmarx, __HAL_DMA_GET_FE_FLAG_INDEX(hspi1.hdmarx));
 2158              		.loc 1 81 5 discriminator 112 view .LVU372
 2159 0e14 05F58065 		add	r5, r5, #1024
 2160 0e18 AC42     		cmp	r4, r5
 2161 0e1a 29D0     		beq	.L323
  81:IMU/bsp_spi.c ****     __HAL_DMA_CLEAR_FLAG (hspi1.hdmarx, __HAL_DMA_GET_FE_FLAG_INDEX(hspi1.hdmarx));
 2162              		.loc 1 81 5 discriminator 114 view .LVU373
 2163 0e1c A5F56875 		sub	r5, r5, #928
 2164 0e20 AC42     		cmp	r4, r5
 2165 0e22 27D0     		beq	.L324
  81:IMU/bsp_spi.c ****     __HAL_DMA_CLEAR_FLAG (hspi1.hdmarx, __HAL_DMA_GET_FE_FLAG_INDEX(hspi1.hdmarx));
 2166              		.loc 1 81 5 discriminator 116 view .LVU374
 2167 0e24 05F58065 		add	r5, r5, #1024
 2168 0e28 AC42     		cmp	r4, r5
 2169 0e2a 25D0     		beq	.L325
  81:IMU/bsp_spi.c ****     __HAL_DMA_CLEAR_FLAG (hspi1.hdmarx, __HAL_DMA_GET_FE_FLAG_INDEX(hspi1.hdmarx));
 2170              		.loc 1 81 5 discriminator 118 view .LVU375
 2171 0e2c A5F58965 		sub	r5, r5, #1096
 2172 0e30 AC42     		cmp	r4, r5
 2173 0e32 23D0     		beq	.L326
  81:IMU/bsp_spi.c ****     __HAL_DMA_CLEAR_FLAG (hspi1.hdmarx, __HAL_DMA_GET_FE_FLAG_INDEX(hspi1.hdmarx));
 2174              		.loc 1 81 5 discriminator 120 view .LVU376
 2175 0e34 05F58065 		add	r5, r5, #1024
 2176 0e38 AC42     		cmp	r4, r5
 2177 0e3a 22D0     		beq	.L327
  81:IMU/bsp_spi.c ****     __HAL_DMA_CLEAR_FLAG (hspi1.hdmarx, __HAL_DMA_GET_FE_FLAG_INDEX(hspi1.hdmarx));
 2178              		.loc 1 81 5 discriminator 122 view .LVU377
 2179 0e3c A5F56875 		sub	r5, r5, #928
 2180 0e40 AC42     		cmp	r4, r5
 2181 0e42 21D0     		beq	.L328
ARM GAS  C:\Users\xixi\AppData\Local\Temp\ccW01pdv.s 			page 45


  81:IMU/bsp_spi.c ****     __HAL_DMA_CLEAR_FLAG (hspi1.hdmarx, __HAL_DMA_GET_FE_FLAG_INDEX(hspi1.hdmarx));
 2182              		.loc 1 81 5 discriminator 124 view .LVU378
 2183 0e44 05F58065 		add	r5, r5, #1024
 2184 0e48 AC42     		cmp	r4, r5
 2185 0e4a 02D0     		beq	.L602
  81:IMU/bsp_spi.c ****     __HAL_DMA_CLEAR_FLAG (hspi1.hdmarx, __HAL_DMA_GET_FE_FLAG_INDEX(hspi1.hdmarx));
 2186              		.loc 1 81 5 view .LVU379
 2187 0e4c 4FF48004 		mov	r4, #4194304
 2188 0e50 03E0     		b	.L60
 2189              	.L602:
 2190 0e52 4FF48034 		mov	r4, #65536
 2191 0e56 00E0     		b	.L60
 2192              	.L318:
 2193 0e58 0124     		movs	r4, #1
 2194              	.L60:
  81:IMU/bsp_spi.c ****     __HAL_DMA_CLEAR_FLAG (hspi1.hdmarx, __HAL_DMA_GET_FE_FLAG_INDEX(hspi1.hdmarx));
 2195              		.loc 1 81 5 discriminator 151 view .LVU380
 2196 0e5a 0E4D     		ldr	r5, .L631+4
 2197 0e5c EC60     		str	r4, [r5, #12]
 2198 0e5e 13E7     		b	.L56
 2199              	.L319:
  81:IMU/bsp_spi.c ****     __HAL_DMA_CLEAR_FLAG (hspi1.hdmarx, __HAL_DMA_GET_FE_FLAG_INDEX(hspi1.hdmarx));
 2200              		.loc 1 81 5 view .LVU381
 2201 0e60 0124     		movs	r4, #1
 2202 0e62 FAE7     		b	.L60
 2203              	.L320:
 2204 0e64 0124     		movs	r4, #1
 2205 0e66 F8E7     		b	.L60
 2206              	.L321:
 2207 0e68 0124     		movs	r4, #1
 2208 0e6a F6E7     		b	.L60
 2209              	.L322:
 2210 0e6c 4024     		movs	r4, #64
 2211 0e6e F4E7     		b	.L60
 2212              	.L323:
 2213 0e70 4024     		movs	r4, #64
 2214 0e72 F2E7     		b	.L60
 2215              	.L324:
 2216 0e74 4024     		movs	r4, #64
 2217 0e76 F0E7     		b	.L60
 2218              	.L325:
 2219 0e78 4024     		movs	r4, #64
 2220 0e7a EEE7     		b	.L60
 2221              	.L326:
 2222 0e7c 4FF48034 		mov	r4, #65536
 2223 0e80 EBE7     		b	.L60
 2224              	.L327:
 2225 0e82 4FF48034 		mov	r4, #65536
 2226 0e86 E8E7     		b	.L60
 2227              	.L328:
 2228 0e88 4FF48034 		mov	r4, #65536
 2229 0e8c E5E7     		b	.L60
 2230              	.L632:
 2231 0e8e 00BF     		.align	2
 2232              	.L631:
 2233 0e90 10600240 		.word	1073897488
 2234 0e94 00600240 		.word	1073897472
ARM GAS  C:\Users\xixi\AppData\Local\Temp\ccW01pdv.s 			page 46


 2235 0e98 00640240 		.word	1073898496
 2236 0e9c 00000000 		.word	hspi1
 2237 0ea0 58640240 		.word	1073898584
 2238 0ea4 B8600240 		.word	1073897656
 2239 0ea8 58600240 		.word	1073897560
 2240              	.L59:
  81:IMU/bsp_spi.c ****     __HAL_DMA_CLEAR_FLAG (hspi1.hdmarx, __HAL_DMA_GET_FE_FLAG_INDEX(hspi1.hdmarx));
 2241              		.loc 1 81 5 discriminator 103 view .LVU382
 2242 0eac B04D     		ldr	r5, .L633
 2243 0eae AC42     		cmp	r4, r5
 2244 0eb0 31D0     		beq	.L330
  81:IMU/bsp_spi.c ****     __HAL_DMA_CLEAR_FLAG (hspi1.hdmarx, __HAL_DMA_GET_FE_FLAG_INDEX(hspi1.hdmarx));
 2245              		.loc 1 81 5 discriminator 153 view .LVU383
 2246 0eb2 05F58065 		add	r5, r5, #1024
 2247 0eb6 AC42     		cmp	r4, r5
 2248 0eb8 31D0     		beq	.L331
  81:IMU/bsp_spi.c ****     __HAL_DMA_CLEAR_FLAG (hspi1.hdmarx, __HAL_DMA_GET_FE_FLAG_INDEX(hspi1.hdmarx));
 2249              		.loc 1 81 5 discriminator 155 view .LVU384
 2250 0eba A5F56875 		sub	r5, r5, #928
 2251 0ebe AC42     		cmp	r4, r5
 2252 0ec0 2FD0     		beq	.L332
  81:IMU/bsp_spi.c ****     __HAL_DMA_CLEAR_FLAG (hspi1.hdmarx, __HAL_DMA_GET_FE_FLAG_INDEX(hspi1.hdmarx));
 2253              		.loc 1 81 5 discriminator 157 view .LVU385
 2254 0ec2 05F58065 		add	r5, r5, #1024
 2255 0ec6 AC42     		cmp	r4, r5
 2256 0ec8 2DD0     		beq	.L333
  81:IMU/bsp_spi.c ****     __HAL_DMA_CLEAR_FLAG (hspi1.hdmarx, __HAL_DMA_GET_FE_FLAG_INDEX(hspi1.hdmarx));
 2257              		.loc 1 81 5 discriminator 159 view .LVU386
 2258 0eca A5F58965 		sub	r5, r5, #1096
 2259 0ece AC42     		cmp	r4, r5
 2260 0ed0 2BD0     		beq	.L334
  81:IMU/bsp_spi.c ****     __HAL_DMA_CLEAR_FLAG (hspi1.hdmarx, __HAL_DMA_GET_FE_FLAG_INDEX(hspi1.hdmarx));
 2261              		.loc 1 81 5 discriminator 161 view .LVU387
 2262 0ed2 05F58065 		add	r5, r5, #1024
 2263 0ed6 AC42     		cmp	r4, r5
 2264 0ed8 29D0     		beq	.L335
  81:IMU/bsp_spi.c ****     __HAL_DMA_CLEAR_FLAG (hspi1.hdmarx, __HAL_DMA_GET_FE_FLAG_INDEX(hspi1.hdmarx));
 2265              		.loc 1 81 5 discriminator 163 view .LVU388
 2266 0eda A5F56875 		sub	r5, r5, #928
 2267 0ede AC42     		cmp	r4, r5
 2268 0ee0 27D0     		beq	.L336
  81:IMU/bsp_spi.c ****     __HAL_DMA_CLEAR_FLAG (hspi1.hdmarx, __HAL_DMA_GET_FE_FLAG_INDEX(hspi1.hdmarx));
 2269              		.loc 1 81 5 discriminator 165 view .LVU389
 2270 0ee2 05F58065 		add	r5, r5, #1024
 2271 0ee6 AC42     		cmp	r4, r5
 2272 0ee8 25D0     		beq	.L337
  81:IMU/bsp_spi.c ****     __HAL_DMA_CLEAR_FLAG (hspi1.hdmarx, __HAL_DMA_GET_FE_FLAG_INDEX(hspi1.hdmarx));
 2273              		.loc 1 81 5 discriminator 167 view .LVU390
 2274 0eea A5F58965 		sub	r5, r5, #1096
 2275 0eee AC42     		cmp	r4, r5
 2276 0ef0 23D0     		beq	.L338
  81:IMU/bsp_spi.c ****     __HAL_DMA_CLEAR_FLAG (hspi1.hdmarx, __HAL_DMA_GET_FE_FLAG_INDEX(hspi1.hdmarx));
 2277              		.loc 1 81 5 discriminator 169 view .LVU391
 2278 0ef2 05F58065 		add	r5, r5, #1024
 2279 0ef6 AC42     		cmp	r4, r5
 2280 0ef8 22D0     		beq	.L339
  81:IMU/bsp_spi.c ****     __HAL_DMA_CLEAR_FLAG (hspi1.hdmarx, __HAL_DMA_GET_FE_FLAG_INDEX(hspi1.hdmarx));
ARM GAS  C:\Users\xixi\AppData\Local\Temp\ccW01pdv.s 			page 47


 2281              		.loc 1 81 5 discriminator 171 view .LVU392
 2282 0efa A5F56875 		sub	r5, r5, #928
 2283 0efe AC42     		cmp	r4, r5
 2284 0f00 21D0     		beq	.L340
  81:IMU/bsp_spi.c ****     __HAL_DMA_CLEAR_FLAG (hspi1.hdmarx, __HAL_DMA_GET_FE_FLAG_INDEX(hspi1.hdmarx));
 2285              		.loc 1 81 5 discriminator 173 view .LVU393
 2286 0f02 05F58065 		add	r5, r5, #1024
 2287 0f06 AC42     		cmp	r4, r5
 2288 0f08 02D0     		beq	.L603
  81:IMU/bsp_spi.c ****     __HAL_DMA_CLEAR_FLAG (hspi1.hdmarx, __HAL_DMA_GET_FE_FLAG_INDEX(hspi1.hdmarx));
 2289              		.loc 1 81 5 view .LVU394
 2290 0f0a 4FF48004 		mov	r4, #4194304
 2291 0f0e 03E0     		b	.L61
 2292              	.L603:
 2293 0f10 4FF48034 		mov	r4, #65536
 2294 0f14 00E0     		b	.L61
 2295              	.L330:
 2296 0f16 0124     		movs	r4, #1
 2297              	.L61:
  81:IMU/bsp_spi.c ****     __HAL_DMA_CLEAR_FLAG (hspi1.hdmarx, __HAL_DMA_GET_FE_FLAG_INDEX(hspi1.hdmarx));
 2298              		.loc 1 81 5 discriminator 200 view .LVU395
 2299 0f18 964D     		ldr	r5, .L633+4
 2300 0f1a AC60     		str	r4, [r5, #8]
 2301 0f1c B4E6     		b	.L56
 2302              	.L331:
  81:IMU/bsp_spi.c ****     __HAL_DMA_CLEAR_FLAG (hspi1.hdmarx, __HAL_DMA_GET_FE_FLAG_INDEX(hspi1.hdmarx));
 2303              		.loc 1 81 5 view .LVU396
 2304 0f1e 0124     		movs	r4, #1
 2305 0f20 FAE7     		b	.L61
 2306              	.L332:
 2307 0f22 0124     		movs	r4, #1
 2308 0f24 F8E7     		b	.L61
 2309              	.L333:
 2310 0f26 0124     		movs	r4, #1
 2311 0f28 F6E7     		b	.L61
 2312              	.L334:
 2313 0f2a 4024     		movs	r4, #64
 2314 0f2c F4E7     		b	.L61
 2315              	.L335:
 2316 0f2e 4024     		movs	r4, #64
 2317 0f30 F2E7     		b	.L61
 2318              	.L336:
 2319 0f32 4024     		movs	r4, #64
 2320 0f34 F0E7     		b	.L61
 2321              	.L337:
 2322 0f36 4024     		movs	r4, #64
 2323 0f38 EEE7     		b	.L61
 2324              	.L338:
 2325 0f3a 4FF48034 		mov	r4, #65536
 2326 0f3e EBE7     		b	.L61
 2327              	.L339:
 2328 0f40 4FF48034 		mov	r4, #65536
 2329 0f44 E8E7     		b	.L61
 2330              	.L340:
 2331 0f46 4FF48034 		mov	r4, #65536
 2332 0f4a E5E7     		b	.L61
 2333              	.L600:
ARM GAS  C:\Users\xixi\AppData\Local\Temp\ccW01pdv.s 			page 48


 2334              		.loc 1 83 5 view .LVU397
 2335 0f4c 4FF40015 		mov	r5, #2097152
 2336 0f50 00E0     		b	.L63
 2337              	.L342:
 2338 0f52 2025     		movs	r5, #32
 2339              	.L63:
 2340              		.loc 1 83 5 discriminator 50 view .LVU398
 2341 0f54 884C     		ldr	r4, .L633+8
 2342 0f56 E560     		str	r5, [r4, #12]
 2343              	.L64:
  84:IMU/bsp_spi.c ****     __HAL_DMA_CLEAR_FLAG (hspi1.hdmatx, __HAL_DMA_GET_HT_FLAG_INDEX(hspi1.hdmatx));
 2344              		.loc 1 84 5 is_stmt 1 view .LVU399
 2345 0f58 884C     		ldr	r4, .L633+12
 2346 0f5a A46C     		ldr	r4, [r4, #72]
 2347 0f5c 2468     		ldr	r4, [r4]
 2348 0f5e 884D     		ldr	r5, .L633+16
 2349 0f60 AC42     		cmp	r4, r5
 2350 0f62 40F2D181 		bls	.L70
 2351              		.loc 1 84 5 is_stmt 0 discriminator 1 view .LVU400
 2352 0f66 A5F58965 		sub	r5, r5, #1096
 2353 0f6a AC42     		cmp	r4, r5
 2354 0f6c 00F06881 		beq	.L390
 2355              		.loc 1 84 5 discriminator 3 view .LVU401
 2356 0f70 05F58065 		add	r5, r5, #1024
 2357 0f74 AC42     		cmp	r4, r5
 2358 0f76 00F0AC81 		beq	.L391
 2359              		.loc 1 84 5 discriminator 5 view .LVU402
 2360 0f7a A5F56875 		sub	r5, r5, #928
 2361 0f7e AC42     		cmp	r4, r5
 2362 0f80 00F0A981 		beq	.L392
 2363              		.loc 1 84 5 discriminator 7 view .LVU403
 2364 0f84 05F58065 		add	r5, r5, #1024
 2365 0f88 AC42     		cmp	r4, r5
 2366 0f8a 00F0A681 		beq	.L393
 2367              		.loc 1 84 5 discriminator 9 view .LVU404
 2368 0f8e A5F58965 		sub	r5, r5, #1096
 2369 0f92 AC42     		cmp	r4, r5
 2370 0f94 00F0A381 		beq	.L394
 2371              		.loc 1 84 5 discriminator 11 view .LVU405
 2372 0f98 05F58065 		add	r5, r5, #1024
 2373 0f9c AC42     		cmp	r4, r5
 2374 0f9e 00F0A181 		beq	.L395
 2375              		.loc 1 84 5 discriminator 13 view .LVU406
 2376 0fa2 A5F56875 		sub	r5, r5, #928
 2377 0fa6 AC42     		cmp	r4, r5
 2378 0fa8 00F09F81 		beq	.L396
 2379              		.loc 1 84 5 discriminator 15 view .LVU407
 2380 0fac 05F58065 		add	r5, r5, #1024
 2381 0fb0 AC42     		cmp	r4, r5
 2382 0fb2 00F09D81 		beq	.L397
 2383              		.loc 1 84 5 discriminator 17 view .LVU408
 2384 0fb6 A5F58965 		sub	r5, r5, #1096
 2385 0fba AC42     		cmp	r4, r5
 2386 0fbc 00F09B81 		beq	.L398
 2387              		.loc 1 84 5 discriminator 19 view .LVU409
 2388 0fc0 05F58065 		add	r5, r5, #1024
 2389 0fc4 AC42     		cmp	r4, r5
ARM GAS  C:\Users\xixi\AppData\Local\Temp\ccW01pdv.s 			page 49


 2390 0fc6 00F09981 		beq	.L399
 2391              		.loc 1 84 5 discriminator 21 view .LVU410
 2392 0fca A5F56875 		sub	r5, r5, #928
 2393 0fce AC42     		cmp	r4, r5
 2394 0fd0 00F09781 		beq	.L400
 2395              		.loc 1 84 5 discriminator 23 view .LVU411
 2396 0fd4 05F58065 		add	r5, r5, #1024
 2397 0fd8 AC42     		cmp	r4, r5
 2398 0fda 00F02E81 		beq	.L604
 2399              		.loc 1 84 5 view .LVU412
 2400 0fde 4FF08065 		mov	r5, #67108864
 2401 0fe2 2EE1     		b	.L71
 2402              	.L343:
  83:IMU/bsp_spi.c ****     __HAL_DMA_CLEAR_FLAG (hspi1.hdmatx, __HAL_DMA_GET_HT_FLAG_INDEX(hspi1.hdmatx));
 2403              		.loc 1 83 5 view .LVU413
 2404 0fe4 2025     		movs	r5, #32
 2405 0fe6 B5E7     		b	.L63
 2406              	.L344:
 2407 0fe8 2025     		movs	r5, #32
 2408 0fea B3E7     		b	.L63
 2409              	.L345:
 2410 0fec 2025     		movs	r5, #32
 2411 0fee B1E7     		b	.L63
 2412              	.L346:
 2413 0ff0 4FF40065 		mov	r5, #2048
 2414 0ff4 AEE7     		b	.L63
 2415              	.L347:
 2416 0ff6 4FF40065 		mov	r5, #2048
 2417 0ffa ABE7     		b	.L63
 2418              	.L348:
 2419 0ffc 4FF40065 		mov	r5, #2048
 2420 1000 A8E7     		b	.L63
 2421              	.L349:
 2422 1002 4FF40065 		mov	r5, #2048
 2423 1006 A5E7     		b	.L63
 2424              	.L350:
 2425 1008 4FF40015 		mov	r5, #2097152
 2426 100c A2E7     		b	.L63
 2427              	.L351:
 2428 100e 4FF40015 		mov	r5, #2097152
 2429 1012 9FE7     		b	.L63
 2430              	.L352:
 2431 1014 4FF40015 		mov	r5, #2097152
 2432 1018 9CE7     		b	.L63
 2433              	.L62:
  83:IMU/bsp_spi.c ****     __HAL_DMA_CLEAR_FLAG (hspi1.hdmatx, __HAL_DMA_GET_HT_FLAG_INDEX(hspi1.hdmatx));
 2434              		.loc 1 83 5 discriminator 2 view .LVU414
 2435 101a 5A4D     		ldr	r5, .L633+20
 2436 101c AC42     		cmp	r4, r5
 2437 101e 53D9     		bls	.L65
  83:IMU/bsp_spi.c ****     __HAL_DMA_CLEAR_FLAG (hspi1.hdmatx, __HAL_DMA_GET_HT_FLAG_INDEX(hspi1.hdmatx));
 2438              		.loc 1 83 5 discriminator 51 view .LVU415
 2439 1020 A83D     		subs	r5, r5, #168
 2440 1022 AC42     		cmp	r4, r5
 2441 1024 31D0     		beq	.L354
  83:IMU/bsp_spi.c ****     __HAL_DMA_CLEAR_FLAG (hspi1.hdmatx, __HAL_DMA_GET_HT_FLAG_INDEX(hspi1.hdmatx));
 2442              		.loc 1 83 5 discriminator 53 view .LVU416
ARM GAS  C:\Users\xixi\AppData\Local\Temp\ccW01pdv.s 			page 50


 2443 1026 05F58065 		add	r5, r5, #1024
 2444 102a AC42     		cmp	r4, r5
 2445 102c 31D0     		beq	.L355
  83:IMU/bsp_spi.c ****     __HAL_DMA_CLEAR_FLAG (hspi1.hdmatx, __HAL_DMA_GET_HT_FLAG_INDEX(hspi1.hdmatx));
 2446              		.loc 1 83 5 discriminator 55 view .LVU417
 2447 102e A5F56875 		sub	r5, r5, #928
 2448 1032 AC42     		cmp	r4, r5
 2449 1034 2FD0     		beq	.L356
  83:IMU/bsp_spi.c ****     __HAL_DMA_CLEAR_FLAG (hspi1.hdmatx, __HAL_DMA_GET_HT_FLAG_INDEX(hspi1.hdmatx));
 2450              		.loc 1 83 5 discriminator 57 view .LVU418
 2451 1036 05F58065 		add	r5, r5, #1024
 2452 103a AC42     		cmp	r4, r5
 2453 103c 2DD0     		beq	.L357
  83:IMU/bsp_spi.c ****     __HAL_DMA_CLEAR_FLAG (hspi1.hdmatx, __HAL_DMA_GET_HT_FLAG_INDEX(hspi1.hdmatx));
 2454              		.loc 1 83 5 discriminator 59 view .LVU419
 2455 103e A5F58965 		sub	r5, r5, #1096
 2456 1042 AC42     		cmp	r4, r5
 2457 1044 2BD0     		beq	.L358
  83:IMU/bsp_spi.c ****     __HAL_DMA_CLEAR_FLAG (hspi1.hdmatx, __HAL_DMA_GET_HT_FLAG_INDEX(hspi1.hdmatx));
 2458              		.loc 1 83 5 discriminator 61 view .LVU420
 2459 1046 05F58065 		add	r5, r5, #1024
 2460 104a AC42     		cmp	r4, r5
 2461 104c 2AD0     		beq	.L359
  83:IMU/bsp_spi.c ****     __HAL_DMA_CLEAR_FLAG (hspi1.hdmatx, __HAL_DMA_GET_HT_FLAG_INDEX(hspi1.hdmatx));
 2462              		.loc 1 83 5 discriminator 63 view .LVU421
 2463 104e A5F56875 		sub	r5, r5, #928
 2464 1052 AC42     		cmp	r4, r5
 2465 1054 29D0     		beq	.L360
  83:IMU/bsp_spi.c ****     __HAL_DMA_CLEAR_FLAG (hspi1.hdmatx, __HAL_DMA_GET_HT_FLAG_INDEX(hspi1.hdmatx));
 2466              		.loc 1 83 5 discriminator 65 view .LVU422
 2467 1056 05F58065 		add	r5, r5, #1024
 2468 105a AC42     		cmp	r4, r5
 2469 105c 28D0     		beq	.L361
  83:IMU/bsp_spi.c ****     __HAL_DMA_CLEAR_FLAG (hspi1.hdmatx, __HAL_DMA_GET_HT_FLAG_INDEX(hspi1.hdmatx));
 2470              		.loc 1 83 5 discriminator 67 view .LVU423
 2471 105e A5F58965 		sub	r5, r5, #1096
 2472 1062 AC42     		cmp	r4, r5
 2473 1064 27D0     		beq	.L362
  83:IMU/bsp_spi.c ****     __HAL_DMA_CLEAR_FLAG (hspi1.hdmatx, __HAL_DMA_GET_HT_FLAG_INDEX(hspi1.hdmatx));
 2474              		.loc 1 83 5 discriminator 69 view .LVU424
 2475 1066 05F58065 		add	r5, r5, #1024
 2476 106a AC42     		cmp	r4, r5
 2477 106c 26D0     		beq	.L363
  83:IMU/bsp_spi.c ****     __HAL_DMA_CLEAR_FLAG (hspi1.hdmatx, __HAL_DMA_GET_HT_FLAG_INDEX(hspi1.hdmatx));
 2478              		.loc 1 83 5 discriminator 71 view .LVU425
 2479 106e A5F56875 		sub	r5, r5, #928
 2480 1072 AC42     		cmp	r4, r5
 2481 1074 25D0     		beq	.L364
  83:IMU/bsp_spi.c ****     __HAL_DMA_CLEAR_FLAG (hspi1.hdmatx, __HAL_DMA_GET_HT_FLAG_INDEX(hspi1.hdmatx));
 2482              		.loc 1 83 5 discriminator 73 view .LVU426
 2483 1076 05F58065 		add	r5, r5, #1024
 2484 107a AC42     		cmp	r4, r5
 2485 107c 02D0     		beq	.L605
  83:IMU/bsp_spi.c ****     __HAL_DMA_CLEAR_FLAG (hspi1.hdmatx, __HAL_DMA_GET_HT_FLAG_INDEX(hspi1.hdmatx));
 2486              		.loc 1 83 5 view .LVU427
 2487 107e 4FF00064 		mov	r4, #134217728
 2488 1082 03E0     		b	.L66
ARM GAS  C:\Users\xixi\AppData\Local\Temp\ccW01pdv.s 			page 51


 2489              	.L605:
 2490 1084 4FF40014 		mov	r4, #2097152
 2491 1088 00E0     		b	.L66
 2492              	.L354:
 2493 108a 2024     		movs	r4, #32
 2494              	.L66:
  83:IMU/bsp_spi.c ****     __HAL_DMA_CLEAR_FLAG (hspi1.hdmatx, __HAL_DMA_GET_HT_FLAG_INDEX(hspi1.hdmatx));
 2495              		.loc 1 83 5 discriminator 100 view .LVU428
 2496 108c 3A4D     		ldr	r5, .L633+8
 2497 108e AC60     		str	r4, [r5, #8]
 2498 1090 62E7     		b	.L64
 2499              	.L355:
  83:IMU/bsp_spi.c ****     __HAL_DMA_CLEAR_FLAG (hspi1.hdmatx, __HAL_DMA_GET_HT_FLAG_INDEX(hspi1.hdmatx));
 2500              		.loc 1 83 5 view .LVU429
 2501 1092 2024     		movs	r4, #32
 2502 1094 FAE7     		b	.L66
 2503              	.L356:
 2504 1096 2024     		movs	r4, #32
 2505 1098 F8E7     		b	.L66
 2506              	.L357:
 2507 109a 2024     		movs	r4, #32
 2508 109c F6E7     		b	.L66
 2509              	.L358:
 2510 109e 4FF40064 		mov	r4, #2048
 2511 10a2 F3E7     		b	.L66
 2512              	.L359:
 2513 10a4 4FF40064 		mov	r4, #2048
 2514 10a8 F0E7     		b	.L66
 2515              	.L360:
 2516 10aa 4FF40064 		mov	r4, #2048
 2517 10ae EDE7     		b	.L66
 2518              	.L361:
 2519 10b0 4FF40064 		mov	r4, #2048
 2520 10b4 EAE7     		b	.L66
 2521              	.L362:
 2522 10b6 4FF40014 		mov	r4, #2097152
 2523 10ba E7E7     		b	.L66
 2524              	.L363:
 2525 10bc 4FF40014 		mov	r4, #2097152
 2526 10c0 E4E7     		b	.L66
 2527              	.L364:
 2528 10c2 4FF40014 		mov	r4, #2097152
 2529 10c6 E1E7     		b	.L66
 2530              	.L65:
  83:IMU/bsp_spi.c ****     __HAL_DMA_CLEAR_FLAG (hspi1.hdmatx, __HAL_DMA_GET_HT_FLAG_INDEX(hspi1.hdmatx));
 2531              		.loc 1 83 5 discriminator 52 view .LVU430
 2532 10c8 2F4D     		ldr	r5, .L633+24
 2533 10ca AC42     		cmp	r4, r5
 2534 10cc 61D9     		bls	.L67
  83:IMU/bsp_spi.c ****     __HAL_DMA_CLEAR_FLAG (hspi1.hdmatx, __HAL_DMA_GET_HT_FLAG_INDEX(hspi1.hdmatx));
 2535              		.loc 1 83 5 discriminator 102 view .LVU431
 2536 10ce 483D     		subs	r5, r5, #72
 2537 10d0 AC42     		cmp	r4, r5
 2538 10d2 31D0     		beq	.L366
  83:IMU/bsp_spi.c ****     __HAL_DMA_CLEAR_FLAG (hspi1.hdmatx, __HAL_DMA_GET_HT_FLAG_INDEX(hspi1.hdmatx));
 2539              		.loc 1 83 5 discriminator 104 view .LVU432
 2540 10d4 05F58065 		add	r5, r5, #1024
ARM GAS  C:\Users\xixi\AppData\Local\Temp\ccW01pdv.s 			page 52


 2541 10d8 AC42     		cmp	r4, r5
 2542 10da 31D0     		beq	.L367
  83:IMU/bsp_spi.c ****     __HAL_DMA_CLEAR_FLAG (hspi1.hdmatx, __HAL_DMA_GET_HT_FLAG_INDEX(hspi1.hdmatx));
 2543              		.loc 1 83 5 discriminator 106 view .LVU433
 2544 10dc A5F56875 		sub	r5, r5, #928
 2545 10e0 AC42     		cmp	r4, r5
 2546 10e2 2FD0     		beq	.L368
  83:IMU/bsp_spi.c ****     __HAL_DMA_CLEAR_FLAG (hspi1.hdmatx, __HAL_DMA_GET_HT_FLAG_INDEX(hspi1.hdmatx));
 2547              		.loc 1 83 5 discriminator 108 view .LVU434
 2548 10e4 05F58065 		add	r5, r5, #1024
 2549 10e8 AC42     		cmp	r4, r5
 2550 10ea 2DD0     		beq	.L369
  83:IMU/bsp_spi.c ****     __HAL_DMA_CLEAR_FLAG (hspi1.hdmatx, __HAL_DMA_GET_HT_FLAG_INDEX(hspi1.hdmatx));
 2551              		.loc 1 83 5 discriminator 110 view .LVU435
 2552 10ec A5F58965 		sub	r5, r5, #1096
 2553 10f0 AC42     		cmp	r4, r5
 2554 10f2 2BD0     		beq	.L370
  83:IMU/bsp_spi.c ****     __HAL_DMA_CLEAR_FLAG (hspi1.hdmatx, __HAL_DMA_GET_HT_FLAG_INDEX(hspi1.hdmatx));
 2555              		.loc 1 83 5 discriminator 112 view .LVU436
 2556 10f4 05F58065 		add	r5, r5, #1024
 2557 10f8 AC42     		cmp	r4, r5
 2558 10fa 2AD0     		beq	.L371
  83:IMU/bsp_spi.c ****     __HAL_DMA_CLEAR_FLAG (hspi1.hdmatx, __HAL_DMA_GET_HT_FLAG_INDEX(hspi1.hdmatx));
 2559              		.loc 1 83 5 discriminator 114 view .LVU437
 2560 10fc A5F56875 		sub	r5, r5, #928
 2561 1100 AC42     		cmp	r4, r5
 2562 1102 29D0     		beq	.L372
  83:IMU/bsp_spi.c ****     __HAL_DMA_CLEAR_FLAG (hspi1.hdmatx, __HAL_DMA_GET_HT_FLAG_INDEX(hspi1.hdmatx));
 2563              		.loc 1 83 5 discriminator 116 view .LVU438
 2564 1104 05F58065 		add	r5, r5, #1024
 2565 1108 AC42     		cmp	r4, r5
 2566 110a 28D0     		beq	.L373
  83:IMU/bsp_spi.c ****     __HAL_DMA_CLEAR_FLAG (hspi1.hdmatx, __HAL_DMA_GET_HT_FLAG_INDEX(hspi1.hdmatx));
 2567              		.loc 1 83 5 discriminator 118 view .LVU439
 2568 110c A5F58965 		sub	r5, r5, #1096
 2569 1110 AC42     		cmp	r4, r5
 2570 1112 27D0     		beq	.L374
  83:IMU/bsp_spi.c ****     __HAL_DMA_CLEAR_FLAG (hspi1.hdmatx, __HAL_DMA_GET_HT_FLAG_INDEX(hspi1.hdmatx));
 2571              		.loc 1 83 5 discriminator 120 view .LVU440
 2572 1114 05F58065 		add	r5, r5, #1024
 2573 1118 AC42     		cmp	r4, r5
 2574 111a 26D0     		beq	.L375
  83:IMU/bsp_spi.c ****     __HAL_DMA_CLEAR_FLAG (hspi1.hdmatx, __HAL_DMA_GET_HT_FLAG_INDEX(hspi1.hdmatx));
 2575              		.loc 1 83 5 discriminator 122 view .LVU441
 2576 111c A5F56875 		sub	r5, r5, #928
 2577 1120 AC42     		cmp	r4, r5
 2578 1122 33D0     		beq	.L376
  83:IMU/bsp_spi.c ****     __HAL_DMA_CLEAR_FLAG (hspi1.hdmatx, __HAL_DMA_GET_HT_FLAG_INDEX(hspi1.hdmatx));
 2579              		.loc 1 83 5 discriminator 124 view .LVU442
 2580 1124 05F58065 		add	r5, r5, #1024
 2581 1128 AC42     		cmp	r4, r5
 2582 112a 02D0     		beq	.L606
  83:IMU/bsp_spi.c ****     __HAL_DMA_CLEAR_FLAG (hspi1.hdmatx, __HAL_DMA_GET_HT_FLAG_INDEX(hspi1.hdmatx));
 2583              		.loc 1 83 5 view .LVU443
 2584 112c 4FF00064 		mov	r4, #134217728
 2585 1130 03E0     		b	.L68
 2586              	.L606:
ARM GAS  C:\Users\xixi\AppData\Local\Temp\ccW01pdv.s 			page 53


 2587 1132 4FF40014 		mov	r4, #2097152
 2588 1136 00E0     		b	.L68
 2589              	.L366:
 2590 1138 2024     		movs	r4, #32
 2591              	.L68:
  83:IMU/bsp_spi.c ****     __HAL_DMA_CLEAR_FLAG (hspi1.hdmatx, __HAL_DMA_GET_HT_FLAG_INDEX(hspi1.hdmatx));
 2592              		.loc 1 83 5 discriminator 151 view .LVU444
 2593 113a 0E4D     		ldr	r5, .L633+4
 2594 113c EC60     		str	r4, [r5, #12]
 2595 113e 0BE7     		b	.L64
 2596              	.L367:
  83:IMU/bsp_spi.c ****     __HAL_DMA_CLEAR_FLAG (hspi1.hdmatx, __HAL_DMA_GET_HT_FLAG_INDEX(hspi1.hdmatx));
 2597              		.loc 1 83 5 view .LVU445
 2598 1140 2024     		movs	r4, #32
 2599 1142 FAE7     		b	.L68
 2600              	.L368:
 2601 1144 2024     		movs	r4, #32
 2602 1146 F8E7     		b	.L68
 2603              	.L369:
 2604 1148 2024     		movs	r4, #32
 2605 114a F6E7     		b	.L68
 2606              	.L370:
 2607 114c 4FF40064 		mov	r4, #2048
 2608 1150 F3E7     		b	.L68
 2609              	.L371:
 2610 1152 4FF40064 		mov	r4, #2048
 2611 1156 F0E7     		b	.L68
 2612              	.L372:
 2613 1158 4FF40064 		mov	r4, #2048
 2614 115c EDE7     		b	.L68
 2615              	.L373:
 2616 115e 4FF40064 		mov	r4, #2048
 2617 1162 EAE7     		b	.L68
 2618              	.L374:
 2619 1164 4FF40014 		mov	r4, #2097152
 2620 1168 E7E7     		b	.L68
 2621              	.L375:
 2622 116a 4FF40014 		mov	r4, #2097152
 2623 116e E4E7     		b	.L68
 2624              	.L634:
 2625              		.align	2
 2626              	.L633:
 2627 1170 10600240 		.word	1073897488
 2628 1174 00600240 		.word	1073897472
 2629 1178 00640240 		.word	1073898496
 2630 117c 00000000 		.word	hspi1
 2631 1180 58640240 		.word	1073898584
 2632 1184 B8600240 		.word	1073897656
 2633 1188 58600240 		.word	1073897560
 2634              	.L376:
 2635 118c 4FF40014 		mov	r4, #2097152
 2636 1190 D3E7     		b	.L68
 2637              	.L67:
  83:IMU/bsp_spi.c ****     __HAL_DMA_CLEAR_FLAG (hspi1.hdmatx, __HAL_DMA_GET_HT_FLAG_INDEX(hspi1.hdmatx));
 2638              		.loc 1 83 5 discriminator 103 view .LVU446
 2639 1192 B14D     		ldr	r5, .L635
 2640 1194 AC42     		cmp	r4, r5
ARM GAS  C:\Users\xixi\AppData\Local\Temp\ccW01pdv.s 			page 54


 2641 1196 31D0     		beq	.L378
  83:IMU/bsp_spi.c ****     __HAL_DMA_CLEAR_FLAG (hspi1.hdmatx, __HAL_DMA_GET_HT_FLAG_INDEX(hspi1.hdmatx));
 2642              		.loc 1 83 5 discriminator 153 view .LVU447
 2643 1198 05F58065 		add	r5, r5, #1024
 2644 119c AC42     		cmp	r4, r5
 2645 119e 31D0     		beq	.L379
  83:IMU/bsp_spi.c ****     __HAL_DMA_CLEAR_FLAG (hspi1.hdmatx, __HAL_DMA_GET_HT_FLAG_INDEX(hspi1.hdmatx));
 2646              		.loc 1 83 5 discriminator 155 view .LVU448
 2647 11a0 A5F56875 		sub	r5, r5, #928
 2648 11a4 AC42     		cmp	r4, r5
 2649 11a6 2FD0     		beq	.L380
  83:IMU/bsp_spi.c ****     __HAL_DMA_CLEAR_FLAG (hspi1.hdmatx, __HAL_DMA_GET_HT_FLAG_INDEX(hspi1.hdmatx));
 2650              		.loc 1 83 5 discriminator 157 view .LVU449
 2651 11a8 05F58065 		add	r5, r5, #1024
 2652 11ac AC42     		cmp	r4, r5
 2653 11ae 2DD0     		beq	.L381
  83:IMU/bsp_spi.c ****     __HAL_DMA_CLEAR_FLAG (hspi1.hdmatx, __HAL_DMA_GET_HT_FLAG_INDEX(hspi1.hdmatx));
 2654              		.loc 1 83 5 discriminator 159 view .LVU450
 2655 11b0 A5F58965 		sub	r5, r5, #1096
 2656 11b4 AC42     		cmp	r4, r5
 2657 11b6 2BD0     		beq	.L382
  83:IMU/bsp_spi.c ****     __HAL_DMA_CLEAR_FLAG (hspi1.hdmatx, __HAL_DMA_GET_HT_FLAG_INDEX(hspi1.hdmatx));
 2658              		.loc 1 83 5 discriminator 161 view .LVU451
 2659 11b8 05F58065 		add	r5, r5, #1024
 2660 11bc AC42     		cmp	r4, r5
 2661 11be 2AD0     		beq	.L383
  83:IMU/bsp_spi.c ****     __HAL_DMA_CLEAR_FLAG (hspi1.hdmatx, __HAL_DMA_GET_HT_FLAG_INDEX(hspi1.hdmatx));
 2662              		.loc 1 83 5 discriminator 163 view .LVU452
 2663 11c0 A5F56875 		sub	r5, r5, #928
 2664 11c4 AC42     		cmp	r4, r5
 2665 11c6 29D0     		beq	.L384
  83:IMU/bsp_spi.c ****     __HAL_DMA_CLEAR_FLAG (hspi1.hdmatx, __HAL_DMA_GET_HT_FLAG_INDEX(hspi1.hdmatx));
 2666              		.loc 1 83 5 discriminator 165 view .LVU453
 2667 11c8 05F58065 		add	r5, r5, #1024
 2668 11cc AC42     		cmp	r4, r5
 2669 11ce 28D0     		beq	.L385
  83:IMU/bsp_spi.c ****     __HAL_DMA_CLEAR_FLAG (hspi1.hdmatx, __HAL_DMA_GET_HT_FLAG_INDEX(hspi1.hdmatx));
 2670              		.loc 1 83 5 discriminator 167 view .LVU454
 2671 11d0 A5F58965 		sub	r5, r5, #1096
 2672 11d4 AC42     		cmp	r4, r5
 2673 11d6 27D0     		beq	.L386
  83:IMU/bsp_spi.c ****     __HAL_DMA_CLEAR_FLAG (hspi1.hdmatx, __HAL_DMA_GET_HT_FLAG_INDEX(hspi1.hdmatx));
 2674              		.loc 1 83 5 discriminator 169 view .LVU455
 2675 11d8 05F58065 		add	r5, r5, #1024
 2676 11dc AC42     		cmp	r4, r5
 2677 11de 26D0     		beq	.L387
  83:IMU/bsp_spi.c ****     __HAL_DMA_CLEAR_FLAG (hspi1.hdmatx, __HAL_DMA_GET_HT_FLAG_INDEX(hspi1.hdmatx));
 2678              		.loc 1 83 5 discriminator 171 view .LVU456
 2679 11e0 A5F56875 		sub	r5, r5, #928
 2680 11e4 AC42     		cmp	r4, r5
 2681 11e6 25D0     		beq	.L388
  83:IMU/bsp_spi.c ****     __HAL_DMA_CLEAR_FLAG (hspi1.hdmatx, __HAL_DMA_GET_HT_FLAG_INDEX(hspi1.hdmatx));
 2682              		.loc 1 83 5 discriminator 173 view .LVU457
 2683 11e8 05F58065 		add	r5, r5, #1024
 2684 11ec AC42     		cmp	r4, r5
 2685 11ee 02D0     		beq	.L607
  83:IMU/bsp_spi.c ****     __HAL_DMA_CLEAR_FLAG (hspi1.hdmatx, __HAL_DMA_GET_HT_FLAG_INDEX(hspi1.hdmatx));
ARM GAS  C:\Users\xixi\AppData\Local\Temp\ccW01pdv.s 			page 55


 2686              		.loc 1 83 5 view .LVU458
 2687 11f0 4FF00064 		mov	r4, #134217728
 2688 11f4 03E0     		b	.L69
 2689              	.L607:
 2690 11f6 4FF40014 		mov	r4, #2097152
 2691 11fa 00E0     		b	.L69
 2692              	.L378:
 2693 11fc 2024     		movs	r4, #32
 2694              	.L69:
  83:IMU/bsp_spi.c ****     __HAL_DMA_CLEAR_FLAG (hspi1.hdmatx, __HAL_DMA_GET_HT_FLAG_INDEX(hspi1.hdmatx));
 2695              		.loc 1 83 5 discriminator 200 view .LVU459
 2696 11fe 974D     		ldr	r5, .L635+4
 2697 1200 AC60     		str	r4, [r5, #8]
 2698 1202 A9E6     		b	.L64
 2699              	.L379:
  83:IMU/bsp_spi.c ****     __HAL_DMA_CLEAR_FLAG (hspi1.hdmatx, __HAL_DMA_GET_HT_FLAG_INDEX(hspi1.hdmatx));
 2700              		.loc 1 83 5 view .LVU460
 2701 1204 2024     		movs	r4, #32
 2702 1206 FAE7     		b	.L69
 2703              	.L380:
 2704 1208 2024     		movs	r4, #32
 2705 120a F8E7     		b	.L69
 2706              	.L381:
 2707 120c 2024     		movs	r4, #32
 2708 120e F6E7     		b	.L69
 2709              	.L382:
 2710 1210 4FF40064 		mov	r4, #2048
 2711 1214 F3E7     		b	.L69
 2712              	.L383:
 2713 1216 4FF40064 		mov	r4, #2048
 2714 121a F0E7     		b	.L69
 2715              	.L384:
 2716 121c 4FF40064 		mov	r4, #2048
 2717 1220 EDE7     		b	.L69
 2718              	.L385:
 2719 1222 4FF40064 		mov	r4, #2048
 2720 1226 EAE7     		b	.L69
 2721              	.L386:
 2722 1228 4FF40014 		mov	r4, #2097152
 2723 122c E7E7     		b	.L69
 2724              	.L387:
 2725 122e 4FF40014 		mov	r4, #2097152
 2726 1232 E4E7     		b	.L69
 2727              	.L388:
 2728 1234 4FF40014 		mov	r4, #2097152
 2729 1238 E1E7     		b	.L69
 2730              	.L604:
 2731              		.loc 1 84 5 view .LVU461
 2732 123a 4FF48015 		mov	r5, #1048576
 2733 123e 00E0     		b	.L71
 2734              	.L390:
 2735 1240 1025     		movs	r5, #16
 2736              	.L71:
 2737              		.loc 1 84 5 discriminator 50 view .LVU462
 2738 1242 874C     		ldr	r4, .L635+8
 2739 1244 E560     		str	r5, [r4, #12]
 2740              	.L72:
ARM GAS  C:\Users\xixi\AppData\Local\Temp\ccW01pdv.s 			page 56


  85:IMU/bsp_spi.c ****     __HAL_DMA_CLEAR_FLAG (hspi1.hdmatx, __HAL_DMA_GET_TE_FLAG_INDEX(hspi1.hdmatx));
 2741              		.loc 1 85 5 is_stmt 1 view .LVU463
 2742 1246 874C     		ldr	r4, .L635+12
 2743 1248 A46C     		ldr	r4, [r4, #72]
 2744 124a 2468     		ldr	r4, [r4]
 2745 124c 864D     		ldr	r5, .L635+16
 2746 124e AC42     		cmp	r4, r5
 2747 1250 40F2D181 		bls	.L78
 2748              		.loc 1 85 5 is_stmt 0 discriminator 1 view .LVU464
 2749 1254 A5F58965 		sub	r5, r5, #1096
 2750 1258 AC42     		cmp	r4, r5
 2751 125a 00F06881 		beq	.L438
 2752              		.loc 1 85 5 discriminator 3 view .LVU465
 2753 125e 05F58065 		add	r5, r5, #1024
 2754 1262 AC42     		cmp	r4, r5
 2755 1264 00F0AC81 		beq	.L439
 2756              		.loc 1 85 5 discriminator 5 view .LVU466
 2757 1268 A5F56875 		sub	r5, r5, #928
 2758 126c AC42     		cmp	r4, r5
 2759 126e 00F0A981 		beq	.L440
 2760              		.loc 1 85 5 discriminator 7 view .LVU467
 2761 1272 05F58065 		add	r5, r5, #1024
 2762 1276 AC42     		cmp	r4, r5
 2763 1278 00F0A681 		beq	.L441
 2764              		.loc 1 85 5 discriminator 9 view .LVU468
 2765 127c A5F58965 		sub	r5, r5, #1096
 2766 1280 AC42     		cmp	r4, r5
 2767 1282 00F0A381 		beq	.L442
 2768              		.loc 1 85 5 discriminator 11 view .LVU469
 2769 1286 05F58065 		add	r5, r5, #1024
 2770 128a AC42     		cmp	r4, r5
 2771 128c 00F0A181 		beq	.L443
 2772              		.loc 1 85 5 discriminator 13 view .LVU470
 2773 1290 A5F56875 		sub	r5, r5, #928
 2774 1294 AC42     		cmp	r4, r5
 2775 1296 00F09F81 		beq	.L444
 2776              		.loc 1 85 5 discriminator 15 view .LVU471
 2777 129a 05F58065 		add	r5, r5, #1024
 2778 129e AC42     		cmp	r4, r5
 2779 12a0 00F09D81 		beq	.L445
 2780              		.loc 1 85 5 discriminator 17 view .LVU472
 2781 12a4 A5F58965 		sub	r5, r5, #1096
 2782 12a8 AC42     		cmp	r4, r5
 2783 12aa 00F09B81 		beq	.L446
 2784              		.loc 1 85 5 discriminator 19 view .LVU473
 2785 12ae 05F58065 		add	r5, r5, #1024
 2786 12b2 AC42     		cmp	r4, r5
 2787 12b4 00F09981 		beq	.L447
 2788              		.loc 1 85 5 discriminator 21 view .LVU474
 2789 12b8 A5F56875 		sub	r5, r5, #928
 2790 12bc AC42     		cmp	r4, r5
 2791 12be 00F09781 		beq	.L448
 2792              		.loc 1 85 5 discriminator 23 view .LVU475
 2793 12c2 05F58065 		add	r5, r5, #1024
 2794 12c6 AC42     		cmp	r4, r5
 2795 12c8 00F02E81 		beq	.L608
 2796              		.loc 1 85 5 view .LVU476
ARM GAS  C:\Users\xixi\AppData\Local\Temp\ccW01pdv.s 			page 57


 2797 12cc 4FF00075 		mov	r5, #33554432
 2798 12d0 2EE1     		b	.L79
 2799              	.L391:
  84:IMU/bsp_spi.c ****     __HAL_DMA_CLEAR_FLAG (hspi1.hdmatx, __HAL_DMA_GET_HT_FLAG_INDEX(hspi1.hdmatx));
 2800              		.loc 1 84 5 view .LVU477
 2801 12d2 1025     		movs	r5, #16
 2802 12d4 B5E7     		b	.L71
 2803              	.L392:
 2804 12d6 1025     		movs	r5, #16
 2805 12d8 B3E7     		b	.L71
 2806              	.L393:
 2807 12da 1025     		movs	r5, #16
 2808 12dc B1E7     		b	.L71
 2809              	.L394:
 2810 12de 4FF48065 		mov	r5, #1024
 2811 12e2 AEE7     		b	.L71
 2812              	.L395:
 2813 12e4 4FF48065 		mov	r5, #1024
 2814 12e8 ABE7     		b	.L71
 2815              	.L396:
 2816 12ea 4FF48065 		mov	r5, #1024
 2817 12ee A8E7     		b	.L71
 2818              	.L397:
 2819 12f0 4FF48065 		mov	r5, #1024
 2820 12f4 A5E7     		b	.L71
 2821              	.L398:
 2822 12f6 4FF48015 		mov	r5, #1048576
 2823 12fa A2E7     		b	.L71
 2824              	.L399:
 2825 12fc 4FF48015 		mov	r5, #1048576
 2826 1300 9FE7     		b	.L71
 2827              	.L400:
 2828 1302 4FF48015 		mov	r5, #1048576
 2829 1306 9CE7     		b	.L71
 2830              	.L70:
  84:IMU/bsp_spi.c ****     __HAL_DMA_CLEAR_FLAG (hspi1.hdmatx, __HAL_DMA_GET_HT_FLAG_INDEX(hspi1.hdmatx));
 2831              		.loc 1 84 5 discriminator 2 view .LVU478
 2832 1308 584D     		ldr	r5, .L635+20
 2833 130a AC42     		cmp	r4, r5
 2834 130c 53D9     		bls	.L73
  84:IMU/bsp_spi.c ****     __HAL_DMA_CLEAR_FLAG (hspi1.hdmatx, __HAL_DMA_GET_HT_FLAG_INDEX(hspi1.hdmatx));
 2835              		.loc 1 84 5 discriminator 51 view .LVU479
 2836 130e A83D     		subs	r5, r5, #168
 2837 1310 AC42     		cmp	r4, r5
 2838 1312 31D0     		beq	.L402
  84:IMU/bsp_spi.c ****     __HAL_DMA_CLEAR_FLAG (hspi1.hdmatx, __HAL_DMA_GET_HT_FLAG_INDEX(hspi1.hdmatx));
 2839              		.loc 1 84 5 discriminator 53 view .LVU480
 2840 1314 05F58065 		add	r5, r5, #1024
 2841 1318 AC42     		cmp	r4, r5
 2842 131a 31D0     		beq	.L403
  84:IMU/bsp_spi.c ****     __HAL_DMA_CLEAR_FLAG (hspi1.hdmatx, __HAL_DMA_GET_HT_FLAG_INDEX(hspi1.hdmatx));
 2843              		.loc 1 84 5 discriminator 55 view .LVU481
 2844 131c A5F56875 		sub	r5, r5, #928
 2845 1320 AC42     		cmp	r4, r5
 2846 1322 2FD0     		beq	.L404
  84:IMU/bsp_spi.c ****     __HAL_DMA_CLEAR_FLAG (hspi1.hdmatx, __HAL_DMA_GET_HT_FLAG_INDEX(hspi1.hdmatx));
 2847              		.loc 1 84 5 discriminator 57 view .LVU482
ARM GAS  C:\Users\xixi\AppData\Local\Temp\ccW01pdv.s 			page 58


 2848 1324 05F58065 		add	r5, r5, #1024
 2849 1328 AC42     		cmp	r4, r5
 2850 132a 2DD0     		beq	.L405
  84:IMU/bsp_spi.c ****     __HAL_DMA_CLEAR_FLAG (hspi1.hdmatx, __HAL_DMA_GET_HT_FLAG_INDEX(hspi1.hdmatx));
 2851              		.loc 1 84 5 discriminator 59 view .LVU483
 2852 132c A5F58965 		sub	r5, r5, #1096
 2853 1330 AC42     		cmp	r4, r5
 2854 1332 2BD0     		beq	.L406
  84:IMU/bsp_spi.c ****     __HAL_DMA_CLEAR_FLAG (hspi1.hdmatx, __HAL_DMA_GET_HT_FLAG_INDEX(hspi1.hdmatx));
 2855              		.loc 1 84 5 discriminator 61 view .LVU484
 2856 1334 05F58065 		add	r5, r5, #1024
 2857 1338 AC42     		cmp	r4, r5
 2858 133a 2AD0     		beq	.L407
  84:IMU/bsp_spi.c ****     __HAL_DMA_CLEAR_FLAG (hspi1.hdmatx, __HAL_DMA_GET_HT_FLAG_INDEX(hspi1.hdmatx));
 2859              		.loc 1 84 5 discriminator 63 view .LVU485
 2860 133c A5F56875 		sub	r5, r5, #928
 2861 1340 AC42     		cmp	r4, r5
 2862 1342 29D0     		beq	.L408
  84:IMU/bsp_spi.c ****     __HAL_DMA_CLEAR_FLAG (hspi1.hdmatx, __HAL_DMA_GET_HT_FLAG_INDEX(hspi1.hdmatx));
 2863              		.loc 1 84 5 discriminator 65 view .LVU486
 2864 1344 05F58065 		add	r5, r5, #1024
 2865 1348 AC42     		cmp	r4, r5
 2866 134a 28D0     		beq	.L409
  84:IMU/bsp_spi.c ****     __HAL_DMA_CLEAR_FLAG (hspi1.hdmatx, __HAL_DMA_GET_HT_FLAG_INDEX(hspi1.hdmatx));
 2867              		.loc 1 84 5 discriminator 67 view .LVU487
 2868 134c A5F58965 		sub	r5, r5, #1096
 2869 1350 AC42     		cmp	r4, r5
 2870 1352 27D0     		beq	.L410
  84:IMU/bsp_spi.c ****     __HAL_DMA_CLEAR_FLAG (hspi1.hdmatx, __HAL_DMA_GET_HT_FLAG_INDEX(hspi1.hdmatx));
 2871              		.loc 1 84 5 discriminator 69 view .LVU488
 2872 1354 05F58065 		add	r5, r5, #1024
 2873 1358 AC42     		cmp	r4, r5
 2874 135a 26D0     		beq	.L411
  84:IMU/bsp_spi.c ****     __HAL_DMA_CLEAR_FLAG (hspi1.hdmatx, __HAL_DMA_GET_HT_FLAG_INDEX(hspi1.hdmatx));
 2875              		.loc 1 84 5 discriminator 71 view .LVU489
 2876 135c A5F56875 		sub	r5, r5, #928
 2877 1360 AC42     		cmp	r4, r5
 2878 1362 25D0     		beq	.L412
  84:IMU/bsp_spi.c ****     __HAL_DMA_CLEAR_FLAG (hspi1.hdmatx, __HAL_DMA_GET_HT_FLAG_INDEX(hspi1.hdmatx));
 2879              		.loc 1 84 5 discriminator 73 view .LVU490
 2880 1364 05F58065 		add	r5, r5, #1024
 2881 1368 AC42     		cmp	r4, r5
 2882 136a 02D0     		beq	.L609
  84:IMU/bsp_spi.c ****     __HAL_DMA_CLEAR_FLAG (hspi1.hdmatx, __HAL_DMA_GET_HT_FLAG_INDEX(hspi1.hdmatx));
 2883              		.loc 1 84 5 view .LVU491
 2884 136c 4FF08064 		mov	r4, #67108864
 2885 1370 03E0     		b	.L74
 2886              	.L609:
 2887 1372 4FF48014 		mov	r4, #1048576
 2888 1376 00E0     		b	.L74
 2889              	.L402:
 2890 1378 1024     		movs	r4, #16
 2891              	.L74:
  84:IMU/bsp_spi.c ****     __HAL_DMA_CLEAR_FLAG (hspi1.hdmatx, __HAL_DMA_GET_HT_FLAG_INDEX(hspi1.hdmatx));
 2892              		.loc 1 84 5 discriminator 100 view .LVU492
 2893 137a 394D     		ldr	r5, .L635+8
 2894 137c AC60     		str	r4, [r5, #8]
ARM GAS  C:\Users\xixi\AppData\Local\Temp\ccW01pdv.s 			page 59


 2895 137e 62E7     		b	.L72
 2896              	.L403:
  84:IMU/bsp_spi.c ****     __HAL_DMA_CLEAR_FLAG (hspi1.hdmatx, __HAL_DMA_GET_HT_FLAG_INDEX(hspi1.hdmatx));
 2897              		.loc 1 84 5 view .LVU493
 2898 1380 1024     		movs	r4, #16
 2899 1382 FAE7     		b	.L74
 2900              	.L404:
 2901 1384 1024     		movs	r4, #16
 2902 1386 F8E7     		b	.L74
 2903              	.L405:
 2904 1388 1024     		movs	r4, #16
 2905 138a F6E7     		b	.L74
 2906              	.L406:
 2907 138c 4FF48064 		mov	r4, #1024
 2908 1390 F3E7     		b	.L74
 2909              	.L407:
 2910 1392 4FF48064 		mov	r4, #1024
 2911 1396 F0E7     		b	.L74
 2912              	.L408:
 2913 1398 4FF48064 		mov	r4, #1024
 2914 139c EDE7     		b	.L74
 2915              	.L409:
 2916 139e 4FF48064 		mov	r4, #1024
 2917 13a2 EAE7     		b	.L74
 2918              	.L410:
 2919 13a4 4FF48014 		mov	r4, #1048576
 2920 13a8 E7E7     		b	.L74
 2921              	.L411:
 2922 13aa 4FF48014 		mov	r4, #1048576
 2923 13ae E4E7     		b	.L74
 2924              	.L412:
 2925 13b0 4FF48014 		mov	r4, #1048576
 2926 13b4 E1E7     		b	.L74
 2927              	.L73:
  84:IMU/bsp_spi.c ****     __HAL_DMA_CLEAR_FLAG (hspi1.hdmatx, __HAL_DMA_GET_HT_FLAG_INDEX(hspi1.hdmatx));
 2928              		.loc 1 84 5 discriminator 52 view .LVU494
 2929 13b6 2E4D     		ldr	r5, .L635+24
 2930 13b8 AC42     		cmp	r4, r5
 2931 13ba 61D9     		bls	.L75
  84:IMU/bsp_spi.c ****     __HAL_DMA_CLEAR_FLAG (hspi1.hdmatx, __HAL_DMA_GET_HT_FLAG_INDEX(hspi1.hdmatx));
 2932              		.loc 1 84 5 discriminator 102 view .LVU495
 2933 13bc 483D     		subs	r5, r5, #72
 2934 13be AC42     		cmp	r4, r5
 2935 13c0 31D0     		beq	.L414
  84:IMU/bsp_spi.c ****     __HAL_DMA_CLEAR_FLAG (hspi1.hdmatx, __HAL_DMA_GET_HT_FLAG_INDEX(hspi1.hdmatx));
 2936              		.loc 1 84 5 discriminator 104 view .LVU496
 2937 13c2 05F58065 		add	r5, r5, #1024
 2938 13c6 AC42     		cmp	r4, r5
 2939 13c8 31D0     		beq	.L415
  84:IMU/bsp_spi.c ****     __HAL_DMA_CLEAR_FLAG (hspi1.hdmatx, __HAL_DMA_GET_HT_FLAG_INDEX(hspi1.hdmatx));
 2940              		.loc 1 84 5 discriminator 106 view .LVU497
 2941 13ca A5F56875 		sub	r5, r5, #928
 2942 13ce AC42     		cmp	r4, r5
 2943 13d0 2FD0     		beq	.L416
  84:IMU/bsp_spi.c ****     __HAL_DMA_CLEAR_FLAG (hspi1.hdmatx, __HAL_DMA_GET_HT_FLAG_INDEX(hspi1.hdmatx));
 2944              		.loc 1 84 5 discriminator 108 view .LVU498
 2945 13d2 05F58065 		add	r5, r5, #1024
ARM GAS  C:\Users\xixi\AppData\Local\Temp\ccW01pdv.s 			page 60


 2946 13d6 AC42     		cmp	r4, r5
 2947 13d8 2DD0     		beq	.L417
  84:IMU/bsp_spi.c ****     __HAL_DMA_CLEAR_FLAG (hspi1.hdmatx, __HAL_DMA_GET_HT_FLAG_INDEX(hspi1.hdmatx));
 2948              		.loc 1 84 5 discriminator 110 view .LVU499
 2949 13da A5F58965 		sub	r5, r5, #1096
 2950 13de AC42     		cmp	r4, r5
 2951 13e0 2BD0     		beq	.L418
  84:IMU/bsp_spi.c ****     __HAL_DMA_CLEAR_FLAG (hspi1.hdmatx, __HAL_DMA_GET_HT_FLAG_INDEX(hspi1.hdmatx));
 2952              		.loc 1 84 5 discriminator 112 view .LVU500
 2953 13e2 05F58065 		add	r5, r5, #1024
 2954 13e6 AC42     		cmp	r4, r5
 2955 13e8 2AD0     		beq	.L419
  84:IMU/bsp_spi.c ****     __HAL_DMA_CLEAR_FLAG (hspi1.hdmatx, __HAL_DMA_GET_HT_FLAG_INDEX(hspi1.hdmatx));
 2956              		.loc 1 84 5 discriminator 114 view .LVU501
 2957 13ea A5F56875 		sub	r5, r5, #928
 2958 13ee AC42     		cmp	r4, r5
 2959 13f0 29D0     		beq	.L420
  84:IMU/bsp_spi.c ****     __HAL_DMA_CLEAR_FLAG (hspi1.hdmatx, __HAL_DMA_GET_HT_FLAG_INDEX(hspi1.hdmatx));
 2960              		.loc 1 84 5 discriminator 116 view .LVU502
 2961 13f2 05F58065 		add	r5, r5, #1024
 2962 13f6 AC42     		cmp	r4, r5
 2963 13f8 28D0     		beq	.L421
  84:IMU/bsp_spi.c ****     __HAL_DMA_CLEAR_FLAG (hspi1.hdmatx, __HAL_DMA_GET_HT_FLAG_INDEX(hspi1.hdmatx));
 2964              		.loc 1 84 5 discriminator 118 view .LVU503
 2965 13fa A5F58965 		sub	r5, r5, #1096
 2966 13fe AC42     		cmp	r4, r5
 2967 1400 27D0     		beq	.L422
  84:IMU/bsp_spi.c ****     __HAL_DMA_CLEAR_FLAG (hspi1.hdmatx, __HAL_DMA_GET_HT_FLAG_INDEX(hspi1.hdmatx));
 2968              		.loc 1 84 5 discriminator 120 view .LVU504
 2969 1402 05F58065 		add	r5, r5, #1024
 2970 1406 AC42     		cmp	r4, r5
 2971 1408 34D0     		beq	.L423
  84:IMU/bsp_spi.c ****     __HAL_DMA_CLEAR_FLAG (hspi1.hdmatx, __HAL_DMA_GET_HT_FLAG_INDEX(hspi1.hdmatx));
 2972              		.loc 1 84 5 discriminator 122 view .LVU505
 2973 140a A5F56875 		sub	r5, r5, #928
 2974 140e AC42     		cmp	r4, r5
 2975 1410 33D0     		beq	.L424
  84:IMU/bsp_spi.c ****     __HAL_DMA_CLEAR_FLAG (hspi1.hdmatx, __HAL_DMA_GET_HT_FLAG_INDEX(hspi1.hdmatx));
 2976              		.loc 1 84 5 discriminator 124 view .LVU506
 2977 1412 05F58065 		add	r5, r5, #1024
 2978 1416 AC42     		cmp	r4, r5
 2979 1418 02D0     		beq	.L610
  84:IMU/bsp_spi.c ****     __HAL_DMA_CLEAR_FLAG (hspi1.hdmatx, __HAL_DMA_GET_HT_FLAG_INDEX(hspi1.hdmatx));
 2980              		.loc 1 84 5 view .LVU507
 2981 141a 4FF08064 		mov	r4, #67108864
 2982 141e 03E0     		b	.L76
 2983              	.L610:
 2984 1420 4FF48014 		mov	r4, #1048576
 2985 1424 00E0     		b	.L76
 2986              	.L414:
 2987 1426 1024     		movs	r4, #16
 2988              	.L76:
  84:IMU/bsp_spi.c ****     __HAL_DMA_CLEAR_FLAG (hspi1.hdmatx, __HAL_DMA_GET_HT_FLAG_INDEX(hspi1.hdmatx));
 2989              		.loc 1 84 5 discriminator 151 view .LVU508
 2990 1428 0C4D     		ldr	r5, .L635+4
 2991 142a EC60     		str	r4, [r5, #12]
 2992 142c 0BE7     		b	.L72
ARM GAS  C:\Users\xixi\AppData\Local\Temp\ccW01pdv.s 			page 61


 2993              	.L415:
  84:IMU/bsp_spi.c ****     __HAL_DMA_CLEAR_FLAG (hspi1.hdmatx, __HAL_DMA_GET_HT_FLAG_INDEX(hspi1.hdmatx));
 2994              		.loc 1 84 5 view .LVU509
 2995 142e 1024     		movs	r4, #16
 2996 1430 FAE7     		b	.L76
 2997              	.L416:
 2998 1432 1024     		movs	r4, #16
 2999 1434 F8E7     		b	.L76
 3000              	.L417:
 3001 1436 1024     		movs	r4, #16
 3002 1438 F6E7     		b	.L76
 3003              	.L418:
 3004 143a 4FF48064 		mov	r4, #1024
 3005 143e F3E7     		b	.L76
 3006              	.L419:
 3007 1440 4FF48064 		mov	r4, #1024
 3008 1444 F0E7     		b	.L76
 3009              	.L420:
 3010 1446 4FF48064 		mov	r4, #1024
 3011 144a EDE7     		b	.L76
 3012              	.L421:
 3013 144c 4FF48064 		mov	r4, #1024
 3014 1450 EAE7     		b	.L76
 3015              	.L422:
 3016 1452 4FF48014 		mov	r4, #1048576
 3017 1456 E7E7     		b	.L76
 3018              	.L636:
 3019              		.align	2
 3020              	.L635:
 3021 1458 10600240 		.word	1073897488
 3022 145c 00600240 		.word	1073897472
 3023 1460 00640240 		.word	1073898496
 3024 1464 00000000 		.word	hspi1
 3025 1468 58640240 		.word	1073898584
 3026 146c B8600240 		.word	1073897656
 3027 1470 58600240 		.word	1073897560
 3028              	.L423:
 3029 1474 4FF48014 		mov	r4, #1048576
 3030 1478 D6E7     		b	.L76
 3031              	.L424:
 3032 147a 4FF48014 		mov	r4, #1048576
 3033 147e D3E7     		b	.L76
 3034              	.L75:
  84:IMU/bsp_spi.c ****     __HAL_DMA_CLEAR_FLAG (hspi1.hdmatx, __HAL_DMA_GET_HT_FLAG_INDEX(hspi1.hdmatx));
 3035              		.loc 1 84 5 discriminator 103 view .LVU510
 3036 1480 B14D     		ldr	r5, .L637
 3037 1482 AC42     		cmp	r4, r5
 3038 1484 31D0     		beq	.L426
  84:IMU/bsp_spi.c ****     __HAL_DMA_CLEAR_FLAG (hspi1.hdmatx, __HAL_DMA_GET_HT_FLAG_INDEX(hspi1.hdmatx));
 3039              		.loc 1 84 5 discriminator 153 view .LVU511
 3040 1486 05F58065 		add	r5, r5, #1024
 3041 148a AC42     		cmp	r4, r5
 3042 148c 31D0     		beq	.L427
  84:IMU/bsp_spi.c ****     __HAL_DMA_CLEAR_FLAG (hspi1.hdmatx, __HAL_DMA_GET_HT_FLAG_INDEX(hspi1.hdmatx));
 3043              		.loc 1 84 5 discriminator 155 view .LVU512
 3044 148e A5F56875 		sub	r5, r5, #928
 3045 1492 AC42     		cmp	r4, r5
ARM GAS  C:\Users\xixi\AppData\Local\Temp\ccW01pdv.s 			page 62


 3046 1494 2FD0     		beq	.L428
  84:IMU/bsp_spi.c ****     __HAL_DMA_CLEAR_FLAG (hspi1.hdmatx, __HAL_DMA_GET_HT_FLAG_INDEX(hspi1.hdmatx));
 3047              		.loc 1 84 5 discriminator 157 view .LVU513
 3048 1496 05F58065 		add	r5, r5, #1024
 3049 149a AC42     		cmp	r4, r5
 3050 149c 2DD0     		beq	.L429
  84:IMU/bsp_spi.c ****     __HAL_DMA_CLEAR_FLAG (hspi1.hdmatx, __HAL_DMA_GET_HT_FLAG_INDEX(hspi1.hdmatx));
 3051              		.loc 1 84 5 discriminator 159 view .LVU514
 3052 149e A5F58965 		sub	r5, r5, #1096
 3053 14a2 AC42     		cmp	r4, r5
 3054 14a4 2BD0     		beq	.L430
  84:IMU/bsp_spi.c ****     __HAL_DMA_CLEAR_FLAG (hspi1.hdmatx, __HAL_DMA_GET_HT_FLAG_INDEX(hspi1.hdmatx));
 3055              		.loc 1 84 5 discriminator 161 view .LVU515
 3056 14a6 05F58065 		add	r5, r5, #1024
 3057 14aa AC42     		cmp	r4, r5
 3058 14ac 2AD0     		beq	.L431
  84:IMU/bsp_spi.c ****     __HAL_DMA_CLEAR_FLAG (hspi1.hdmatx, __HAL_DMA_GET_HT_FLAG_INDEX(hspi1.hdmatx));
 3059              		.loc 1 84 5 discriminator 163 view .LVU516
 3060 14ae A5F56875 		sub	r5, r5, #928
 3061 14b2 AC42     		cmp	r4, r5
 3062 14b4 29D0     		beq	.L432
  84:IMU/bsp_spi.c ****     __HAL_DMA_CLEAR_FLAG (hspi1.hdmatx, __HAL_DMA_GET_HT_FLAG_INDEX(hspi1.hdmatx));
 3063              		.loc 1 84 5 discriminator 165 view .LVU517
 3064 14b6 05F58065 		add	r5, r5, #1024
 3065 14ba AC42     		cmp	r4, r5
 3066 14bc 28D0     		beq	.L433
  84:IMU/bsp_spi.c ****     __HAL_DMA_CLEAR_FLAG (hspi1.hdmatx, __HAL_DMA_GET_HT_FLAG_INDEX(hspi1.hdmatx));
 3067              		.loc 1 84 5 discriminator 167 view .LVU518
 3068 14be A5F58965 		sub	r5, r5, #1096
 3069 14c2 AC42     		cmp	r4, r5
 3070 14c4 27D0     		beq	.L434
  84:IMU/bsp_spi.c ****     __HAL_DMA_CLEAR_FLAG (hspi1.hdmatx, __HAL_DMA_GET_HT_FLAG_INDEX(hspi1.hdmatx));
 3071              		.loc 1 84 5 discriminator 169 view .LVU519
 3072 14c6 05F58065 		add	r5, r5, #1024
 3073 14ca AC42     		cmp	r4, r5
 3074 14cc 26D0     		beq	.L435
  84:IMU/bsp_spi.c ****     __HAL_DMA_CLEAR_FLAG (hspi1.hdmatx, __HAL_DMA_GET_HT_FLAG_INDEX(hspi1.hdmatx));
 3075              		.loc 1 84 5 discriminator 171 view .LVU520
 3076 14ce A5F56875 		sub	r5, r5, #928
 3077 14d2 AC42     		cmp	r4, r5
 3078 14d4 25D0     		beq	.L436
  84:IMU/bsp_spi.c ****     __HAL_DMA_CLEAR_FLAG (hspi1.hdmatx, __HAL_DMA_GET_HT_FLAG_INDEX(hspi1.hdmatx));
 3079              		.loc 1 84 5 discriminator 173 view .LVU521
 3080 14d6 05F58065 		add	r5, r5, #1024
 3081 14da AC42     		cmp	r4, r5
 3082 14dc 02D0     		beq	.L611
  84:IMU/bsp_spi.c ****     __HAL_DMA_CLEAR_FLAG (hspi1.hdmatx, __HAL_DMA_GET_HT_FLAG_INDEX(hspi1.hdmatx));
 3083              		.loc 1 84 5 view .LVU522
 3084 14de 4FF08064 		mov	r4, #67108864
 3085 14e2 03E0     		b	.L77
 3086              	.L611:
 3087 14e4 4FF48014 		mov	r4, #1048576
 3088 14e8 00E0     		b	.L77
 3089              	.L426:
 3090 14ea 1024     		movs	r4, #16
 3091              	.L77:
  84:IMU/bsp_spi.c ****     __HAL_DMA_CLEAR_FLAG (hspi1.hdmatx, __HAL_DMA_GET_HT_FLAG_INDEX(hspi1.hdmatx));
ARM GAS  C:\Users\xixi\AppData\Local\Temp\ccW01pdv.s 			page 63


 3092              		.loc 1 84 5 discriminator 200 view .LVU523
 3093 14ec 974D     		ldr	r5, .L637+4
 3094 14ee AC60     		str	r4, [r5, #8]
 3095 14f0 A9E6     		b	.L72
 3096              	.L427:
  84:IMU/bsp_spi.c ****     __HAL_DMA_CLEAR_FLAG (hspi1.hdmatx, __HAL_DMA_GET_HT_FLAG_INDEX(hspi1.hdmatx));
 3097              		.loc 1 84 5 view .LVU524
 3098 14f2 1024     		movs	r4, #16
 3099 14f4 FAE7     		b	.L77
 3100              	.L428:
 3101 14f6 1024     		movs	r4, #16
 3102 14f8 F8E7     		b	.L77
 3103              	.L429:
 3104 14fa 1024     		movs	r4, #16
 3105 14fc F6E7     		b	.L77
 3106              	.L430:
 3107 14fe 4FF48064 		mov	r4, #1024
 3108 1502 F3E7     		b	.L77
 3109              	.L431:
 3110 1504 4FF48064 		mov	r4, #1024
 3111 1508 F0E7     		b	.L77
 3112              	.L432:
 3113 150a 4FF48064 		mov	r4, #1024
 3114 150e EDE7     		b	.L77
 3115              	.L433:
 3116 1510 4FF48064 		mov	r4, #1024
 3117 1514 EAE7     		b	.L77
 3118              	.L434:
 3119 1516 4FF48014 		mov	r4, #1048576
 3120 151a E7E7     		b	.L77
 3121              	.L435:
 3122 151c 4FF48014 		mov	r4, #1048576
 3123 1520 E4E7     		b	.L77
 3124              	.L436:
 3125 1522 4FF48014 		mov	r4, #1048576
 3126 1526 E1E7     		b	.L77
 3127              	.L608:
 3128              		.loc 1 85 5 view .LVU525
 3129 1528 4FF40025 		mov	r5, #524288
 3130 152c 00E0     		b	.L79
 3131              	.L438:
 3132 152e 0825     		movs	r5, #8
 3133              	.L79:
 3134              		.loc 1 85 5 discriminator 50 view .LVU526
 3135 1530 874C     		ldr	r4, .L637+8
 3136 1532 E560     		str	r5, [r4, #12]
 3137              	.L80:
  86:IMU/bsp_spi.c ****     __HAL_DMA_CLEAR_FLAG (hspi1.hdmatx, __HAL_DMA_GET_DME_FLAG_INDEX(hspi1.hdmatx));
 3138              		.loc 1 86 5 is_stmt 1 view .LVU527
 3139 1534 874C     		ldr	r4, .L637+12
 3140 1536 A46C     		ldr	r4, [r4, #72]
 3141 1538 2468     		ldr	r4, [r4]
 3142 153a 874D     		ldr	r5, .L637+16
 3143 153c AC42     		cmp	r4, r5
 3144 153e 40F2D281 		bls	.L86
 3145              		.loc 1 86 5 is_stmt 0 discriminator 1 view .LVU528
 3146 1542 A5F58965 		sub	r5, r5, #1096
ARM GAS  C:\Users\xixi\AppData\Local\Temp\ccW01pdv.s 			page 64


 3147 1546 AC42     		cmp	r4, r5
 3148 1548 00F06981 		beq	.L486
 3149              		.loc 1 86 5 discriminator 3 view .LVU529
 3150 154c 05F58065 		add	r5, r5, #1024
 3151 1550 AC42     		cmp	r4, r5
 3152 1552 00F0AD81 		beq	.L487
 3153              		.loc 1 86 5 discriminator 5 view .LVU530
 3154 1556 A5F56875 		sub	r5, r5, #928
 3155 155a AC42     		cmp	r4, r5
 3156 155c 00F0AA81 		beq	.L488
 3157              		.loc 1 86 5 discriminator 7 view .LVU531
 3158 1560 05F58065 		add	r5, r5, #1024
 3159 1564 AC42     		cmp	r4, r5
 3160 1566 00F0A781 		beq	.L489
 3161              		.loc 1 86 5 discriminator 9 view .LVU532
 3162 156a A5F58965 		sub	r5, r5, #1096
 3163 156e AC42     		cmp	r4, r5
 3164 1570 00F0A481 		beq	.L490
 3165              		.loc 1 86 5 discriminator 11 view .LVU533
 3166 1574 05F58065 		add	r5, r5, #1024
 3167 1578 AC42     		cmp	r4, r5
 3168 157a 00F0A281 		beq	.L491
 3169              		.loc 1 86 5 discriminator 13 view .LVU534
 3170 157e A5F56875 		sub	r5, r5, #928
 3171 1582 AC42     		cmp	r4, r5
 3172 1584 00F0A081 		beq	.L492
 3173              		.loc 1 86 5 discriminator 15 view .LVU535
 3174 1588 05F58065 		add	r5, r5, #1024
 3175 158c AC42     		cmp	r4, r5
 3176 158e 00F09E81 		beq	.L493
 3177              		.loc 1 86 5 discriminator 17 view .LVU536
 3178 1592 A5F58965 		sub	r5, r5, #1096
 3179 1596 AC42     		cmp	r4, r5
 3180 1598 00F09C81 		beq	.L494
 3181              		.loc 1 86 5 discriminator 19 view .LVU537
 3182 159c 05F58065 		add	r5, r5, #1024
 3183 15a0 AC42     		cmp	r4, r5
 3184 15a2 00F09A81 		beq	.L495
 3185              		.loc 1 86 5 discriminator 21 view .LVU538
 3186 15a6 A5F56875 		sub	r5, r5, #928
 3187 15aa AC42     		cmp	r4, r5
 3188 15ac 00F09881 		beq	.L496
 3189              		.loc 1 86 5 discriminator 23 view .LVU539
 3190 15b0 05F58065 		add	r5, r5, #1024
 3191 15b4 AC42     		cmp	r4, r5
 3192 15b6 00F02F81 		beq	.L612
 3193              		.loc 1 86 5 view .LVU540
 3194 15ba 4FF08075 		mov	r5, #16777216
 3195 15be 2FE1     		b	.L87
 3196              	.L439:
  85:IMU/bsp_spi.c ****     __HAL_DMA_CLEAR_FLAG (hspi1.hdmatx, __HAL_DMA_GET_TE_FLAG_INDEX(hspi1.hdmatx));
 3197              		.loc 1 85 5 view .LVU541
 3198 15c0 0825     		movs	r5, #8
 3199 15c2 B5E7     		b	.L79
 3200              	.L440:
 3201 15c4 0825     		movs	r5, #8
 3202 15c6 B3E7     		b	.L79
ARM GAS  C:\Users\xixi\AppData\Local\Temp\ccW01pdv.s 			page 65


 3203              	.L441:
 3204 15c8 0825     		movs	r5, #8
 3205 15ca B1E7     		b	.L79
 3206              	.L442:
 3207 15cc 4FF40075 		mov	r5, #512
 3208 15d0 AEE7     		b	.L79
 3209              	.L443:
 3210 15d2 4FF40075 		mov	r5, #512
 3211 15d6 ABE7     		b	.L79
 3212              	.L444:
 3213 15d8 4FF40075 		mov	r5, #512
 3214 15dc A8E7     		b	.L79
 3215              	.L445:
 3216 15de 4FF40075 		mov	r5, #512
 3217 15e2 A5E7     		b	.L79
 3218              	.L446:
 3219 15e4 4FF40025 		mov	r5, #524288
 3220 15e8 A2E7     		b	.L79
 3221              	.L447:
 3222 15ea 4FF40025 		mov	r5, #524288
 3223 15ee 9FE7     		b	.L79
 3224              	.L448:
 3225 15f0 4FF40025 		mov	r5, #524288
 3226 15f4 9CE7     		b	.L79
 3227              	.L78:
  85:IMU/bsp_spi.c ****     __HAL_DMA_CLEAR_FLAG (hspi1.hdmatx, __HAL_DMA_GET_TE_FLAG_INDEX(hspi1.hdmatx));
 3228              		.loc 1 85 5 discriminator 2 view .LVU542
 3229 15f6 594D     		ldr	r5, .L637+20
 3230 15f8 AC42     		cmp	r4, r5
 3231 15fa 53D9     		bls	.L81
  85:IMU/bsp_spi.c ****     __HAL_DMA_CLEAR_FLAG (hspi1.hdmatx, __HAL_DMA_GET_TE_FLAG_INDEX(hspi1.hdmatx));
 3232              		.loc 1 85 5 discriminator 51 view .LVU543
 3233 15fc A83D     		subs	r5, r5, #168
 3234 15fe AC42     		cmp	r4, r5
 3235 1600 31D0     		beq	.L450
  85:IMU/bsp_spi.c ****     __HAL_DMA_CLEAR_FLAG (hspi1.hdmatx, __HAL_DMA_GET_TE_FLAG_INDEX(hspi1.hdmatx));
 3236              		.loc 1 85 5 discriminator 53 view .LVU544
 3237 1602 05F58065 		add	r5, r5, #1024
 3238 1606 AC42     		cmp	r4, r5
 3239 1608 31D0     		beq	.L451
  85:IMU/bsp_spi.c ****     __HAL_DMA_CLEAR_FLAG (hspi1.hdmatx, __HAL_DMA_GET_TE_FLAG_INDEX(hspi1.hdmatx));
 3240              		.loc 1 85 5 discriminator 55 view .LVU545
 3241 160a A5F56875 		sub	r5, r5, #928
 3242 160e AC42     		cmp	r4, r5
 3243 1610 2FD0     		beq	.L452
  85:IMU/bsp_spi.c ****     __HAL_DMA_CLEAR_FLAG (hspi1.hdmatx, __HAL_DMA_GET_TE_FLAG_INDEX(hspi1.hdmatx));
 3244              		.loc 1 85 5 discriminator 57 view .LVU546
 3245 1612 05F58065 		add	r5, r5, #1024
 3246 1616 AC42     		cmp	r4, r5
 3247 1618 2DD0     		beq	.L453
  85:IMU/bsp_spi.c ****     __HAL_DMA_CLEAR_FLAG (hspi1.hdmatx, __HAL_DMA_GET_TE_FLAG_INDEX(hspi1.hdmatx));
 3248              		.loc 1 85 5 discriminator 59 view .LVU547
 3249 161a A5F58965 		sub	r5, r5, #1096
 3250 161e AC42     		cmp	r4, r5
 3251 1620 2BD0     		beq	.L454
  85:IMU/bsp_spi.c ****     __HAL_DMA_CLEAR_FLAG (hspi1.hdmatx, __HAL_DMA_GET_TE_FLAG_INDEX(hspi1.hdmatx));
 3252              		.loc 1 85 5 discriminator 61 view .LVU548
ARM GAS  C:\Users\xixi\AppData\Local\Temp\ccW01pdv.s 			page 66


 3253 1622 05F58065 		add	r5, r5, #1024
 3254 1626 AC42     		cmp	r4, r5
 3255 1628 2AD0     		beq	.L455
  85:IMU/bsp_spi.c ****     __HAL_DMA_CLEAR_FLAG (hspi1.hdmatx, __HAL_DMA_GET_TE_FLAG_INDEX(hspi1.hdmatx));
 3256              		.loc 1 85 5 discriminator 63 view .LVU549
 3257 162a A5F56875 		sub	r5, r5, #928
 3258 162e AC42     		cmp	r4, r5
 3259 1630 29D0     		beq	.L456
  85:IMU/bsp_spi.c ****     __HAL_DMA_CLEAR_FLAG (hspi1.hdmatx, __HAL_DMA_GET_TE_FLAG_INDEX(hspi1.hdmatx));
 3260              		.loc 1 85 5 discriminator 65 view .LVU550
 3261 1632 05F58065 		add	r5, r5, #1024
 3262 1636 AC42     		cmp	r4, r5
 3263 1638 28D0     		beq	.L457
  85:IMU/bsp_spi.c ****     __HAL_DMA_CLEAR_FLAG (hspi1.hdmatx, __HAL_DMA_GET_TE_FLAG_INDEX(hspi1.hdmatx));
 3264              		.loc 1 85 5 discriminator 67 view .LVU551
 3265 163a A5F58965 		sub	r5, r5, #1096
 3266 163e AC42     		cmp	r4, r5
 3267 1640 27D0     		beq	.L458
  85:IMU/bsp_spi.c ****     __HAL_DMA_CLEAR_FLAG (hspi1.hdmatx, __HAL_DMA_GET_TE_FLAG_INDEX(hspi1.hdmatx));
 3268              		.loc 1 85 5 discriminator 69 view .LVU552
 3269 1642 05F58065 		add	r5, r5, #1024
 3270 1646 AC42     		cmp	r4, r5
 3271 1648 26D0     		beq	.L459
  85:IMU/bsp_spi.c ****     __HAL_DMA_CLEAR_FLAG (hspi1.hdmatx, __HAL_DMA_GET_TE_FLAG_INDEX(hspi1.hdmatx));
 3272              		.loc 1 85 5 discriminator 71 view .LVU553
 3273 164a A5F56875 		sub	r5, r5, #928
 3274 164e AC42     		cmp	r4, r5
 3275 1650 25D0     		beq	.L460
  85:IMU/bsp_spi.c ****     __HAL_DMA_CLEAR_FLAG (hspi1.hdmatx, __HAL_DMA_GET_TE_FLAG_INDEX(hspi1.hdmatx));
 3276              		.loc 1 85 5 discriminator 73 view .LVU554
 3277 1652 05F58065 		add	r5, r5, #1024
 3278 1656 AC42     		cmp	r4, r5
 3279 1658 02D0     		beq	.L613
  85:IMU/bsp_spi.c ****     __HAL_DMA_CLEAR_FLAG (hspi1.hdmatx, __HAL_DMA_GET_TE_FLAG_INDEX(hspi1.hdmatx));
 3280              		.loc 1 85 5 view .LVU555
 3281 165a 4FF00074 		mov	r4, #33554432
 3282 165e 03E0     		b	.L82
 3283              	.L613:
 3284 1660 4FF40024 		mov	r4, #524288
 3285 1664 00E0     		b	.L82
 3286              	.L450:
 3287 1666 0824     		movs	r4, #8
 3288              	.L82:
  85:IMU/bsp_spi.c ****     __HAL_DMA_CLEAR_FLAG (hspi1.hdmatx, __HAL_DMA_GET_TE_FLAG_INDEX(hspi1.hdmatx));
 3289              		.loc 1 85 5 discriminator 100 view .LVU556
 3290 1668 394D     		ldr	r5, .L637+8
 3291 166a AC60     		str	r4, [r5, #8]
 3292 166c 62E7     		b	.L80
 3293              	.L451:
  85:IMU/bsp_spi.c ****     __HAL_DMA_CLEAR_FLAG (hspi1.hdmatx, __HAL_DMA_GET_TE_FLAG_INDEX(hspi1.hdmatx));
 3294              		.loc 1 85 5 view .LVU557
 3295 166e 0824     		movs	r4, #8
 3296 1670 FAE7     		b	.L82
 3297              	.L452:
 3298 1672 0824     		movs	r4, #8
 3299 1674 F8E7     		b	.L82
 3300              	.L453:
ARM GAS  C:\Users\xixi\AppData\Local\Temp\ccW01pdv.s 			page 67


 3301 1676 0824     		movs	r4, #8
 3302 1678 F6E7     		b	.L82
 3303              	.L454:
 3304 167a 4FF40074 		mov	r4, #512
 3305 167e F3E7     		b	.L82
 3306              	.L455:
 3307 1680 4FF40074 		mov	r4, #512
 3308 1684 F0E7     		b	.L82
 3309              	.L456:
 3310 1686 4FF40074 		mov	r4, #512
 3311 168a EDE7     		b	.L82
 3312              	.L457:
 3313 168c 4FF40074 		mov	r4, #512
 3314 1690 EAE7     		b	.L82
 3315              	.L458:
 3316 1692 4FF40024 		mov	r4, #524288
 3317 1696 E7E7     		b	.L82
 3318              	.L459:
 3319 1698 4FF40024 		mov	r4, #524288
 3320 169c E4E7     		b	.L82
 3321              	.L460:
 3322 169e 4FF40024 		mov	r4, #524288
 3323 16a2 E1E7     		b	.L82
 3324              	.L81:
  85:IMU/bsp_spi.c ****     __HAL_DMA_CLEAR_FLAG (hspi1.hdmatx, __HAL_DMA_GET_TE_FLAG_INDEX(hspi1.hdmatx));
 3325              		.loc 1 85 5 discriminator 52 view .LVU558
 3326 16a4 2E4D     		ldr	r5, .L637+24
 3327 16a6 AC42     		cmp	r4, r5
 3328 16a8 62D9     		bls	.L83
  85:IMU/bsp_spi.c ****     __HAL_DMA_CLEAR_FLAG (hspi1.hdmatx, __HAL_DMA_GET_TE_FLAG_INDEX(hspi1.hdmatx));
 3329              		.loc 1 85 5 discriminator 102 view .LVU559
 3330 16aa 483D     		subs	r5, r5, #72
 3331 16ac AC42     		cmp	r4, r5
 3332 16ae 31D0     		beq	.L462
  85:IMU/bsp_spi.c ****     __HAL_DMA_CLEAR_FLAG (hspi1.hdmatx, __HAL_DMA_GET_TE_FLAG_INDEX(hspi1.hdmatx));
 3333              		.loc 1 85 5 discriminator 104 view .LVU560
 3334 16b0 05F58065 		add	r5, r5, #1024
 3335 16b4 AC42     		cmp	r4, r5
 3336 16b6 31D0     		beq	.L463
  85:IMU/bsp_spi.c ****     __HAL_DMA_CLEAR_FLAG (hspi1.hdmatx, __HAL_DMA_GET_TE_FLAG_INDEX(hspi1.hdmatx));
 3337              		.loc 1 85 5 discriminator 106 view .LVU561
 3338 16b8 A5F56875 		sub	r5, r5, #928
 3339 16bc AC42     		cmp	r4, r5
 3340 16be 2FD0     		beq	.L464
  85:IMU/bsp_spi.c ****     __HAL_DMA_CLEAR_FLAG (hspi1.hdmatx, __HAL_DMA_GET_TE_FLAG_INDEX(hspi1.hdmatx));
 3341              		.loc 1 85 5 discriminator 108 view .LVU562
 3342 16c0 05F58065 		add	r5, r5, #1024
 3343 16c4 AC42     		cmp	r4, r5
 3344 16c6 2DD0     		beq	.L465
  85:IMU/bsp_spi.c ****     __HAL_DMA_CLEAR_FLAG (hspi1.hdmatx, __HAL_DMA_GET_TE_FLAG_INDEX(hspi1.hdmatx));
 3345              		.loc 1 85 5 discriminator 110 view .LVU563
 3346 16c8 A5F58965 		sub	r5, r5, #1096
 3347 16cc AC42     		cmp	r4, r5
 3348 16ce 2BD0     		beq	.L466
  85:IMU/bsp_spi.c ****     __HAL_DMA_CLEAR_FLAG (hspi1.hdmatx, __HAL_DMA_GET_TE_FLAG_INDEX(hspi1.hdmatx));
 3349              		.loc 1 85 5 discriminator 112 view .LVU564
 3350 16d0 05F58065 		add	r5, r5, #1024
ARM GAS  C:\Users\xixi\AppData\Local\Temp\ccW01pdv.s 			page 68


 3351 16d4 AC42     		cmp	r4, r5
 3352 16d6 2AD0     		beq	.L467
  85:IMU/bsp_spi.c ****     __HAL_DMA_CLEAR_FLAG (hspi1.hdmatx, __HAL_DMA_GET_TE_FLAG_INDEX(hspi1.hdmatx));
 3353              		.loc 1 85 5 discriminator 114 view .LVU565
 3354 16d8 A5F56875 		sub	r5, r5, #928
 3355 16dc AC42     		cmp	r4, r5
 3356 16de 29D0     		beq	.L468
  85:IMU/bsp_spi.c ****     __HAL_DMA_CLEAR_FLAG (hspi1.hdmatx, __HAL_DMA_GET_TE_FLAG_INDEX(hspi1.hdmatx));
 3357              		.loc 1 85 5 discriminator 116 view .LVU566
 3358 16e0 05F58065 		add	r5, r5, #1024
 3359 16e4 AC42     		cmp	r4, r5
 3360 16e6 28D0     		beq	.L469
  85:IMU/bsp_spi.c ****     __HAL_DMA_CLEAR_FLAG (hspi1.hdmatx, __HAL_DMA_GET_TE_FLAG_INDEX(hspi1.hdmatx));
 3361              		.loc 1 85 5 discriminator 118 view .LVU567
 3362 16e8 A5F58965 		sub	r5, r5, #1096
 3363 16ec AC42     		cmp	r4, r5
 3364 16ee 27D0     		beq	.L470
  85:IMU/bsp_spi.c ****     __HAL_DMA_CLEAR_FLAG (hspi1.hdmatx, __HAL_DMA_GET_TE_FLAG_INDEX(hspi1.hdmatx));
 3365              		.loc 1 85 5 discriminator 120 view .LVU568
 3366 16f0 05F58065 		add	r5, r5, #1024
 3367 16f4 AC42     		cmp	r4, r5
 3368 16f6 35D0     		beq	.L471
  85:IMU/bsp_spi.c ****     __HAL_DMA_CLEAR_FLAG (hspi1.hdmatx, __HAL_DMA_GET_TE_FLAG_INDEX(hspi1.hdmatx));
 3369              		.loc 1 85 5 discriminator 122 view .LVU569
 3370 16f8 A5F56875 		sub	r5, r5, #928
 3371 16fc AC42     		cmp	r4, r5
 3372 16fe 34D0     		beq	.L472
  85:IMU/bsp_spi.c ****     __HAL_DMA_CLEAR_FLAG (hspi1.hdmatx, __HAL_DMA_GET_TE_FLAG_INDEX(hspi1.hdmatx));
 3373              		.loc 1 85 5 discriminator 124 view .LVU570
 3374 1700 05F58065 		add	r5, r5, #1024
 3375 1704 AC42     		cmp	r4, r5
 3376 1706 02D0     		beq	.L614
  85:IMU/bsp_spi.c ****     __HAL_DMA_CLEAR_FLAG (hspi1.hdmatx, __HAL_DMA_GET_TE_FLAG_INDEX(hspi1.hdmatx));
 3377              		.loc 1 85 5 view .LVU571
 3378 1708 4FF00074 		mov	r4, #33554432
 3379 170c 03E0     		b	.L84
 3380              	.L614:
 3381 170e 4FF40024 		mov	r4, #524288
 3382 1712 00E0     		b	.L84
 3383              	.L462:
 3384 1714 0824     		movs	r4, #8
 3385              	.L84:
  85:IMU/bsp_spi.c ****     __HAL_DMA_CLEAR_FLAG (hspi1.hdmatx, __HAL_DMA_GET_TE_FLAG_INDEX(hspi1.hdmatx));
 3386              		.loc 1 85 5 discriminator 151 view .LVU572
 3387 1716 0D4D     		ldr	r5, .L637+4
 3388 1718 EC60     		str	r4, [r5, #12]
 3389 171a 0BE7     		b	.L80
 3390              	.L463:
  85:IMU/bsp_spi.c ****     __HAL_DMA_CLEAR_FLAG (hspi1.hdmatx, __HAL_DMA_GET_TE_FLAG_INDEX(hspi1.hdmatx));
 3391              		.loc 1 85 5 view .LVU573
 3392 171c 0824     		movs	r4, #8
 3393 171e FAE7     		b	.L84
 3394              	.L464:
 3395 1720 0824     		movs	r4, #8
 3396 1722 F8E7     		b	.L84
 3397              	.L465:
 3398 1724 0824     		movs	r4, #8
ARM GAS  C:\Users\xixi\AppData\Local\Temp\ccW01pdv.s 			page 69


 3399 1726 F6E7     		b	.L84
 3400              	.L466:
 3401 1728 4FF40074 		mov	r4, #512
 3402 172c F3E7     		b	.L84
 3403              	.L467:
 3404 172e 4FF40074 		mov	r4, #512
 3405 1732 F0E7     		b	.L84
 3406              	.L468:
 3407 1734 4FF40074 		mov	r4, #512
 3408 1738 EDE7     		b	.L84
 3409              	.L469:
 3410 173a 4FF40074 		mov	r4, #512
 3411 173e EAE7     		b	.L84
 3412              	.L470:
 3413 1740 4FF40024 		mov	r4, #524288
 3414 1744 E7E7     		b	.L84
 3415              	.L638:
 3416 1746 00BF     		.align	2
 3417              	.L637:
 3418 1748 10600240 		.word	1073897488
 3419 174c 00600240 		.word	1073897472
 3420 1750 00640240 		.word	1073898496
 3421 1754 00000000 		.word	hspi1
 3422 1758 58640240 		.word	1073898584
 3423 175c B8600240 		.word	1073897656
 3424 1760 58600240 		.word	1073897560
 3425              	.L471:
 3426 1764 4FF40024 		mov	r4, #524288
 3427 1768 D5E7     		b	.L84
 3428              	.L472:
 3429 176a 4FF40024 		mov	r4, #524288
 3430 176e D2E7     		b	.L84
 3431              	.L83:
  85:IMU/bsp_spi.c ****     __HAL_DMA_CLEAR_FLAG (hspi1.hdmatx, __HAL_DMA_GET_TE_FLAG_INDEX(hspi1.hdmatx));
 3432              		.loc 1 85 5 discriminator 103 view .LVU574
 3433 1770 B14D     		ldr	r5, .L639
 3434 1772 AC42     		cmp	r4, r5
 3435 1774 31D0     		beq	.L474
  85:IMU/bsp_spi.c ****     __HAL_DMA_CLEAR_FLAG (hspi1.hdmatx, __HAL_DMA_GET_TE_FLAG_INDEX(hspi1.hdmatx));
 3436              		.loc 1 85 5 discriminator 153 view .LVU575
 3437 1776 05F58065 		add	r5, r5, #1024
 3438 177a AC42     		cmp	r4, r5
 3439 177c 31D0     		beq	.L475
  85:IMU/bsp_spi.c ****     __HAL_DMA_CLEAR_FLAG (hspi1.hdmatx, __HAL_DMA_GET_TE_FLAG_INDEX(hspi1.hdmatx));
 3440              		.loc 1 85 5 discriminator 155 view .LVU576
 3441 177e A5F56875 		sub	r5, r5, #928
 3442 1782 AC42     		cmp	r4, r5
 3443 1784 2FD0     		beq	.L476
  85:IMU/bsp_spi.c ****     __HAL_DMA_CLEAR_FLAG (hspi1.hdmatx, __HAL_DMA_GET_TE_FLAG_INDEX(hspi1.hdmatx));
 3444              		.loc 1 85 5 discriminator 157 view .LVU577
 3445 1786 05F58065 		add	r5, r5, #1024
 3446 178a AC42     		cmp	r4, r5
 3447 178c 2DD0     		beq	.L477
  85:IMU/bsp_spi.c ****     __HAL_DMA_CLEAR_FLAG (hspi1.hdmatx, __HAL_DMA_GET_TE_FLAG_INDEX(hspi1.hdmatx));
 3448              		.loc 1 85 5 discriminator 159 view .LVU578
 3449 178e A5F58965 		sub	r5, r5, #1096
 3450 1792 AC42     		cmp	r4, r5
ARM GAS  C:\Users\xixi\AppData\Local\Temp\ccW01pdv.s 			page 70


 3451 1794 2BD0     		beq	.L478
  85:IMU/bsp_spi.c ****     __HAL_DMA_CLEAR_FLAG (hspi1.hdmatx, __HAL_DMA_GET_TE_FLAG_INDEX(hspi1.hdmatx));
 3452              		.loc 1 85 5 discriminator 161 view .LVU579
 3453 1796 05F58065 		add	r5, r5, #1024
 3454 179a AC42     		cmp	r4, r5
 3455 179c 2AD0     		beq	.L479
  85:IMU/bsp_spi.c ****     __HAL_DMA_CLEAR_FLAG (hspi1.hdmatx, __HAL_DMA_GET_TE_FLAG_INDEX(hspi1.hdmatx));
 3456              		.loc 1 85 5 discriminator 163 view .LVU580
 3457 179e A5F56875 		sub	r5, r5, #928
 3458 17a2 AC42     		cmp	r4, r5
 3459 17a4 29D0     		beq	.L480
  85:IMU/bsp_spi.c ****     __HAL_DMA_CLEAR_FLAG (hspi1.hdmatx, __HAL_DMA_GET_TE_FLAG_INDEX(hspi1.hdmatx));
 3460              		.loc 1 85 5 discriminator 165 view .LVU581
 3461 17a6 05F58065 		add	r5, r5, #1024
 3462 17aa AC42     		cmp	r4, r5
 3463 17ac 28D0     		beq	.L481
  85:IMU/bsp_spi.c ****     __HAL_DMA_CLEAR_FLAG (hspi1.hdmatx, __HAL_DMA_GET_TE_FLAG_INDEX(hspi1.hdmatx));
 3464              		.loc 1 85 5 discriminator 167 view .LVU582
 3465 17ae A5F58965 		sub	r5, r5, #1096
 3466 17b2 AC42     		cmp	r4, r5
 3467 17b4 27D0     		beq	.L482
  85:IMU/bsp_spi.c ****     __HAL_DMA_CLEAR_FLAG (hspi1.hdmatx, __HAL_DMA_GET_TE_FLAG_INDEX(hspi1.hdmatx));
 3468              		.loc 1 85 5 discriminator 169 view .LVU583
 3469 17b6 05F58065 		add	r5, r5, #1024
 3470 17ba AC42     		cmp	r4, r5
 3471 17bc 26D0     		beq	.L483
  85:IMU/bsp_spi.c ****     __HAL_DMA_CLEAR_FLAG (hspi1.hdmatx, __HAL_DMA_GET_TE_FLAG_INDEX(hspi1.hdmatx));
 3472              		.loc 1 85 5 discriminator 171 view .LVU584
 3473 17be A5F56875 		sub	r5, r5, #928
 3474 17c2 AC42     		cmp	r4, r5
 3475 17c4 25D0     		beq	.L484
  85:IMU/bsp_spi.c ****     __HAL_DMA_CLEAR_FLAG (hspi1.hdmatx, __HAL_DMA_GET_TE_FLAG_INDEX(hspi1.hdmatx));
 3476              		.loc 1 85 5 discriminator 173 view .LVU585
 3477 17c6 05F58065 		add	r5, r5, #1024
 3478 17ca AC42     		cmp	r4, r5
 3479 17cc 02D0     		beq	.L615
  85:IMU/bsp_spi.c ****     __HAL_DMA_CLEAR_FLAG (hspi1.hdmatx, __HAL_DMA_GET_TE_FLAG_INDEX(hspi1.hdmatx));
 3480              		.loc 1 85 5 view .LVU586
 3481 17ce 4FF00074 		mov	r4, #33554432
 3482 17d2 03E0     		b	.L85
 3483              	.L615:
 3484 17d4 4FF40024 		mov	r4, #524288
 3485 17d8 00E0     		b	.L85
 3486              	.L474:
 3487 17da 0824     		movs	r4, #8
 3488              	.L85:
  85:IMU/bsp_spi.c ****     __HAL_DMA_CLEAR_FLAG (hspi1.hdmatx, __HAL_DMA_GET_TE_FLAG_INDEX(hspi1.hdmatx));
 3489              		.loc 1 85 5 discriminator 200 view .LVU587
 3490 17dc 974D     		ldr	r5, .L639+4
 3491 17de AC60     		str	r4, [r5, #8]
 3492 17e0 A8E6     		b	.L80
 3493              	.L475:
  85:IMU/bsp_spi.c ****     __HAL_DMA_CLEAR_FLAG (hspi1.hdmatx, __HAL_DMA_GET_TE_FLAG_INDEX(hspi1.hdmatx));
 3494              		.loc 1 85 5 view .LVU588
 3495 17e2 0824     		movs	r4, #8
 3496 17e4 FAE7     		b	.L85
 3497              	.L476:
ARM GAS  C:\Users\xixi\AppData\Local\Temp\ccW01pdv.s 			page 71


 3498 17e6 0824     		movs	r4, #8
 3499 17e8 F8E7     		b	.L85
 3500              	.L477:
 3501 17ea 0824     		movs	r4, #8
 3502 17ec F6E7     		b	.L85
 3503              	.L478:
 3504 17ee 4FF40074 		mov	r4, #512
 3505 17f2 F3E7     		b	.L85
 3506              	.L479:
 3507 17f4 4FF40074 		mov	r4, #512
 3508 17f8 F0E7     		b	.L85
 3509              	.L480:
 3510 17fa 4FF40074 		mov	r4, #512
 3511 17fe EDE7     		b	.L85
 3512              	.L481:
 3513 1800 4FF40074 		mov	r4, #512
 3514 1804 EAE7     		b	.L85
 3515              	.L482:
 3516 1806 4FF40024 		mov	r4, #524288
 3517 180a E7E7     		b	.L85
 3518              	.L483:
 3519 180c 4FF40024 		mov	r4, #524288
 3520 1810 E4E7     		b	.L85
 3521              	.L484:
 3522 1812 4FF40024 		mov	r4, #524288
 3523 1816 E1E7     		b	.L85
 3524              	.L612:
 3525              		.loc 1 86 5 view .LVU589
 3526 1818 4FF48025 		mov	r5, #262144
 3527 181c 00E0     		b	.L87
 3528              	.L486:
 3529 181e 0425     		movs	r5, #4
 3530              	.L87:
 3531              		.loc 1 86 5 discriminator 50 view .LVU590
 3532 1820 874C     		ldr	r4, .L639+8
 3533 1822 E560     		str	r5, [r4, #12]
 3534              	.L88:
  87:IMU/bsp_spi.c ****     __HAL_DMA_CLEAR_FLAG (hspi1.hdmatx, __HAL_DMA_GET_FE_FLAG_INDEX(hspi1.hdmatx));
 3535              		.loc 1 87 5 is_stmt 1 view .LVU591
 3536 1824 874C     		ldr	r4, .L639+12
 3537 1826 A46C     		ldr	r4, [r4, #72]
 3538 1828 2468     		ldr	r4, [r4]
 3539 182a 874D     		ldr	r5, .L639+16
 3540 182c AC42     		cmp	r4, r5
 3541 182e 40F29A81 		bls	.L94
 3542              		.loc 1 87 5 is_stmt 0 discriminator 1 view .LVU592
 3543 1832 A5F58965 		sub	r5, r5, #1096
 3544 1836 AC42     		cmp	r4, r5
 3545 1838 00F06981 		beq	.L534
 3546              		.loc 1 87 5 discriminator 3 view .LVU593
 3547 183c 05F58065 		add	r5, r5, #1024
 3548 1840 AC42     		cmp	r4, r5
 3549 1842 00F07981 		beq	.L535
 3550              		.loc 1 87 5 discriminator 5 view .LVU594
 3551 1846 A5F56875 		sub	r5, r5, #928
 3552 184a AC42     		cmp	r4, r5
 3553 184c 00F07681 		beq	.L536
ARM GAS  C:\Users\xixi\AppData\Local\Temp\ccW01pdv.s 			page 72


 3554              		.loc 1 87 5 discriminator 7 view .LVU595
 3555 1850 05F58065 		add	r5, r5, #1024
 3556 1854 AC42     		cmp	r4, r5
 3557 1856 00F07381 		beq	.L537
 3558              		.loc 1 87 5 discriminator 9 view .LVU596
 3559 185a A5F58965 		sub	r5, r5, #1096
 3560 185e AC42     		cmp	r4, r5
 3561 1860 00F07081 		beq	.L538
 3562              		.loc 1 87 5 discriminator 11 view .LVU597
 3563 1864 05F58065 		add	r5, r5, #1024
 3564 1868 AC42     		cmp	r4, r5
 3565 186a 00F06D81 		beq	.L539
 3566              		.loc 1 87 5 discriminator 13 view .LVU598
 3567 186e A5F56875 		sub	r5, r5, #928
 3568 1872 AC42     		cmp	r4, r5
 3569 1874 00F06A81 		beq	.L540
 3570              		.loc 1 87 5 discriminator 15 view .LVU599
 3571 1878 05F58065 		add	r5, r5, #1024
 3572 187c AC42     		cmp	r4, r5
 3573 187e 00F06781 		beq	.L541
 3574              		.loc 1 87 5 discriminator 17 view .LVU600
 3575 1882 A5F58965 		sub	r5, r5, #1096
 3576 1886 AC42     		cmp	r4, r5
 3577 1888 00F06481 		beq	.L542
 3578              		.loc 1 87 5 discriminator 19 view .LVU601
 3579 188c 05F58065 		add	r5, r5, #1024
 3580 1890 AC42     		cmp	r4, r5
 3581 1892 00F06281 		beq	.L543
 3582              		.loc 1 87 5 discriminator 21 view .LVU602
 3583 1896 A5F56875 		sub	r5, r5, #928
 3584 189a AC42     		cmp	r4, r5
 3585 189c 00F06081 		beq	.L544
 3586              		.loc 1 87 5 discriminator 23 view .LVU603
 3587 18a0 05F58065 		add	r5, r5, #1024
 3588 18a4 AC42     		cmp	r4, r5
 3589 18a6 00F02F81 		beq	.L616
 3590              		.loc 1 87 5 view .LVU604
 3591 18aa 4FF48005 		mov	r5, #4194304
 3592 18ae 2FE1     		b	.L95
 3593              	.L487:
  86:IMU/bsp_spi.c ****     __HAL_DMA_CLEAR_FLAG (hspi1.hdmatx, __HAL_DMA_GET_DME_FLAG_INDEX(hspi1.hdmatx));
 3594              		.loc 1 86 5 view .LVU605
 3595 18b0 0425     		movs	r5, #4
 3596 18b2 B5E7     		b	.L87
 3597              	.L488:
 3598 18b4 0425     		movs	r5, #4
 3599 18b6 B3E7     		b	.L87
 3600              	.L489:
 3601 18b8 0425     		movs	r5, #4
 3602 18ba B1E7     		b	.L87
 3603              	.L490:
 3604 18bc 4FF48075 		mov	r5, #256
 3605 18c0 AEE7     		b	.L87
 3606              	.L491:
 3607 18c2 4FF48075 		mov	r5, #256
 3608 18c6 ABE7     		b	.L87
 3609              	.L492:
ARM GAS  C:\Users\xixi\AppData\Local\Temp\ccW01pdv.s 			page 73


 3610 18c8 4FF48075 		mov	r5, #256
 3611 18cc A8E7     		b	.L87
 3612              	.L493:
 3613 18ce 4FF48075 		mov	r5, #256
 3614 18d2 A5E7     		b	.L87
 3615              	.L494:
 3616 18d4 4FF48025 		mov	r5, #262144
 3617 18d8 A2E7     		b	.L87
 3618              	.L495:
 3619 18da 4FF48025 		mov	r5, #262144
 3620 18de 9FE7     		b	.L87
 3621              	.L496:
 3622 18e0 4FF48025 		mov	r5, #262144
 3623 18e4 9CE7     		b	.L87
 3624              	.L86:
  86:IMU/bsp_spi.c ****     __HAL_DMA_CLEAR_FLAG (hspi1.hdmatx, __HAL_DMA_GET_DME_FLAG_INDEX(hspi1.hdmatx));
 3625              		.loc 1 86 5 discriminator 2 view .LVU606
 3626 18e6 594D     		ldr	r5, .L639+20
 3627 18e8 AC42     		cmp	r4, r5
 3628 18ea 53D9     		bls	.L89
  86:IMU/bsp_spi.c ****     __HAL_DMA_CLEAR_FLAG (hspi1.hdmatx, __HAL_DMA_GET_DME_FLAG_INDEX(hspi1.hdmatx));
 3629              		.loc 1 86 5 discriminator 51 view .LVU607
 3630 18ec A83D     		subs	r5, r5, #168
 3631 18ee AC42     		cmp	r4, r5
 3632 18f0 31D0     		beq	.L498
  86:IMU/bsp_spi.c ****     __HAL_DMA_CLEAR_FLAG (hspi1.hdmatx, __HAL_DMA_GET_DME_FLAG_INDEX(hspi1.hdmatx));
 3633              		.loc 1 86 5 discriminator 53 view .LVU608
 3634 18f2 05F58065 		add	r5, r5, #1024
 3635 18f6 AC42     		cmp	r4, r5
 3636 18f8 31D0     		beq	.L499
  86:IMU/bsp_spi.c ****     __HAL_DMA_CLEAR_FLAG (hspi1.hdmatx, __HAL_DMA_GET_DME_FLAG_INDEX(hspi1.hdmatx));
 3637              		.loc 1 86 5 discriminator 55 view .LVU609
 3638 18fa A5F56875 		sub	r5, r5, #928
 3639 18fe AC42     		cmp	r4, r5
 3640 1900 2FD0     		beq	.L500
  86:IMU/bsp_spi.c ****     __HAL_DMA_CLEAR_FLAG (hspi1.hdmatx, __HAL_DMA_GET_DME_FLAG_INDEX(hspi1.hdmatx));
 3641              		.loc 1 86 5 discriminator 57 view .LVU610
 3642 1902 05F58065 		add	r5, r5, #1024
 3643 1906 AC42     		cmp	r4, r5
 3644 1908 2DD0     		beq	.L501
  86:IMU/bsp_spi.c ****     __HAL_DMA_CLEAR_FLAG (hspi1.hdmatx, __HAL_DMA_GET_DME_FLAG_INDEX(hspi1.hdmatx));
 3645              		.loc 1 86 5 discriminator 59 view .LVU611
 3646 190a A5F58965 		sub	r5, r5, #1096
 3647 190e AC42     		cmp	r4, r5
 3648 1910 2BD0     		beq	.L502
  86:IMU/bsp_spi.c ****     __HAL_DMA_CLEAR_FLAG (hspi1.hdmatx, __HAL_DMA_GET_DME_FLAG_INDEX(hspi1.hdmatx));
 3649              		.loc 1 86 5 discriminator 61 view .LVU612
 3650 1912 05F58065 		add	r5, r5, #1024
 3651 1916 AC42     		cmp	r4, r5
 3652 1918 2AD0     		beq	.L503
  86:IMU/bsp_spi.c ****     __HAL_DMA_CLEAR_FLAG (hspi1.hdmatx, __HAL_DMA_GET_DME_FLAG_INDEX(hspi1.hdmatx));
 3653              		.loc 1 86 5 discriminator 63 view .LVU613
 3654 191a A5F56875 		sub	r5, r5, #928
 3655 191e AC42     		cmp	r4, r5
 3656 1920 29D0     		beq	.L504
  86:IMU/bsp_spi.c ****     __HAL_DMA_CLEAR_FLAG (hspi1.hdmatx, __HAL_DMA_GET_DME_FLAG_INDEX(hspi1.hdmatx));
 3657              		.loc 1 86 5 discriminator 65 view .LVU614
ARM GAS  C:\Users\xixi\AppData\Local\Temp\ccW01pdv.s 			page 74


 3658 1922 05F58065 		add	r5, r5, #1024
 3659 1926 AC42     		cmp	r4, r5
 3660 1928 28D0     		beq	.L505
  86:IMU/bsp_spi.c ****     __HAL_DMA_CLEAR_FLAG (hspi1.hdmatx, __HAL_DMA_GET_DME_FLAG_INDEX(hspi1.hdmatx));
 3661              		.loc 1 86 5 discriminator 67 view .LVU615
 3662 192a A5F58965 		sub	r5, r5, #1096
 3663 192e AC42     		cmp	r4, r5
 3664 1930 27D0     		beq	.L506
  86:IMU/bsp_spi.c ****     __HAL_DMA_CLEAR_FLAG (hspi1.hdmatx, __HAL_DMA_GET_DME_FLAG_INDEX(hspi1.hdmatx));
 3665              		.loc 1 86 5 discriminator 69 view .LVU616
 3666 1932 05F58065 		add	r5, r5, #1024
 3667 1936 AC42     		cmp	r4, r5
 3668 1938 26D0     		beq	.L507
  86:IMU/bsp_spi.c ****     __HAL_DMA_CLEAR_FLAG (hspi1.hdmatx, __HAL_DMA_GET_DME_FLAG_INDEX(hspi1.hdmatx));
 3669              		.loc 1 86 5 discriminator 71 view .LVU617
 3670 193a A5F56875 		sub	r5, r5, #928
 3671 193e AC42     		cmp	r4, r5
 3672 1940 25D0     		beq	.L508
  86:IMU/bsp_spi.c ****     __HAL_DMA_CLEAR_FLAG (hspi1.hdmatx, __HAL_DMA_GET_DME_FLAG_INDEX(hspi1.hdmatx));
 3673              		.loc 1 86 5 discriminator 73 view .LVU618
 3674 1942 05F58065 		add	r5, r5, #1024
 3675 1946 AC42     		cmp	r4, r5
 3676 1948 02D0     		beq	.L617
  86:IMU/bsp_spi.c ****     __HAL_DMA_CLEAR_FLAG (hspi1.hdmatx, __HAL_DMA_GET_DME_FLAG_INDEX(hspi1.hdmatx));
 3677              		.loc 1 86 5 view .LVU619
 3678 194a 4FF08074 		mov	r4, #16777216
 3679 194e 03E0     		b	.L90
 3680              	.L617:
 3681 1950 4FF48024 		mov	r4, #262144
 3682 1954 00E0     		b	.L90
 3683              	.L498:
 3684 1956 0424     		movs	r4, #4
 3685              	.L90:
  86:IMU/bsp_spi.c ****     __HAL_DMA_CLEAR_FLAG (hspi1.hdmatx, __HAL_DMA_GET_DME_FLAG_INDEX(hspi1.hdmatx));
 3686              		.loc 1 86 5 discriminator 100 view .LVU620
 3687 1958 394D     		ldr	r5, .L639+8
 3688 195a AC60     		str	r4, [r5, #8]
 3689 195c 62E7     		b	.L88
 3690              	.L499:
  86:IMU/bsp_spi.c ****     __HAL_DMA_CLEAR_FLAG (hspi1.hdmatx, __HAL_DMA_GET_DME_FLAG_INDEX(hspi1.hdmatx));
 3691              		.loc 1 86 5 view .LVU621
 3692 195e 0424     		movs	r4, #4
 3693 1960 FAE7     		b	.L90
 3694              	.L500:
 3695 1962 0424     		movs	r4, #4
 3696 1964 F8E7     		b	.L90
 3697              	.L501:
 3698 1966 0424     		movs	r4, #4
 3699 1968 F6E7     		b	.L90
 3700              	.L502:
 3701 196a 4FF48074 		mov	r4, #256
 3702 196e F3E7     		b	.L90
 3703              	.L503:
 3704 1970 4FF48074 		mov	r4, #256
 3705 1974 F0E7     		b	.L90
 3706              	.L504:
 3707 1976 4FF48074 		mov	r4, #256
ARM GAS  C:\Users\xixi\AppData\Local\Temp\ccW01pdv.s 			page 75


 3708 197a EDE7     		b	.L90
 3709              	.L505:
 3710 197c 4FF48074 		mov	r4, #256
 3711 1980 EAE7     		b	.L90
 3712              	.L506:
 3713 1982 4FF48024 		mov	r4, #262144
 3714 1986 E7E7     		b	.L90
 3715              	.L507:
 3716 1988 4FF48024 		mov	r4, #262144
 3717 198c E4E7     		b	.L90
 3718              	.L508:
 3719 198e 4FF48024 		mov	r4, #262144
 3720 1992 E1E7     		b	.L90
 3721              	.L89:
  86:IMU/bsp_spi.c ****     __HAL_DMA_CLEAR_FLAG (hspi1.hdmatx, __HAL_DMA_GET_DME_FLAG_INDEX(hspi1.hdmatx));
 3722              		.loc 1 86 5 discriminator 52 view .LVU622
 3723 1994 2E4D     		ldr	r5, .L639+24
 3724 1996 AC42     		cmp	r4, r5
 3725 1998 62D9     		bls	.L91
  86:IMU/bsp_spi.c ****     __HAL_DMA_CLEAR_FLAG (hspi1.hdmatx, __HAL_DMA_GET_DME_FLAG_INDEX(hspi1.hdmatx));
 3726              		.loc 1 86 5 discriminator 102 view .LVU623
 3727 199a 483D     		subs	r5, r5, #72
 3728 199c AC42     		cmp	r4, r5
 3729 199e 31D0     		beq	.L510
  86:IMU/bsp_spi.c ****     __HAL_DMA_CLEAR_FLAG (hspi1.hdmatx, __HAL_DMA_GET_DME_FLAG_INDEX(hspi1.hdmatx));
 3730              		.loc 1 86 5 discriminator 104 view .LVU624
 3731 19a0 05F58065 		add	r5, r5, #1024
 3732 19a4 AC42     		cmp	r4, r5
 3733 19a6 31D0     		beq	.L511
  86:IMU/bsp_spi.c ****     __HAL_DMA_CLEAR_FLAG (hspi1.hdmatx, __HAL_DMA_GET_DME_FLAG_INDEX(hspi1.hdmatx));
 3734              		.loc 1 86 5 discriminator 106 view .LVU625
 3735 19a8 A5F56875 		sub	r5, r5, #928
 3736 19ac AC42     		cmp	r4, r5
 3737 19ae 2FD0     		beq	.L512
  86:IMU/bsp_spi.c ****     __HAL_DMA_CLEAR_FLAG (hspi1.hdmatx, __HAL_DMA_GET_DME_FLAG_INDEX(hspi1.hdmatx));
 3738              		.loc 1 86 5 discriminator 108 view .LVU626
 3739 19b0 05F58065 		add	r5, r5, #1024
 3740 19b4 AC42     		cmp	r4, r5
 3741 19b6 2DD0     		beq	.L513
  86:IMU/bsp_spi.c ****     __HAL_DMA_CLEAR_FLAG (hspi1.hdmatx, __HAL_DMA_GET_DME_FLAG_INDEX(hspi1.hdmatx));
 3742              		.loc 1 86 5 discriminator 110 view .LVU627
 3743 19b8 A5F58965 		sub	r5, r5, #1096
 3744 19bc AC42     		cmp	r4, r5
 3745 19be 2BD0     		beq	.L514
  86:IMU/bsp_spi.c ****     __HAL_DMA_CLEAR_FLAG (hspi1.hdmatx, __HAL_DMA_GET_DME_FLAG_INDEX(hspi1.hdmatx));
 3746              		.loc 1 86 5 discriminator 112 view .LVU628
 3747 19c0 05F58065 		add	r5, r5, #1024
 3748 19c4 AC42     		cmp	r4, r5
 3749 19c6 2AD0     		beq	.L515
  86:IMU/bsp_spi.c ****     __HAL_DMA_CLEAR_FLAG (hspi1.hdmatx, __HAL_DMA_GET_DME_FLAG_INDEX(hspi1.hdmatx));
 3750              		.loc 1 86 5 discriminator 114 view .LVU629
 3751 19c8 A5F56875 		sub	r5, r5, #928
 3752 19cc AC42     		cmp	r4, r5
 3753 19ce 29D0     		beq	.L516
  86:IMU/bsp_spi.c ****     __HAL_DMA_CLEAR_FLAG (hspi1.hdmatx, __HAL_DMA_GET_DME_FLAG_INDEX(hspi1.hdmatx));
 3754              		.loc 1 86 5 discriminator 116 view .LVU630
 3755 19d0 05F58065 		add	r5, r5, #1024
ARM GAS  C:\Users\xixi\AppData\Local\Temp\ccW01pdv.s 			page 76


 3756 19d4 AC42     		cmp	r4, r5
 3757 19d6 28D0     		beq	.L517
  86:IMU/bsp_spi.c ****     __HAL_DMA_CLEAR_FLAG (hspi1.hdmatx, __HAL_DMA_GET_DME_FLAG_INDEX(hspi1.hdmatx));
 3758              		.loc 1 86 5 discriminator 118 view .LVU631
 3759 19d8 A5F58965 		sub	r5, r5, #1096
 3760 19dc AC42     		cmp	r4, r5
 3761 19de 27D0     		beq	.L518
  86:IMU/bsp_spi.c ****     __HAL_DMA_CLEAR_FLAG (hspi1.hdmatx, __HAL_DMA_GET_DME_FLAG_INDEX(hspi1.hdmatx));
 3762              		.loc 1 86 5 discriminator 120 view .LVU632
 3763 19e0 05F58065 		add	r5, r5, #1024
 3764 19e4 AC42     		cmp	r4, r5
 3765 19e6 35D0     		beq	.L519
  86:IMU/bsp_spi.c ****     __HAL_DMA_CLEAR_FLAG (hspi1.hdmatx, __HAL_DMA_GET_DME_FLAG_INDEX(hspi1.hdmatx));
 3766              		.loc 1 86 5 discriminator 122 view .LVU633
 3767 19e8 A5F56875 		sub	r5, r5, #928
 3768 19ec AC42     		cmp	r4, r5
 3769 19ee 34D0     		beq	.L520
  86:IMU/bsp_spi.c ****     __HAL_DMA_CLEAR_FLAG (hspi1.hdmatx, __HAL_DMA_GET_DME_FLAG_INDEX(hspi1.hdmatx));
 3770              		.loc 1 86 5 discriminator 124 view .LVU634
 3771 19f0 05F58065 		add	r5, r5, #1024
 3772 19f4 AC42     		cmp	r4, r5
 3773 19f6 02D0     		beq	.L618
  86:IMU/bsp_spi.c ****     __HAL_DMA_CLEAR_FLAG (hspi1.hdmatx, __HAL_DMA_GET_DME_FLAG_INDEX(hspi1.hdmatx));
 3774              		.loc 1 86 5 view .LVU635
 3775 19f8 4FF08074 		mov	r4, #16777216
 3776 19fc 03E0     		b	.L92
 3777              	.L618:
 3778 19fe 4FF48024 		mov	r4, #262144
 3779 1a02 00E0     		b	.L92
 3780              	.L510:
 3781 1a04 0424     		movs	r4, #4
 3782              	.L92:
  86:IMU/bsp_spi.c ****     __HAL_DMA_CLEAR_FLAG (hspi1.hdmatx, __HAL_DMA_GET_DME_FLAG_INDEX(hspi1.hdmatx));
 3783              		.loc 1 86 5 discriminator 151 view .LVU636
 3784 1a06 0D4D     		ldr	r5, .L639+4
 3785 1a08 EC60     		str	r4, [r5, #12]
 3786 1a0a 0BE7     		b	.L88
 3787              	.L511:
  86:IMU/bsp_spi.c ****     __HAL_DMA_CLEAR_FLAG (hspi1.hdmatx, __HAL_DMA_GET_DME_FLAG_INDEX(hspi1.hdmatx));
 3788              		.loc 1 86 5 view .LVU637
 3789 1a0c 0424     		movs	r4, #4
 3790 1a0e FAE7     		b	.L92
 3791              	.L512:
 3792 1a10 0424     		movs	r4, #4
 3793 1a12 F8E7     		b	.L92
 3794              	.L513:
 3795 1a14 0424     		movs	r4, #4
 3796 1a16 F6E7     		b	.L92
 3797              	.L514:
 3798 1a18 4FF48074 		mov	r4, #256
 3799 1a1c F3E7     		b	.L92
 3800              	.L515:
 3801 1a1e 4FF48074 		mov	r4, #256
 3802 1a22 F0E7     		b	.L92
 3803              	.L516:
 3804 1a24 4FF48074 		mov	r4, #256
 3805 1a28 EDE7     		b	.L92
ARM GAS  C:\Users\xixi\AppData\Local\Temp\ccW01pdv.s 			page 77


 3806              	.L517:
 3807 1a2a 4FF48074 		mov	r4, #256
 3808 1a2e EAE7     		b	.L92
 3809              	.L518:
 3810 1a30 4FF48024 		mov	r4, #262144
 3811 1a34 E7E7     		b	.L92
 3812              	.L640:
 3813 1a36 00BF     		.align	2
 3814              	.L639:
 3815 1a38 10600240 		.word	1073897488
 3816 1a3c 00600240 		.word	1073897472
 3817 1a40 00640240 		.word	1073898496
 3818 1a44 00000000 		.word	hspi1
 3819 1a48 58640240 		.word	1073898584
 3820 1a4c B8600240 		.word	1073897656
 3821 1a50 58600240 		.word	1073897560
 3822              	.L519:
 3823 1a54 4FF48024 		mov	r4, #262144
 3824 1a58 D5E7     		b	.L92
 3825              	.L520:
 3826 1a5a 4FF48024 		mov	r4, #262144
 3827 1a5e D2E7     		b	.L92
 3828              	.L91:
  86:IMU/bsp_spi.c ****     __HAL_DMA_CLEAR_FLAG (hspi1.hdmatx, __HAL_DMA_GET_DME_FLAG_INDEX(hspi1.hdmatx));
 3829              		.loc 1 86 5 discriminator 103 view .LVU638
 3830 1a60 944D     		ldr	r5, .L641
 3831 1a62 AC42     		cmp	r4, r5
 3832 1a64 31D0     		beq	.L522
  86:IMU/bsp_spi.c ****     __HAL_DMA_CLEAR_FLAG (hspi1.hdmatx, __HAL_DMA_GET_DME_FLAG_INDEX(hspi1.hdmatx));
 3833              		.loc 1 86 5 discriminator 153 view .LVU639
 3834 1a66 05F58065 		add	r5, r5, #1024
 3835 1a6a AC42     		cmp	r4, r5
 3836 1a6c 31D0     		beq	.L523
  86:IMU/bsp_spi.c ****     __HAL_DMA_CLEAR_FLAG (hspi1.hdmatx, __HAL_DMA_GET_DME_FLAG_INDEX(hspi1.hdmatx));
 3837              		.loc 1 86 5 discriminator 155 view .LVU640
 3838 1a6e A5F56875 		sub	r5, r5, #928
 3839 1a72 AC42     		cmp	r4, r5
 3840 1a74 2FD0     		beq	.L524
  86:IMU/bsp_spi.c ****     __HAL_DMA_CLEAR_FLAG (hspi1.hdmatx, __HAL_DMA_GET_DME_FLAG_INDEX(hspi1.hdmatx));
 3841              		.loc 1 86 5 discriminator 157 view .LVU641
 3842 1a76 05F58065 		add	r5, r5, #1024
 3843 1a7a AC42     		cmp	r4, r5
 3844 1a7c 2DD0     		beq	.L525
  86:IMU/bsp_spi.c ****     __HAL_DMA_CLEAR_FLAG (hspi1.hdmatx, __HAL_DMA_GET_DME_FLAG_INDEX(hspi1.hdmatx));
 3845              		.loc 1 86 5 discriminator 159 view .LVU642
 3846 1a7e A5F58965 		sub	r5, r5, #1096
 3847 1a82 AC42     		cmp	r4, r5
 3848 1a84 2BD0     		beq	.L526
  86:IMU/bsp_spi.c ****     __HAL_DMA_CLEAR_FLAG (hspi1.hdmatx, __HAL_DMA_GET_DME_FLAG_INDEX(hspi1.hdmatx));
 3849              		.loc 1 86 5 discriminator 161 view .LVU643
 3850 1a86 05F58065 		add	r5, r5, #1024
 3851 1a8a AC42     		cmp	r4, r5
 3852 1a8c 2AD0     		beq	.L527
  86:IMU/bsp_spi.c ****     __HAL_DMA_CLEAR_FLAG (hspi1.hdmatx, __HAL_DMA_GET_DME_FLAG_INDEX(hspi1.hdmatx));
 3853              		.loc 1 86 5 discriminator 163 view .LVU644
 3854 1a8e A5F56875 		sub	r5, r5, #928
 3855 1a92 AC42     		cmp	r4, r5
ARM GAS  C:\Users\xixi\AppData\Local\Temp\ccW01pdv.s 			page 78


 3856 1a94 29D0     		beq	.L528
  86:IMU/bsp_spi.c ****     __HAL_DMA_CLEAR_FLAG (hspi1.hdmatx, __HAL_DMA_GET_DME_FLAG_INDEX(hspi1.hdmatx));
 3857              		.loc 1 86 5 discriminator 165 view .LVU645
 3858 1a96 05F58065 		add	r5, r5, #1024
 3859 1a9a AC42     		cmp	r4, r5
 3860 1a9c 28D0     		beq	.L529
  86:IMU/bsp_spi.c ****     __HAL_DMA_CLEAR_FLAG (hspi1.hdmatx, __HAL_DMA_GET_DME_FLAG_INDEX(hspi1.hdmatx));
 3861              		.loc 1 86 5 discriminator 167 view .LVU646
 3862 1a9e A5F58965 		sub	r5, r5, #1096
 3863 1aa2 AC42     		cmp	r4, r5
 3864 1aa4 27D0     		beq	.L530
  86:IMU/bsp_spi.c ****     __HAL_DMA_CLEAR_FLAG (hspi1.hdmatx, __HAL_DMA_GET_DME_FLAG_INDEX(hspi1.hdmatx));
 3865              		.loc 1 86 5 discriminator 169 view .LVU647
 3866 1aa6 05F58065 		add	r5, r5, #1024
 3867 1aaa AC42     		cmp	r4, r5
 3868 1aac 26D0     		beq	.L531
  86:IMU/bsp_spi.c ****     __HAL_DMA_CLEAR_FLAG (hspi1.hdmatx, __HAL_DMA_GET_DME_FLAG_INDEX(hspi1.hdmatx));
 3869              		.loc 1 86 5 discriminator 171 view .LVU648
 3870 1aae A5F56875 		sub	r5, r5, #928
 3871 1ab2 AC42     		cmp	r4, r5
 3872 1ab4 25D0     		beq	.L532
  86:IMU/bsp_spi.c ****     __HAL_DMA_CLEAR_FLAG (hspi1.hdmatx, __HAL_DMA_GET_DME_FLAG_INDEX(hspi1.hdmatx));
 3873              		.loc 1 86 5 discriminator 173 view .LVU649
 3874 1ab6 05F58065 		add	r5, r5, #1024
 3875 1aba AC42     		cmp	r4, r5
 3876 1abc 02D0     		beq	.L619
  86:IMU/bsp_spi.c ****     __HAL_DMA_CLEAR_FLAG (hspi1.hdmatx, __HAL_DMA_GET_DME_FLAG_INDEX(hspi1.hdmatx));
 3877              		.loc 1 86 5 view .LVU650
 3878 1abe 4FF08074 		mov	r4, #16777216
 3879 1ac2 03E0     		b	.L93
 3880              	.L619:
 3881 1ac4 4FF48024 		mov	r4, #262144
 3882 1ac8 00E0     		b	.L93
 3883              	.L522:
 3884 1aca 0424     		movs	r4, #4
 3885              	.L93:
  86:IMU/bsp_spi.c ****     __HAL_DMA_CLEAR_FLAG (hspi1.hdmatx, __HAL_DMA_GET_DME_FLAG_INDEX(hspi1.hdmatx));
 3886              		.loc 1 86 5 discriminator 200 view .LVU651
 3887 1acc 7A4D     		ldr	r5, .L641+4
 3888 1ace AC60     		str	r4, [r5, #8]
 3889 1ad0 A8E6     		b	.L88
 3890              	.L523:
  86:IMU/bsp_spi.c ****     __HAL_DMA_CLEAR_FLAG (hspi1.hdmatx, __HAL_DMA_GET_DME_FLAG_INDEX(hspi1.hdmatx));
 3891              		.loc 1 86 5 view .LVU652
 3892 1ad2 0424     		movs	r4, #4
 3893 1ad4 FAE7     		b	.L93
 3894              	.L524:
 3895 1ad6 0424     		movs	r4, #4
 3896 1ad8 F8E7     		b	.L93
 3897              	.L525:
 3898 1ada 0424     		movs	r4, #4
 3899 1adc F6E7     		b	.L93
 3900              	.L526:
 3901 1ade 4FF48074 		mov	r4, #256
 3902 1ae2 F3E7     		b	.L93
 3903              	.L527:
 3904 1ae4 4FF48074 		mov	r4, #256
ARM GAS  C:\Users\xixi\AppData\Local\Temp\ccW01pdv.s 			page 79


 3905 1ae8 F0E7     		b	.L93
 3906              	.L528:
 3907 1aea 4FF48074 		mov	r4, #256
 3908 1aee EDE7     		b	.L93
 3909              	.L529:
 3910 1af0 4FF48074 		mov	r4, #256
 3911 1af4 EAE7     		b	.L93
 3912              	.L530:
 3913 1af6 4FF48024 		mov	r4, #262144
 3914 1afa E7E7     		b	.L93
 3915              	.L531:
 3916 1afc 4FF48024 		mov	r4, #262144
 3917 1b00 E4E7     		b	.L93
 3918              	.L532:
 3919 1b02 4FF48024 		mov	r4, #262144
 3920 1b06 E1E7     		b	.L93
 3921              	.L616:
 3922              		.loc 1 87 5 view .LVU653
 3923 1b08 4FF48035 		mov	r5, #65536
 3924 1b0c 00E0     		b	.L95
 3925              	.L534:
 3926 1b0e 0125     		movs	r5, #1
 3927              	.L95:
 3928              		.loc 1 87 5 discriminator 50 view .LVU654
 3929 1b10 6A4C     		ldr	r4, .L641+8
 3930 1b12 E560     		str	r5, [r4, #12]
 3931              	.L96:
  88:IMU/bsp_spi.c ****     //set memory address
  89:IMU/bsp_spi.c ****     //设置数据地址
  90:IMU/bsp_spi.c ****     hdma_spi1_rx.Instance->M0AR = rx_buf;
 3932              		.loc 1 90 5 is_stmt 1 view .LVU655
 3933              		.loc 1 90 17 is_stmt 0 view .LVU656
 3934 1b14 6A4C     		ldr	r4, .L641+12
 3935 1b16 2468     		ldr	r4, [r4]
 3936              		.loc 1 90 33 view .LVU657
 3937 1b18 E160     		str	r1, [r4, #12]
  91:IMU/bsp_spi.c ****     hdma_spi1_tx.Instance->M0AR = tx_buf;
 3938              		.loc 1 91 5 is_stmt 1 view .LVU658
 3939              		.loc 1 91 33 is_stmt 0 view .LVU659
 3940 1b1a D860     		str	r0, [r3, #12]
  92:IMU/bsp_spi.c ****     //set data length
  93:IMU/bsp_spi.c ****     //设置数据长度
  94:IMU/bsp_spi.c ****     __HAL_DMA_SET_COUNTER(&hdma_spi1_rx, ndtr);
 3941              		.loc 1 94 5 is_stmt 1 view .LVU660
 3942 1b1c 6260     		str	r2, [r4, #4]
  95:IMU/bsp_spi.c ****     __HAL_DMA_SET_COUNTER(&hdma_spi1_tx, ndtr);
 3943              		.loc 1 95 5 view .LVU661
 3944 1b1e 5A60     		str	r2, [r3, #4]
  96:IMU/bsp_spi.c ****     //enable DMA
  97:IMU/bsp_spi.c ****     //使能DMA
  98:IMU/bsp_spi.c ****     __HAL_DMA_ENABLE(&hdma_spi1_rx);
 3945              		.loc 1 98 5 view .LVU662
 3946 1b20 2368     		ldr	r3, [r4]
 3947 1b22 43F00103 		orr	r3, r3, #1
 3948 1b26 2360     		str	r3, [r4]
  99:IMU/bsp_spi.c ****     __HAL_DMA_ENABLE(&hdma_spi1_tx);
 3949              		.loc 1 99 5 view .LVU663
ARM GAS  C:\Users\xixi\AppData\Local\Temp\ccW01pdv.s 			page 80


 3950 1b28 664B     		ldr	r3, .L641+16
 3951 1b2a 1A68     		ldr	r2, [r3]
 3952              	.LVL5:
 3953              		.loc 1 99 5 is_stmt 0 view .LVU664
 3954 1b2c 1368     		ldr	r3, [r2]
 3955 1b2e 43F00103 		orr	r3, r3, #1
 3956 1b32 1360     		str	r3, [r2]
 100:IMU/bsp_spi.c **** }
 3957              		.loc 1 100 1 view .LVU665
 3958 1b34 30BC     		pop	{r4, r5}
 3959              	.LCFI4:
 3960              		.cfi_remember_state
 3961              		.cfi_restore 5
 3962              		.cfi_restore 4
 3963              		.cfi_def_cfa_offset 0
 3964 1b36 7047     		bx	lr
 3965              	.LVL6:
 3966              	.L535:
 3967              	.LCFI5:
 3968              		.cfi_restore_state
  87:IMU/bsp_spi.c ****     //set memory address
 3969              		.loc 1 87 5 view .LVU666
 3970 1b38 0125     		movs	r5, #1
 3971 1b3a E9E7     		b	.L95
 3972              	.L536:
 3973 1b3c 0125     		movs	r5, #1
 3974 1b3e E7E7     		b	.L95
 3975              	.L537:
 3976 1b40 0125     		movs	r5, #1
 3977 1b42 E5E7     		b	.L95
 3978              	.L538:
 3979 1b44 4025     		movs	r5, #64
 3980 1b46 E3E7     		b	.L95
 3981              	.L539:
 3982 1b48 4025     		movs	r5, #64
 3983 1b4a E1E7     		b	.L95
 3984              	.L540:
 3985 1b4c 4025     		movs	r5, #64
 3986 1b4e DFE7     		b	.L95
 3987              	.L541:
 3988 1b50 4025     		movs	r5, #64
 3989 1b52 DDE7     		b	.L95
 3990              	.L542:
 3991 1b54 4FF48035 		mov	r5, #65536
 3992 1b58 DAE7     		b	.L95
 3993              	.L543:
 3994 1b5a 4FF48035 		mov	r5, #65536
 3995 1b5e D7E7     		b	.L95
 3996              	.L544:
 3997 1b60 4FF48035 		mov	r5, #65536
 3998 1b64 D4E7     		b	.L95
 3999              	.L94:
  87:IMU/bsp_spi.c ****     //set memory address
 4000              		.loc 1 87 5 discriminator 2 view .LVU667
 4001 1b66 584D     		ldr	r5, .L641+20
 4002 1b68 AC42     		cmp	r4, r5
 4003 1b6a 4FD9     		bls	.L97
ARM GAS  C:\Users\xixi\AppData\Local\Temp\ccW01pdv.s 			page 81


  87:IMU/bsp_spi.c ****     //set memory address
 4004              		.loc 1 87 5 discriminator 51 view .LVU668
 4005 1b6c A83D     		subs	r5, r5, #168
 4006 1b6e AC42     		cmp	r4, r5
 4007 1b70 31D0     		beq	.L546
  87:IMU/bsp_spi.c ****     //set memory address
 4008              		.loc 1 87 5 discriminator 53 view .LVU669
 4009 1b72 05F58065 		add	r5, r5, #1024
 4010 1b76 AC42     		cmp	r4, r5
 4011 1b78 31D0     		beq	.L547
  87:IMU/bsp_spi.c ****     //set memory address
 4012              		.loc 1 87 5 discriminator 55 view .LVU670
 4013 1b7a A5F56875 		sub	r5, r5, #928
 4014 1b7e AC42     		cmp	r4, r5
 4015 1b80 2FD0     		beq	.L548
  87:IMU/bsp_spi.c ****     //set memory address
 4016              		.loc 1 87 5 discriminator 57 view .LVU671
 4017 1b82 05F58065 		add	r5, r5, #1024
 4018 1b86 AC42     		cmp	r4, r5
 4019 1b88 2DD0     		beq	.L549
  87:IMU/bsp_spi.c ****     //set memory address
 4020              		.loc 1 87 5 discriminator 59 view .LVU672
 4021 1b8a A5F58965 		sub	r5, r5, #1096
 4022 1b8e AC42     		cmp	r4, r5
 4023 1b90 2BD0     		beq	.L550
  87:IMU/bsp_spi.c ****     //set memory address
 4024              		.loc 1 87 5 discriminator 61 view .LVU673
 4025 1b92 05F58065 		add	r5, r5, #1024
 4026 1b96 AC42     		cmp	r4, r5
 4027 1b98 29D0     		beq	.L551
  87:IMU/bsp_spi.c ****     //set memory address
 4028              		.loc 1 87 5 discriminator 63 view .LVU674
 4029 1b9a A5F56875 		sub	r5, r5, #928
 4030 1b9e AC42     		cmp	r4, r5
 4031 1ba0 27D0     		beq	.L552
  87:IMU/bsp_spi.c ****     //set memory address
 4032              		.loc 1 87 5 discriminator 65 view .LVU675
 4033 1ba2 05F58065 		add	r5, r5, #1024
 4034 1ba6 AC42     		cmp	r4, r5
 4035 1ba8 25D0     		beq	.L553
  87:IMU/bsp_spi.c ****     //set memory address
 4036              		.loc 1 87 5 discriminator 67 view .LVU676
 4037 1baa A5F58965 		sub	r5, r5, #1096
 4038 1bae AC42     		cmp	r4, r5
 4039 1bb0 23D0     		beq	.L554
  87:IMU/bsp_spi.c ****     //set memory address
 4040              		.loc 1 87 5 discriminator 69 view .LVU677
 4041 1bb2 05F58065 		add	r5, r5, #1024
 4042 1bb6 AC42     		cmp	r4, r5
 4043 1bb8 22D0     		beq	.L555
  87:IMU/bsp_spi.c ****     //set memory address
 4044              		.loc 1 87 5 discriminator 71 view .LVU678
 4045 1bba A5F56875 		sub	r5, r5, #928
 4046 1bbe AC42     		cmp	r4, r5
 4047 1bc0 21D0     		beq	.L556
  87:IMU/bsp_spi.c ****     //set memory address
 4048              		.loc 1 87 5 discriminator 73 view .LVU679
ARM GAS  C:\Users\xixi\AppData\Local\Temp\ccW01pdv.s 			page 82


 4049 1bc2 05F58065 		add	r5, r5, #1024
 4050 1bc6 AC42     		cmp	r4, r5
 4051 1bc8 02D0     		beq	.L620
  87:IMU/bsp_spi.c ****     //set memory address
 4052              		.loc 1 87 5 view .LVU680
 4053 1bca 4FF48004 		mov	r4, #4194304
 4054 1bce 03E0     		b	.L98
 4055              	.L620:
 4056 1bd0 4FF48034 		mov	r4, #65536
 4057 1bd4 00E0     		b	.L98
 4058              	.L546:
 4059 1bd6 0124     		movs	r4, #1
 4060              	.L98:
  87:IMU/bsp_spi.c ****     //set memory address
 4061              		.loc 1 87 5 discriminator 100 view .LVU681
 4062 1bd8 384D     		ldr	r5, .L641+8
 4063 1bda AC60     		str	r4, [r5, #8]
 4064 1bdc 9AE7     		b	.L96
 4065              	.L547:
  87:IMU/bsp_spi.c ****     //set memory address
 4066              		.loc 1 87 5 view .LVU682
 4067 1bde 0124     		movs	r4, #1
 4068 1be0 FAE7     		b	.L98
 4069              	.L548:
 4070 1be2 0124     		movs	r4, #1
 4071 1be4 F8E7     		b	.L98
 4072              	.L549:
 4073 1be6 0124     		movs	r4, #1
 4074 1be8 F6E7     		b	.L98
 4075              	.L550:
 4076 1bea 4024     		movs	r4, #64
 4077 1bec F4E7     		b	.L98
 4078              	.L551:
 4079 1bee 4024     		movs	r4, #64
 4080 1bf0 F2E7     		b	.L98
 4081              	.L552:
 4082 1bf2 4024     		movs	r4, #64
 4083 1bf4 F0E7     		b	.L98
 4084              	.L553:
 4085 1bf6 4024     		movs	r4, #64
 4086 1bf8 EEE7     		b	.L98
 4087              	.L554:
 4088 1bfa 4FF48034 		mov	r4, #65536
 4089 1bfe EBE7     		b	.L98
 4090              	.L555:
 4091 1c00 4FF48034 		mov	r4, #65536
 4092 1c04 E8E7     		b	.L98
 4093              	.L556:
 4094 1c06 4FF48034 		mov	r4, #65536
 4095 1c0a E5E7     		b	.L98
 4096              	.L97:
  87:IMU/bsp_spi.c ****     //set memory address
 4097              		.loc 1 87 5 discriminator 52 view .LVU683
 4098 1c0c 2F4D     		ldr	r5, .L641+24
 4099 1c0e AC42     		cmp	r4, r5
 4100 1c10 5ED9     		bls	.L99
  87:IMU/bsp_spi.c ****     //set memory address
ARM GAS  C:\Users\xixi\AppData\Local\Temp\ccW01pdv.s 			page 83


 4101              		.loc 1 87 5 discriminator 102 view .LVU684
 4102 1c12 483D     		subs	r5, r5, #72
 4103 1c14 AC42     		cmp	r4, r5
 4104 1c16 31D0     		beq	.L558
  87:IMU/bsp_spi.c ****     //set memory address
 4105              		.loc 1 87 5 discriminator 104 view .LVU685
 4106 1c18 05F58065 		add	r5, r5, #1024
 4107 1c1c AC42     		cmp	r4, r5
 4108 1c1e 31D0     		beq	.L559
  87:IMU/bsp_spi.c ****     //set memory address
 4109              		.loc 1 87 5 discriminator 106 view .LVU686
 4110 1c20 A5F56875 		sub	r5, r5, #928
 4111 1c24 AC42     		cmp	r4, r5
 4112 1c26 2FD0     		beq	.L560
  87:IMU/bsp_spi.c ****     //set memory address
 4113              		.loc 1 87 5 discriminator 108 view .LVU687
 4114 1c28 05F58065 		add	r5, r5, #1024
 4115 1c2c AC42     		cmp	r4, r5
 4116 1c2e 2DD0     		beq	.L561
  87:IMU/bsp_spi.c ****     //set memory address
 4117              		.loc 1 87 5 discriminator 110 view .LVU688
 4118 1c30 A5F58965 		sub	r5, r5, #1096
 4119 1c34 AC42     		cmp	r4, r5
 4120 1c36 2BD0     		beq	.L562
  87:IMU/bsp_spi.c ****     //set memory address
 4121              		.loc 1 87 5 discriminator 112 view .LVU689
 4122 1c38 05F58065 		add	r5, r5, #1024
 4123 1c3c AC42     		cmp	r4, r5
 4124 1c3e 29D0     		beq	.L563
  87:IMU/bsp_spi.c ****     //set memory address
 4125              		.loc 1 87 5 discriminator 114 view .LVU690
 4126 1c40 A5F56875 		sub	r5, r5, #928
 4127 1c44 AC42     		cmp	r4, r5
 4128 1c46 27D0     		beq	.L564
  87:IMU/bsp_spi.c ****     //set memory address
 4129              		.loc 1 87 5 discriminator 116 view .LVU691
 4130 1c48 05F58065 		add	r5, r5, #1024
 4131 1c4c AC42     		cmp	r4, r5
 4132 1c4e 25D0     		beq	.L565
  87:IMU/bsp_spi.c ****     //set memory address
 4133              		.loc 1 87 5 discriminator 118 view .LVU692
 4134 1c50 A5F58965 		sub	r5, r5, #1096
 4135 1c54 AC42     		cmp	r4, r5
 4136 1c56 23D0     		beq	.L566
  87:IMU/bsp_spi.c ****     //set memory address
 4137              		.loc 1 87 5 discriminator 120 view .LVU693
 4138 1c58 05F58065 		add	r5, r5, #1024
 4139 1c5c AC42     		cmp	r4, r5
 4140 1c5e 22D0     		beq	.L567
  87:IMU/bsp_spi.c ****     //set memory address
 4141              		.loc 1 87 5 discriminator 122 view .LVU694
 4142 1c60 A5F56875 		sub	r5, r5, #928
 4143 1c64 AC42     		cmp	r4, r5
 4144 1c66 21D0     		beq	.L568
  87:IMU/bsp_spi.c ****     //set memory address
 4145              		.loc 1 87 5 discriminator 124 view .LVU695
 4146 1c68 05F58065 		add	r5, r5, #1024
ARM GAS  C:\Users\xixi\AppData\Local\Temp\ccW01pdv.s 			page 84


 4147 1c6c AC42     		cmp	r4, r5
 4148 1c6e 02D0     		beq	.L621
  87:IMU/bsp_spi.c ****     //set memory address
 4149              		.loc 1 87 5 view .LVU696
 4150 1c70 4FF48004 		mov	r4, #4194304
 4151 1c74 03E0     		b	.L100
 4152              	.L621:
 4153 1c76 4FF48034 		mov	r4, #65536
 4154 1c7a 00E0     		b	.L100
 4155              	.L558:
 4156 1c7c 0124     		movs	r4, #1
 4157              	.L100:
  87:IMU/bsp_spi.c ****     //set memory address
 4158              		.loc 1 87 5 discriminator 151 view .LVU697
 4159 1c7e 0E4D     		ldr	r5, .L641+4
 4160 1c80 EC60     		str	r4, [r5, #12]
 4161 1c82 47E7     		b	.L96
 4162              	.L559:
  87:IMU/bsp_spi.c ****     //set memory address
 4163              		.loc 1 87 5 view .LVU698
 4164 1c84 0124     		movs	r4, #1
 4165 1c86 FAE7     		b	.L100
 4166              	.L560:
 4167 1c88 0124     		movs	r4, #1
 4168 1c8a F8E7     		b	.L100
 4169              	.L561:
 4170 1c8c 0124     		movs	r4, #1
 4171 1c8e F6E7     		b	.L100
 4172              	.L562:
 4173 1c90 4024     		movs	r4, #64
 4174 1c92 F4E7     		b	.L100
 4175              	.L563:
 4176 1c94 4024     		movs	r4, #64
 4177 1c96 F2E7     		b	.L100
 4178              	.L564:
 4179 1c98 4024     		movs	r4, #64
 4180 1c9a F0E7     		b	.L100
 4181              	.L565:
 4182 1c9c 4024     		movs	r4, #64
 4183 1c9e EEE7     		b	.L100
 4184              	.L566:
 4185 1ca0 4FF48034 		mov	r4, #65536
 4186 1ca4 EBE7     		b	.L100
 4187              	.L567:
 4188 1ca6 4FF48034 		mov	r4, #65536
 4189 1caa E8E7     		b	.L100
 4190              	.L568:
 4191 1cac 4FF48034 		mov	r4, #65536
 4192 1cb0 E5E7     		b	.L100
 4193              	.L642:
 4194 1cb2 00BF     		.align	2
 4195              	.L641:
 4196 1cb4 10600240 		.word	1073897488
 4197 1cb8 00600240 		.word	1073897472
 4198 1cbc 00640240 		.word	1073898496
 4199 1cc0 00000000 		.word	hdma_spi1_rx
 4200 1cc4 00000000 		.word	hdma_spi1_tx
ARM GAS  C:\Users\xixi\AppData\Local\Temp\ccW01pdv.s 			page 85


 4201 1cc8 B8600240 		.word	1073897656
 4202 1ccc 58600240 		.word	1073897560
 4203              	.L99:
  87:IMU/bsp_spi.c ****     //set memory address
 4204              		.loc 1 87 5 discriminator 103 view .LVU699
 4205 1cd0 274D     		ldr	r5, .L643
 4206 1cd2 AC42     		cmp	r4, r5
 4207 1cd4 31D0     		beq	.L570
  87:IMU/bsp_spi.c ****     //set memory address
 4208              		.loc 1 87 5 discriminator 153 view .LVU700
 4209 1cd6 05F58065 		add	r5, r5, #1024
 4210 1cda AC42     		cmp	r4, r5
 4211 1cdc 31D0     		beq	.L571
  87:IMU/bsp_spi.c ****     //set memory address
 4212              		.loc 1 87 5 discriminator 155 view .LVU701
 4213 1cde A5F56875 		sub	r5, r5, #928
 4214 1ce2 AC42     		cmp	r4, r5
 4215 1ce4 2FD0     		beq	.L572
  87:IMU/bsp_spi.c ****     //set memory address
 4216              		.loc 1 87 5 discriminator 157 view .LVU702
 4217 1ce6 05F58065 		add	r5, r5, #1024
 4218 1cea AC42     		cmp	r4, r5
 4219 1cec 2DD0     		beq	.L573
  87:IMU/bsp_spi.c ****     //set memory address
 4220              		.loc 1 87 5 discriminator 159 view .LVU703
 4221 1cee A5F58965 		sub	r5, r5, #1096
 4222 1cf2 AC42     		cmp	r4, r5
 4223 1cf4 2BD0     		beq	.L574
  87:IMU/bsp_spi.c ****     //set memory address
 4224              		.loc 1 87 5 discriminator 161 view .LVU704
 4225 1cf6 05F58065 		add	r5, r5, #1024
 4226 1cfa AC42     		cmp	r4, r5
 4227 1cfc 29D0     		beq	.L575
  87:IMU/bsp_spi.c ****     //set memory address
 4228              		.loc 1 87 5 discriminator 163 view .LVU705
 4229 1cfe A5F56875 		sub	r5, r5, #928
 4230 1d02 AC42     		cmp	r4, r5
 4231 1d04 27D0     		beq	.L576
  87:IMU/bsp_spi.c ****     //set memory address
 4232              		.loc 1 87 5 discriminator 165 view .LVU706
 4233 1d06 05F58065 		add	r5, r5, #1024
 4234 1d0a AC42     		cmp	r4, r5
 4235 1d0c 25D0     		beq	.L577
  87:IMU/bsp_spi.c ****     //set memory address
 4236              		.loc 1 87 5 discriminator 167 view .LVU707
 4237 1d0e A5F58965 		sub	r5, r5, #1096
 4238 1d12 AC42     		cmp	r4, r5
 4239 1d14 23D0     		beq	.L578
  87:IMU/bsp_spi.c ****     //set memory address
 4240              		.loc 1 87 5 discriminator 169 view .LVU708
 4241 1d16 05F58065 		add	r5, r5, #1024
 4242 1d1a AC42     		cmp	r4, r5
 4243 1d1c 22D0     		beq	.L579
  87:IMU/bsp_spi.c ****     //set memory address
 4244              		.loc 1 87 5 discriminator 171 view .LVU709
 4245 1d1e A5F56875 		sub	r5, r5, #928
 4246 1d22 AC42     		cmp	r4, r5
ARM GAS  C:\Users\xixi\AppData\Local\Temp\ccW01pdv.s 			page 86


 4247 1d24 21D0     		beq	.L580
  87:IMU/bsp_spi.c ****     //set memory address
 4248              		.loc 1 87 5 discriminator 173 view .LVU710
 4249 1d26 05F58065 		add	r5, r5, #1024
 4250 1d2a AC42     		cmp	r4, r5
 4251 1d2c 02D0     		beq	.L622
  87:IMU/bsp_spi.c ****     //set memory address
 4252              		.loc 1 87 5 view .LVU711
 4253 1d2e 4FF48004 		mov	r4, #4194304
 4254 1d32 03E0     		b	.L101
 4255              	.L622:
 4256 1d34 4FF48034 		mov	r4, #65536
 4257 1d38 00E0     		b	.L101
 4258              	.L570:
 4259 1d3a 0124     		movs	r4, #1
 4260              	.L101:
  87:IMU/bsp_spi.c ****     //set memory address
 4261              		.loc 1 87 5 discriminator 200 view .LVU712
 4262 1d3c 0D4D     		ldr	r5, .L643+4
 4263 1d3e AC60     		str	r4, [r5, #8]
 4264 1d40 E8E6     		b	.L96
 4265              	.L571:
  87:IMU/bsp_spi.c ****     //set memory address
 4266              		.loc 1 87 5 view .LVU713
 4267 1d42 0124     		movs	r4, #1
 4268 1d44 FAE7     		b	.L101
 4269              	.L572:
 4270 1d46 0124     		movs	r4, #1
 4271 1d48 F8E7     		b	.L101
 4272              	.L573:
 4273 1d4a 0124     		movs	r4, #1
 4274 1d4c F6E7     		b	.L101
 4275              	.L574:
 4276 1d4e 4024     		movs	r4, #64
 4277 1d50 F4E7     		b	.L101
 4278              	.L575:
 4279 1d52 4024     		movs	r4, #64
 4280 1d54 F2E7     		b	.L101
 4281              	.L576:
 4282 1d56 4024     		movs	r4, #64
 4283 1d58 F0E7     		b	.L101
 4284              	.L577:
 4285 1d5a 4024     		movs	r4, #64
 4286 1d5c EEE7     		b	.L101
 4287              	.L578:
 4288 1d5e 4FF48034 		mov	r4, #65536
 4289 1d62 EBE7     		b	.L101
 4290              	.L579:
 4291 1d64 4FF48034 		mov	r4, #65536
 4292 1d68 E8E7     		b	.L101
 4293              	.L580:
 4294 1d6a 4FF48034 		mov	r4, #65536
 4295 1d6e E5E7     		b	.L101
 4296              	.L644:
 4297              		.align	2
 4298              	.L643:
 4299 1d70 10600240 		.word	1073897488
ARM GAS  C:\Users\xixi\AppData\Local\Temp\ccW01pdv.s 			page 87


 4300 1d74 00600240 		.word	1073897472
 4301              		.cfi_endproc
 4302              	.LFE131:
 4304              		.text
 4305              	.Letext0:
 4306              		.file 2 "c:\\program files (x86)\\gnu arm embedded toolchain\\10 2021.10\\arm-none-eabi\\include\\
 4307              		.file 3 "c:\\program files (x86)\\gnu arm embedded toolchain\\10 2021.10\\arm-none-eabi\\include\\
 4308              		.file 4 "Drivers/CMSIS/Device/ST/STM32F4xx/Include/stm32f407xx.h"
 4309              		.file 5 "Drivers/STM32F4xx_HAL_Driver/Inc/stm32f4xx_hal_def.h"
 4310              		.file 6 "Drivers/STM32F4xx_HAL_Driver/Inc/stm32f4xx_hal_dma.h"
 4311              		.file 7 "Drivers/STM32F4xx_HAL_Driver/Inc/stm32f4xx_hal_spi.h"
ARM GAS  C:\Users\xixi\AppData\Local\Temp\ccW01pdv.s 			page 88

