ARM GAS  C:\Users\xixi\AppData\Local\Temp\cc6f05Dg.s 			page 1


   1              		.cpu cortex-m4
   2              		.arch armv7e-m
   3              		.fpu fpv4-sp-d16
   4              		.eabi_attribute 27, 1
   5              		.eabi_attribute 28, 1
   6              		.eabi_attribute 20, 1
   7              		.eabi_attribute 21, 1
   8              		.eabi_attribute 23, 3
   9              		.eabi_attribute 24, 1
  10              		.eabi_attribute 25, 1
  11              		.eabi_attribute 26, 1
  12              		.eabi_attribute 30, 1
  13              		.eabi_attribute 34, 1
  14              		.eabi_attribute 18, 4
  15              		.file	"bsp_can.c"
  16              		.text
  17              	.Ltext0:
  18              		.cfi_sections	.debug_frame
  19              		.section	.text.can_filter_init,"ax",%progbits
  20              		.align	1
  21              		.global	can_filter_init
  22              		.syntax unified
  23              		.thumb
  24              		.thumb_func
  26              	can_filter_init:
  27              	.LFB133:
  28              		.file 1 "Core/Src/bsp_can.c"
   1:Core/Src/bsp_can.c **** #include "bsp_can.h"
   2:Core/Src/bsp_can.c **** 
   3:Core/Src/bsp_can.c **** 
   4:Core/Src/bsp_can.c **** 
   5:Core/Src/bsp_can.c **** extern CAN_HandleTypeDef hcan1;
   6:Core/Src/bsp_can.c **** 
   7:Core/Src/bsp_can.c **** 
   8:Core/Src/bsp_can.c **** void can_filter_init(void)
   9:Core/Src/bsp_can.c **** {
  29              		.loc 1 9 1 view -0
  30              		.cfi_startproc
  31              		@ args = 0, pretend = 0, frame = 40
  32              		@ frame_needed = 0, uses_anonymous_args = 0
  33 0000 10B5     		push	{r4, lr}
  34              	.LCFI0:
  35              		.cfi_def_cfa_offset 8
  36              		.cfi_offset 4, -8
  37              		.cfi_offset 14, -4
  38 0002 8AB0     		sub	sp, sp, #40
  39              	.LCFI1:
  40              		.cfi_def_cfa_offset 48
  10:Core/Src/bsp_can.c **** 
  11:Core/Src/bsp_can.c ****     CAN_FilterTypeDef can_filter_st;
  41              		.loc 1 11 5 view .LVU1
  12:Core/Src/bsp_can.c ****     can_filter_st.FilterActivation = ENABLE;
  42              		.loc 1 12 5 view .LVU2
  43              		.loc 1 12 36 is_stmt 0 view .LVU3
  44 0004 0122     		movs	r2, #1
  45 0006 0892     		str	r2, [sp, #32]
  13:Core/Src/bsp_can.c ****     can_filter_st.FilterMode = CAN_FILTERMODE_IDMASK;
ARM GAS  C:\Users\xixi\AppData\Local\Temp\cc6f05Dg.s 			page 2


  46              		.loc 1 13 5 is_stmt 1 view .LVU4
  47              		.loc 1 13 30 is_stmt 0 view .LVU5
  48 0008 0023     		movs	r3, #0
  49 000a 0693     		str	r3, [sp, #24]
  14:Core/Src/bsp_can.c ****     can_filter_st.FilterScale = CAN_FILTERSCALE_32BIT;
  50              		.loc 1 14 5 is_stmt 1 view .LVU6
  51              		.loc 1 14 31 is_stmt 0 view .LVU7
  52 000c 0792     		str	r2, [sp, #28]
  15:Core/Src/bsp_can.c ****     can_filter_st.FilterIdHigh = 0x0000;
  53              		.loc 1 15 5 is_stmt 1 view .LVU8
  54              		.loc 1 15 32 is_stmt 0 view .LVU9
  55 000e 0093     		str	r3, [sp]
  16:Core/Src/bsp_can.c ****     can_filter_st.FilterIdLow = 0x0000;
  56              		.loc 1 16 5 is_stmt 1 view .LVU10
  57              		.loc 1 16 31 is_stmt 0 view .LVU11
  58 0010 0193     		str	r3, [sp, #4]
  17:Core/Src/bsp_can.c ****     can_filter_st.FilterMaskIdHigh = 0x0000;
  59              		.loc 1 17 5 is_stmt 1 view .LVU12
  60              		.loc 1 17 36 is_stmt 0 view .LVU13
  61 0012 0293     		str	r3, [sp, #8]
  18:Core/Src/bsp_can.c ****     can_filter_st.FilterMaskIdLow = 0x0000;
  62              		.loc 1 18 5 is_stmt 1 view .LVU14
  63              		.loc 1 18 35 is_stmt 0 view .LVU15
  64 0014 0393     		str	r3, [sp, #12]
  19:Core/Src/bsp_can.c ****     can_filter_st.FilterBank = 0;
  65              		.loc 1 19 5 is_stmt 1 view .LVU16
  66              		.loc 1 19 30 is_stmt 0 view .LVU17
  67 0016 0593     		str	r3, [sp, #20]
  20:Core/Src/bsp_can.c ****     can_filter_st.FilterFIFOAssignment = CAN_RX_FIFO0;
  68              		.loc 1 20 5 is_stmt 1 view .LVU18
  69              		.loc 1 20 40 is_stmt 0 view .LVU19
  70 0018 0493     		str	r3, [sp, #16]
  21:Core/Src/bsp_can.c ****     HAL_CAN_ConfigFilter(&hcan1, &can_filter_st);
  71              		.loc 1 21 5 is_stmt 1 view .LVU20
  72 001a 074C     		ldr	r4, .L3
  73 001c 6946     		mov	r1, sp
  74 001e 2046     		mov	r0, r4
  75 0020 FFF7FEFF 		bl	HAL_CAN_ConfigFilter
  76              	.LVL0:
  22:Core/Src/bsp_can.c ****     HAL_CAN_Start(&hcan1);
  77              		.loc 1 22 5 view .LVU21
  78 0024 2046     		mov	r0, r4
  79 0026 FFF7FEFF 		bl	HAL_CAN_Start
  80              	.LVL1:
  23:Core/Src/bsp_can.c ****     HAL_CAN_ActivateNotification(&hcan1, CAN_IT_RX_FIFO0_MSG_PENDING);
  81              		.loc 1 23 5 view .LVU22
  82 002a 0221     		movs	r1, #2
  83 002c 2046     		mov	r0, r4
  84 002e FFF7FEFF 		bl	HAL_CAN_ActivateNotification
  85              	.LVL2:
  24:Core/Src/bsp_can.c **** 
  25:Core/Src/bsp_can.c **** 
  26:Core/Src/bsp_can.c **** 
  27:Core/Src/bsp_can.c **** 
  28:Core/Src/bsp_can.c **** 
  29:Core/Src/bsp_can.c **** 
  30:Core/Src/bsp_can.c **** }
ARM GAS  C:\Users\xixi\AppData\Local\Temp\cc6f05Dg.s 			page 3


  86              		.loc 1 30 1 is_stmt 0 view .LVU23
  87 0032 0AB0     		add	sp, sp, #40
  88              	.LCFI2:
  89              		.cfi_def_cfa_offset 8
  90              		@ sp needed
  91 0034 10BD     		pop	{r4, pc}
  92              	.L4:
  93 0036 00BF     		.align	2
  94              	.L3:
  95 0038 00000000 		.word	hcan1
  96              		.cfi_endproc
  97              	.LFE133:
  99              		.text
 100              	.Letext0:
 101              		.file 2 "c:\\program files (x86)\\gnu arm embedded toolchain\\10 2021.10\\arm-none-eabi\\include\\
 102              		.file 3 "c:\\program files (x86)\\gnu arm embedded toolchain\\10 2021.10\\arm-none-eabi\\include\\
 103              		.file 4 "Drivers/CMSIS/Device/ST/STM32F4xx/Include/stm32f407xx.h"
 104              		.file 5 "Drivers/CMSIS/Device/ST/STM32F4xx/Include/stm32f4xx.h"
 105              		.file 6 "Drivers/STM32F4xx_HAL_Driver/Inc/stm32f4xx_hal_can.h"
ARM GAS  C:\Users\xixi\AppData\Local\Temp\cc6f05Dg.s 			page 4

