ARM GAS  C:\Users\xixi\AppData\Local\Temp\ccei1Zb6.s 			page 1


   1              		.cpu cortex-m4
   2              		.arch armv7e-m
   3              		.fpu fpv4-sp-d16
   4              		.eabi_attribute 27, 1
   5              		.eabi_attribute 28, 1
   6              		.eabi_attribute 20, 1
   7              		.eabi_attribute 21, 1
   8              		.eabi_attribute 23, 3
   9              		.eabi_attribute 24, 1
  10              		.eabi_attribute 25, 1
  11              		.eabi_attribute 26, 1
  12              		.eabi_attribute 30, 1
  13              		.eabi_attribute 34, 1
  14              		.eabi_attribute 18, 4
  15              		.file	"cmsis_os.c"
  16              		.text
  17              	.Ltext0:
  18              		.cfi_sections	.debug_frame
  19              		.section	.text.makeFreeRtosPriority,"ax",%progbits
  20              		.align	1
  21              		.syntax unified
  22              		.thumb
  23              		.thumb_func
  25              	makeFreeRtosPriority:
  26              	.LVL0:
  27              	.LFB107:
  28              		.file 1 "Middlewares/Third_Party/FreeRTOS/Source/CMSIS_RTOS/cmsis_os.c"
   1:Middlewares/Third_Party/FreeRTOS/Source/CMSIS_RTOS/cmsis_os.c **** /* ----------------------------------------------------------------------
   2:Middlewares/Third_Party/FreeRTOS/Source/CMSIS_RTOS/cmsis_os.c ****  * $Date:        5. February 2013
   3:Middlewares/Third_Party/FreeRTOS/Source/CMSIS_RTOS/cmsis_os.c ****  * $Revision:    V1.02
   4:Middlewares/Third_Party/FreeRTOS/Source/CMSIS_RTOS/cmsis_os.c ****  *
   5:Middlewares/Third_Party/FreeRTOS/Source/CMSIS_RTOS/cmsis_os.c ****  * Project:      CMSIS-RTOS API
   6:Middlewares/Third_Party/FreeRTOS/Source/CMSIS_RTOS/cmsis_os.c ****  * Title:        cmsis_os.c
   7:Middlewares/Third_Party/FreeRTOS/Source/CMSIS_RTOS/cmsis_os.c ****  *
   8:Middlewares/Third_Party/FreeRTOS/Source/CMSIS_RTOS/cmsis_os.c ****  * Version 0.02
   9:Middlewares/Third_Party/FreeRTOS/Source/CMSIS_RTOS/cmsis_os.c ****  *    Initial Proposal Phase
  10:Middlewares/Third_Party/FreeRTOS/Source/CMSIS_RTOS/cmsis_os.c ****  * Version 0.03
  11:Middlewares/Third_Party/FreeRTOS/Source/CMSIS_RTOS/cmsis_os.c ****  *    osKernelStart added, optional feature: main started as thread
  12:Middlewares/Third_Party/FreeRTOS/Source/CMSIS_RTOS/cmsis_os.c ****  *    osSemaphores have standard behavior
  13:Middlewares/Third_Party/FreeRTOS/Source/CMSIS_RTOS/cmsis_os.c ****  *    osTimerCreate does not start the timer, added osTimerStart
  14:Middlewares/Third_Party/FreeRTOS/Source/CMSIS_RTOS/cmsis_os.c ****  *    osThreadPass is renamed to osThreadYield
  15:Middlewares/Third_Party/FreeRTOS/Source/CMSIS_RTOS/cmsis_os.c ****  * Version 1.01
  16:Middlewares/Third_Party/FreeRTOS/Source/CMSIS_RTOS/cmsis_os.c ****  *    Support for C++ interface
  17:Middlewares/Third_Party/FreeRTOS/Source/CMSIS_RTOS/cmsis_os.c ****  *     - const attribute removed from the osXxxxDef_t typedef's
  18:Middlewares/Third_Party/FreeRTOS/Source/CMSIS_RTOS/cmsis_os.c ****  *     - const attribute added to the osXxxxDef macros
  19:Middlewares/Third_Party/FreeRTOS/Source/CMSIS_RTOS/cmsis_os.c ****  *    Added: osTimerDelete, osMutexDelete, osSemaphoreDelete
  20:Middlewares/Third_Party/FreeRTOS/Source/CMSIS_RTOS/cmsis_os.c ****  *    Added: osKernelInitialize
  21:Middlewares/Third_Party/FreeRTOS/Source/CMSIS_RTOS/cmsis_os.c ****  * Version 1.02
  22:Middlewares/Third_Party/FreeRTOS/Source/CMSIS_RTOS/cmsis_os.c ****  *    Control functions for short timeouts in microsecond resolution:
  23:Middlewares/Third_Party/FreeRTOS/Source/CMSIS_RTOS/cmsis_os.c ****  *    Added: osKernelSysTick, osKernelSysTickFrequency, osKernelSysTickMicroSec
  24:Middlewares/Third_Party/FreeRTOS/Source/CMSIS_RTOS/cmsis_os.c ****  *    Removed: osSignalGet 
  25:Middlewares/Third_Party/FreeRTOS/Source/CMSIS_RTOS/cmsis_os.c ****  *    
  26:Middlewares/Third_Party/FreeRTOS/Source/CMSIS_RTOS/cmsis_os.c ****  *  
  27:Middlewares/Third_Party/FreeRTOS/Source/CMSIS_RTOS/cmsis_os.c ****  *----------------------------------------------------------------------------
  28:Middlewares/Third_Party/FreeRTOS/Source/CMSIS_RTOS/cmsis_os.c ****  *
  29:Middlewares/Third_Party/FreeRTOS/Source/CMSIS_RTOS/cmsis_os.c ****  * Portions Copyright © 2016 STMicroelectronics International N.V. All rights reserved.
  30:Middlewares/Third_Party/FreeRTOS/Source/CMSIS_RTOS/cmsis_os.c ****  * Portions Copyright (c) 2013 ARM LIMITED
ARM GAS  C:\Users\xixi\AppData\Local\Temp\ccei1Zb6.s 			page 2


  31:Middlewares/Third_Party/FreeRTOS/Source/CMSIS_RTOS/cmsis_os.c ****  * All rights reserved.
  32:Middlewares/Third_Party/FreeRTOS/Source/CMSIS_RTOS/cmsis_os.c ****  * Redistribution and use in source and binary forms, with or without
  33:Middlewares/Third_Party/FreeRTOS/Source/CMSIS_RTOS/cmsis_os.c ****  * modification, are permitted provided that the following conditions are met:
  34:Middlewares/Third_Party/FreeRTOS/Source/CMSIS_RTOS/cmsis_os.c ****  *  - Redistributions of source code must retain the above copyright
  35:Middlewares/Third_Party/FreeRTOS/Source/CMSIS_RTOS/cmsis_os.c ****  *    notice, this list of conditions and the following disclaimer.
  36:Middlewares/Third_Party/FreeRTOS/Source/CMSIS_RTOS/cmsis_os.c ****  *  - Redistributions in binary form must reproduce the above copyright
  37:Middlewares/Third_Party/FreeRTOS/Source/CMSIS_RTOS/cmsis_os.c ****  *    notice, this list of conditions and the following disclaimer in the
  38:Middlewares/Third_Party/FreeRTOS/Source/CMSIS_RTOS/cmsis_os.c ****  *    documentation and/or other materials provided with the distribution.
  39:Middlewares/Third_Party/FreeRTOS/Source/CMSIS_RTOS/cmsis_os.c ****  *  - Neither the name of ARM  nor the names of its contributors may be used
  40:Middlewares/Third_Party/FreeRTOS/Source/CMSIS_RTOS/cmsis_os.c ****  *    to endorse or promote products derived from this software without
  41:Middlewares/Third_Party/FreeRTOS/Source/CMSIS_RTOS/cmsis_os.c ****  *    specific prior written permission.
  42:Middlewares/Third_Party/FreeRTOS/Source/CMSIS_RTOS/cmsis_os.c ****  *
  43:Middlewares/Third_Party/FreeRTOS/Source/CMSIS_RTOS/cmsis_os.c ****  * THIS SOFTWARE IS PROVIDED BY THE COPYRIGHT HOLDERS AND CONTRIBUTORS "AS IS"
  44:Middlewares/Third_Party/FreeRTOS/Source/CMSIS_RTOS/cmsis_os.c ****  * AND ANY EXPRESS OR IMPLIED WARRANTIES, INCLUDING, BUT NOT LIMITED TO, THE
  45:Middlewares/Third_Party/FreeRTOS/Source/CMSIS_RTOS/cmsis_os.c ****  * IMPLIED WARRANTIES OF MERCHANTABILITY AND FITNESS FOR A PARTICULAR PURPOSE
  46:Middlewares/Third_Party/FreeRTOS/Source/CMSIS_RTOS/cmsis_os.c ****  * ARE DISCLAIMED. IN NO EVENT SHALL COPYRIGHT HOLDERS AND CONTRIBUTORS BE
  47:Middlewares/Third_Party/FreeRTOS/Source/CMSIS_RTOS/cmsis_os.c ****  * LIABLE FOR ANY DIRECT, INDIRECT, INCIDENTAL, SPECIAL, EXEMPLARY, OR
  48:Middlewares/Third_Party/FreeRTOS/Source/CMSIS_RTOS/cmsis_os.c ****  * CONSEQUENTIAL DAMAGES (INCLUDING, BUT NOT LIMITED TO, PROCUREMENT OF
  49:Middlewares/Third_Party/FreeRTOS/Source/CMSIS_RTOS/cmsis_os.c ****  * SUBSTITUTE GOODS OR SERVICES; LOSS OF USE, DATA, OR PROFITS; OR BUSINESS
  50:Middlewares/Third_Party/FreeRTOS/Source/CMSIS_RTOS/cmsis_os.c ****  * INTERRUPTION) HOWEVER CAUSED AND ON ANY THEORY OF LIABILITY, WHETHER IN
  51:Middlewares/Third_Party/FreeRTOS/Source/CMSIS_RTOS/cmsis_os.c ****  * CONTRACT, STRICT LIABILITY, OR TORT (INCLUDING NEGLIGENCE OR OTHERWISE)
  52:Middlewares/Third_Party/FreeRTOS/Source/CMSIS_RTOS/cmsis_os.c ****  * ARISING IN ANY WAY OUT OF THE USE OF THIS SOFTWARE, EVEN IF ADVISED OF THE
  53:Middlewares/Third_Party/FreeRTOS/Source/CMSIS_RTOS/cmsis_os.c ****  * POSSIBILITY OF SUCH DAMAGE.
  54:Middlewares/Third_Party/FreeRTOS/Source/CMSIS_RTOS/cmsis_os.c ****  *---------------------------------------------------------------------------*/
  55:Middlewares/Third_Party/FreeRTOS/Source/CMSIS_RTOS/cmsis_os.c **** 
  56:Middlewares/Third_Party/FreeRTOS/Source/CMSIS_RTOS/cmsis_os.c ****  /**
  57:Middlewares/Third_Party/FreeRTOS/Source/CMSIS_RTOS/cmsis_os.c ****   ******************************************************************************
  58:Middlewares/Third_Party/FreeRTOS/Source/CMSIS_RTOS/cmsis_os.c ****   * @file    cmsis_os.c
  59:Middlewares/Third_Party/FreeRTOS/Source/CMSIS_RTOS/cmsis_os.c ****   * @author  MCD Application Team
  60:Middlewares/Third_Party/FreeRTOS/Source/CMSIS_RTOS/cmsis_os.c ****   * @date    13-July-2017
  61:Middlewares/Third_Party/FreeRTOS/Source/CMSIS_RTOS/cmsis_os.c ****   * @brief   CMSIS-RTOS API implementation for FreeRTOS V10.0.1
  62:Middlewares/Third_Party/FreeRTOS/Source/CMSIS_RTOS/cmsis_os.c ****   ******************************************************************************
  63:Middlewares/Third_Party/FreeRTOS/Source/CMSIS_RTOS/cmsis_os.c ****   * @attention
  64:Middlewares/Third_Party/FreeRTOS/Source/CMSIS_RTOS/cmsis_os.c ****   *
  65:Middlewares/Third_Party/FreeRTOS/Source/CMSIS_RTOS/cmsis_os.c ****   * Redistribution and use in source and binary forms, with or without 
  66:Middlewares/Third_Party/FreeRTOS/Source/CMSIS_RTOS/cmsis_os.c ****   * modification, are permitted, provided that the following conditions are met:
  67:Middlewares/Third_Party/FreeRTOS/Source/CMSIS_RTOS/cmsis_os.c ****   *
  68:Middlewares/Third_Party/FreeRTOS/Source/CMSIS_RTOS/cmsis_os.c ****   * 1. Redistribution of source code must retain the above copyright notice, 
  69:Middlewares/Third_Party/FreeRTOS/Source/CMSIS_RTOS/cmsis_os.c ****   *    this list of conditions and the following disclaimer.
  70:Middlewares/Third_Party/FreeRTOS/Source/CMSIS_RTOS/cmsis_os.c ****   * 2. Redistributions in binary form must reproduce the above copyright notice,
  71:Middlewares/Third_Party/FreeRTOS/Source/CMSIS_RTOS/cmsis_os.c ****   *    this list of conditions and the following disclaimer in the documentation
  72:Middlewares/Third_Party/FreeRTOS/Source/CMSIS_RTOS/cmsis_os.c ****   *    and/or other materials provided with the distribution.
  73:Middlewares/Third_Party/FreeRTOS/Source/CMSIS_RTOS/cmsis_os.c ****   * 3. Neither the name of STMicroelectronics nor the names of other 
  74:Middlewares/Third_Party/FreeRTOS/Source/CMSIS_RTOS/cmsis_os.c ****   *    contributors to this software may be used to endorse or promote products 
  75:Middlewares/Third_Party/FreeRTOS/Source/CMSIS_RTOS/cmsis_os.c ****   *    derived from this software without specific written permission.
  76:Middlewares/Third_Party/FreeRTOS/Source/CMSIS_RTOS/cmsis_os.c ****   * 4. This software, including modifications and/or derivative works of this 
  77:Middlewares/Third_Party/FreeRTOS/Source/CMSIS_RTOS/cmsis_os.c ****   *    software, must execute solely and exclusively on microcontroller or
  78:Middlewares/Third_Party/FreeRTOS/Source/CMSIS_RTOS/cmsis_os.c ****   *    microprocessor devices manufactured by or for STMicroelectronics.
  79:Middlewares/Third_Party/FreeRTOS/Source/CMSIS_RTOS/cmsis_os.c ****   * 5. Redistribution and use of this software other than as permitted under 
  80:Middlewares/Third_Party/FreeRTOS/Source/CMSIS_RTOS/cmsis_os.c ****   *    this license is void and will automatically terminate your rights under 
  81:Middlewares/Third_Party/FreeRTOS/Source/CMSIS_RTOS/cmsis_os.c ****   *    this license. 
  82:Middlewares/Third_Party/FreeRTOS/Source/CMSIS_RTOS/cmsis_os.c ****   *
  83:Middlewares/Third_Party/FreeRTOS/Source/CMSIS_RTOS/cmsis_os.c ****   * THIS SOFTWARE IS PROVIDED BY STMICROELECTRONICS AND CONTRIBUTORS "AS IS" 
  84:Middlewares/Third_Party/FreeRTOS/Source/CMSIS_RTOS/cmsis_os.c ****   * AND ANY EXPRESS, IMPLIED OR STATUTORY WARRANTIES, INCLUDING, BUT NOT 
  85:Middlewares/Third_Party/FreeRTOS/Source/CMSIS_RTOS/cmsis_os.c ****   * LIMITED TO, THE IMPLIED WARRANTIES OF MERCHANTABILITY, FITNESS FOR A 
  86:Middlewares/Third_Party/FreeRTOS/Source/CMSIS_RTOS/cmsis_os.c ****   * PARTICULAR PURPOSE AND NON-INFRINGEMENT OF THIRD PARTY INTELLECTUAL PROPERTY
  87:Middlewares/Third_Party/FreeRTOS/Source/CMSIS_RTOS/cmsis_os.c ****   * RIGHTS ARE DISCLAIMED TO THE FULLEST EXTENT PERMITTED BY LAW. IN NO EVENT 
ARM GAS  C:\Users\xixi\AppData\Local\Temp\ccei1Zb6.s 			page 3


  88:Middlewares/Third_Party/FreeRTOS/Source/CMSIS_RTOS/cmsis_os.c ****   * SHALL STMICROELECTRONICS OR CONTRIBUTORS BE LIABLE FOR ANY DIRECT, INDIRECT,
  89:Middlewares/Third_Party/FreeRTOS/Source/CMSIS_RTOS/cmsis_os.c ****   * INCIDENTAL, SPECIAL, EXEMPLARY, OR CONSEQUENTIAL DAMAGES (INCLUDING, BUT NOT
  90:Middlewares/Third_Party/FreeRTOS/Source/CMSIS_RTOS/cmsis_os.c ****   * LIMITED TO, PROCUREMENT OF SUBSTITUTE GOODS OR SERVICES; LOSS OF USE, DATA, 
  91:Middlewares/Third_Party/FreeRTOS/Source/CMSIS_RTOS/cmsis_os.c ****   * OR PROFITS; OR BUSINESS INTERRUPTION) HOWEVER CAUSED AND ON ANY THEORY OF 
  92:Middlewares/Third_Party/FreeRTOS/Source/CMSIS_RTOS/cmsis_os.c ****   * LIABILITY, WHETHER IN CONTRACT, STRICT LIABILITY, OR TORT (INCLUDING 
  93:Middlewares/Third_Party/FreeRTOS/Source/CMSIS_RTOS/cmsis_os.c ****   * NEGLIGENCE OR OTHERWISE) ARISING IN ANY WAY OUT OF THE USE OF THIS SOFTWARE,
  94:Middlewares/Third_Party/FreeRTOS/Source/CMSIS_RTOS/cmsis_os.c ****   * EVEN IF ADVISED OF THE POSSIBILITY OF SUCH DAMAGE.
  95:Middlewares/Third_Party/FreeRTOS/Source/CMSIS_RTOS/cmsis_os.c ****   *
  96:Middlewares/Third_Party/FreeRTOS/Source/CMSIS_RTOS/cmsis_os.c ****   ******************************************************************************
  97:Middlewares/Third_Party/FreeRTOS/Source/CMSIS_RTOS/cmsis_os.c ****   */ 
  98:Middlewares/Third_Party/FreeRTOS/Source/CMSIS_RTOS/cmsis_os.c **** 
  99:Middlewares/Third_Party/FreeRTOS/Source/CMSIS_RTOS/cmsis_os.c **** #include <string.h>
 100:Middlewares/Third_Party/FreeRTOS/Source/CMSIS_RTOS/cmsis_os.c **** #include "cmsis_os.h"
 101:Middlewares/Third_Party/FreeRTOS/Source/CMSIS_RTOS/cmsis_os.c **** 
 102:Middlewares/Third_Party/FreeRTOS/Source/CMSIS_RTOS/cmsis_os.c **** /*
 103:Middlewares/Third_Party/FreeRTOS/Source/CMSIS_RTOS/cmsis_os.c ****  * ARM Compiler 4/5
 104:Middlewares/Third_Party/FreeRTOS/Source/CMSIS_RTOS/cmsis_os.c ****  */
 105:Middlewares/Third_Party/FreeRTOS/Source/CMSIS_RTOS/cmsis_os.c **** #if   defined ( __CC_ARM )
 106:Middlewares/Third_Party/FreeRTOS/Source/CMSIS_RTOS/cmsis_os.c **** 
 107:Middlewares/Third_Party/FreeRTOS/Source/CMSIS_RTOS/cmsis_os.c ****   #define __ASM            __asm                                      
 108:Middlewares/Third_Party/FreeRTOS/Source/CMSIS_RTOS/cmsis_os.c ****   #define __INLINE         __inline                                     
 109:Middlewares/Third_Party/FreeRTOS/Source/CMSIS_RTOS/cmsis_os.c ****   #define __STATIC_INLINE  static __inline
 110:Middlewares/Third_Party/FreeRTOS/Source/CMSIS_RTOS/cmsis_os.c **** 
 111:Middlewares/Third_Party/FreeRTOS/Source/CMSIS_RTOS/cmsis_os.c ****   #include "cmsis_armcc.h"
 112:Middlewares/Third_Party/FreeRTOS/Source/CMSIS_RTOS/cmsis_os.c **** 
 113:Middlewares/Third_Party/FreeRTOS/Source/CMSIS_RTOS/cmsis_os.c **** /*
 114:Middlewares/Third_Party/FreeRTOS/Source/CMSIS_RTOS/cmsis_os.c ****  * GNU Compiler
 115:Middlewares/Third_Party/FreeRTOS/Source/CMSIS_RTOS/cmsis_os.c ****  */
 116:Middlewares/Third_Party/FreeRTOS/Source/CMSIS_RTOS/cmsis_os.c **** #elif defined ( __GNUC__ )
 117:Middlewares/Third_Party/FreeRTOS/Source/CMSIS_RTOS/cmsis_os.c **** 
 118:Middlewares/Third_Party/FreeRTOS/Source/CMSIS_RTOS/cmsis_os.c ****   #define __ASM            __asm                                      /*!< asm keyword for GNU Comp
 119:Middlewares/Third_Party/FreeRTOS/Source/CMSIS_RTOS/cmsis_os.c ****   #define __INLINE         inline                                     /*!< inline keyword for GNU C
 120:Middlewares/Third_Party/FreeRTOS/Source/CMSIS_RTOS/cmsis_os.c ****   #define __STATIC_INLINE  static inline
 121:Middlewares/Third_Party/FreeRTOS/Source/CMSIS_RTOS/cmsis_os.c **** 
 122:Middlewares/Third_Party/FreeRTOS/Source/CMSIS_RTOS/cmsis_os.c ****   #include "cmsis_gcc.h"
 123:Middlewares/Third_Party/FreeRTOS/Source/CMSIS_RTOS/cmsis_os.c **** 
 124:Middlewares/Third_Party/FreeRTOS/Source/CMSIS_RTOS/cmsis_os.c **** 
 125:Middlewares/Third_Party/FreeRTOS/Source/CMSIS_RTOS/cmsis_os.c **** /*
 126:Middlewares/Third_Party/FreeRTOS/Source/CMSIS_RTOS/cmsis_os.c ****  * IAR Compiler
 127:Middlewares/Third_Party/FreeRTOS/Source/CMSIS_RTOS/cmsis_os.c ****  */
 128:Middlewares/Third_Party/FreeRTOS/Source/CMSIS_RTOS/cmsis_os.c **** #elif defined ( __ICCARM__ )
 129:Middlewares/Third_Party/FreeRTOS/Source/CMSIS_RTOS/cmsis_os.c **** 
 130:Middlewares/Third_Party/FreeRTOS/Source/CMSIS_RTOS/cmsis_os.c ****   #ifndef   __ASM
 131:Middlewares/Third_Party/FreeRTOS/Source/CMSIS_RTOS/cmsis_os.c ****     #define __ASM                     __asm
 132:Middlewares/Third_Party/FreeRTOS/Source/CMSIS_RTOS/cmsis_os.c ****   #endif
 133:Middlewares/Third_Party/FreeRTOS/Source/CMSIS_RTOS/cmsis_os.c ****   #ifndef   __INLINE
 134:Middlewares/Third_Party/FreeRTOS/Source/CMSIS_RTOS/cmsis_os.c ****     #define __INLINE                  inline
 135:Middlewares/Third_Party/FreeRTOS/Source/CMSIS_RTOS/cmsis_os.c ****   #endif
 136:Middlewares/Third_Party/FreeRTOS/Source/CMSIS_RTOS/cmsis_os.c ****   #ifndef   __STATIC_INLINE
 137:Middlewares/Third_Party/FreeRTOS/Source/CMSIS_RTOS/cmsis_os.c ****     #define __STATIC_INLINE           static inline
 138:Middlewares/Third_Party/FreeRTOS/Source/CMSIS_RTOS/cmsis_os.c ****   #endif
 139:Middlewares/Third_Party/FreeRTOS/Source/CMSIS_RTOS/cmsis_os.c **** 
 140:Middlewares/Third_Party/FreeRTOS/Source/CMSIS_RTOS/cmsis_os.c ****   #include <cmsis_iar.h>
 141:Middlewares/Third_Party/FreeRTOS/Source/CMSIS_RTOS/cmsis_os.c **** #endif
 142:Middlewares/Third_Party/FreeRTOS/Source/CMSIS_RTOS/cmsis_os.c **** 
 143:Middlewares/Third_Party/FreeRTOS/Source/CMSIS_RTOS/cmsis_os.c **** extern void xPortSysTickHandler(void);
 144:Middlewares/Third_Party/FreeRTOS/Source/CMSIS_RTOS/cmsis_os.c **** 
ARM GAS  C:\Users\xixi\AppData\Local\Temp\ccei1Zb6.s 			page 4


 145:Middlewares/Third_Party/FreeRTOS/Source/CMSIS_RTOS/cmsis_os.c **** /* Convert from CMSIS type osPriority to FreeRTOS priority number */
 146:Middlewares/Third_Party/FreeRTOS/Source/CMSIS_RTOS/cmsis_os.c **** static unsigned portBASE_TYPE makeFreeRtosPriority (osPriority priority)
 147:Middlewares/Third_Party/FreeRTOS/Source/CMSIS_RTOS/cmsis_os.c **** {
  29              		.loc 1 147 1 view -0
  30              		.cfi_startproc
  31              		@ args = 0, pretend = 0, frame = 0
  32              		@ frame_needed = 0, uses_anonymous_args = 0
  33              		@ link register save eliminated.
 148:Middlewares/Third_Party/FreeRTOS/Source/CMSIS_RTOS/cmsis_os.c ****   unsigned portBASE_TYPE fpriority = tskIDLE_PRIORITY;
  34              		.loc 1 148 3 view .LVU1
 149:Middlewares/Third_Party/FreeRTOS/Source/CMSIS_RTOS/cmsis_os.c ****   
 150:Middlewares/Third_Party/FreeRTOS/Source/CMSIS_RTOS/cmsis_os.c ****   if (priority != osPriorityError) {
  35              		.loc 1 150 3 view .LVU2
  36              		.loc 1 150 6 is_stmt 0 view .LVU3
  37 0000 8428     		cmp	r0, #132
  38 0002 01D0     		beq	.L3
 151:Middlewares/Third_Party/FreeRTOS/Source/CMSIS_RTOS/cmsis_os.c ****     fpriority += (priority - osPriorityIdle);
  39              		.loc 1 151 5 is_stmt 1 view .LVU4
  40              		.loc 1 151 15 is_stmt 0 view .LVU5
  41 0004 0330     		adds	r0, r0, #3
  42              	.LVL1:
  43              		.loc 1 151 15 view .LVU6
  44 0006 7047     		bx	lr
  45              	.LVL2:
  46              	.L3:
 148:Middlewares/Third_Party/FreeRTOS/Source/CMSIS_RTOS/cmsis_os.c ****   unsigned portBASE_TYPE fpriority = tskIDLE_PRIORITY;
  47              		.loc 1 148 26 view .LVU7
  48 0008 0020     		movs	r0, #0
  49              	.LVL3:
 152:Middlewares/Third_Party/FreeRTOS/Source/CMSIS_RTOS/cmsis_os.c ****   }
 153:Middlewares/Third_Party/FreeRTOS/Source/CMSIS_RTOS/cmsis_os.c ****   
 154:Middlewares/Third_Party/FreeRTOS/Source/CMSIS_RTOS/cmsis_os.c ****   return fpriority;
  50              		.loc 1 154 3 is_stmt 1 view .LVU8
 155:Middlewares/Third_Party/FreeRTOS/Source/CMSIS_RTOS/cmsis_os.c **** }
  51              		.loc 1 155 1 is_stmt 0 view .LVU9
  52 000a 7047     		bx	lr
  53              		.cfi_endproc
  54              	.LFE107:
  56              		.section	.text.makeCmsisPriority,"ax",%progbits
  57              		.align	1
  58              		.syntax unified
  59              		.thumb
  60              		.thumb_func
  62              	makeCmsisPriority:
  63              	.LVL4:
  64              	.LFB108:
 156:Middlewares/Third_Party/FreeRTOS/Source/CMSIS_RTOS/cmsis_os.c **** 
 157:Middlewares/Third_Party/FreeRTOS/Source/CMSIS_RTOS/cmsis_os.c **** #if (INCLUDE_uxTaskPriorityGet == 1)
 158:Middlewares/Third_Party/FreeRTOS/Source/CMSIS_RTOS/cmsis_os.c **** /* Convert from FreeRTOS priority number to CMSIS type osPriority */
 159:Middlewares/Third_Party/FreeRTOS/Source/CMSIS_RTOS/cmsis_os.c **** static osPriority makeCmsisPriority (unsigned portBASE_TYPE fpriority)
 160:Middlewares/Third_Party/FreeRTOS/Source/CMSIS_RTOS/cmsis_os.c **** {
  65              		.loc 1 160 1 is_stmt 1 view -0
  66              		.cfi_startproc
  67              		@ args = 0, pretend = 0, frame = 0
  68              		@ frame_needed = 0, uses_anonymous_args = 0
  69              		@ link register save eliminated.
 161:Middlewares/Third_Party/FreeRTOS/Source/CMSIS_RTOS/cmsis_os.c ****   osPriority priority = osPriorityError;
ARM GAS  C:\Users\xixi\AppData\Local\Temp\ccei1Zb6.s 			page 5


  70              		.loc 1 161 3 view .LVU11
 162:Middlewares/Third_Party/FreeRTOS/Source/CMSIS_RTOS/cmsis_os.c ****   
 163:Middlewares/Third_Party/FreeRTOS/Source/CMSIS_RTOS/cmsis_os.c ****   if ((fpriority - tskIDLE_PRIORITY) <= (osPriorityRealtime - osPriorityIdle)) {
  71              		.loc 1 163 3 view .LVU12
  72              		.loc 1 163 6 is_stmt 0 view .LVU13
  73 0000 0628     		cmp	r0, #6
  74 0002 02D8     		bhi	.L6
 164:Middlewares/Third_Party/FreeRTOS/Source/CMSIS_RTOS/cmsis_os.c ****     priority = (osPriority)((int)osPriorityIdle + (int)(fpriority - tskIDLE_PRIORITY));
  75              		.loc 1 164 5 is_stmt 1 view .LVU14
  76              		.loc 1 164 49 is_stmt 0 view .LVU15
  77 0004 0338     		subs	r0, r0, #3
  78              	.LVL5:
  79              		.loc 1 164 14 view .LVU16
  80 0006 00B2     		sxth	r0, r0
  81              	.LVL6:
  82              		.loc 1 164 14 view .LVU17
  83 0008 7047     		bx	lr
  84              	.LVL7:
  85              	.L6:
 161:Middlewares/Third_Party/FreeRTOS/Source/CMSIS_RTOS/cmsis_os.c ****   osPriority priority = osPriorityError;
  86              		.loc 1 161 14 view .LVU18
  87 000a 8420     		movs	r0, #132
  88              	.LVL8:
 165:Middlewares/Third_Party/FreeRTOS/Source/CMSIS_RTOS/cmsis_os.c ****   }
 166:Middlewares/Third_Party/FreeRTOS/Source/CMSIS_RTOS/cmsis_os.c ****   
 167:Middlewares/Third_Party/FreeRTOS/Source/CMSIS_RTOS/cmsis_os.c ****   return priority;
  89              		.loc 1 167 3 is_stmt 1 view .LVU19
 168:Middlewares/Third_Party/FreeRTOS/Source/CMSIS_RTOS/cmsis_os.c **** }
  90              		.loc 1 168 1 is_stmt 0 view .LVU20
  91 000c 7047     		bx	lr
  92              		.cfi_endproc
  93              	.LFE108:
  95              		.section	.text.inHandlerMode,"ax",%progbits
  96              		.align	1
  97              		.syntax unified
  98              		.thumb
  99              		.thumb_func
 101              	inHandlerMode:
 102              	.LFB109:
 169:Middlewares/Third_Party/FreeRTOS/Source/CMSIS_RTOS/cmsis_os.c **** #endif
 170:Middlewares/Third_Party/FreeRTOS/Source/CMSIS_RTOS/cmsis_os.c **** 
 171:Middlewares/Third_Party/FreeRTOS/Source/CMSIS_RTOS/cmsis_os.c **** 
 172:Middlewares/Third_Party/FreeRTOS/Source/CMSIS_RTOS/cmsis_os.c **** /* Determine whether we are in thread mode or handler mode. */
 173:Middlewares/Third_Party/FreeRTOS/Source/CMSIS_RTOS/cmsis_os.c **** static int inHandlerMode (void)
 174:Middlewares/Third_Party/FreeRTOS/Source/CMSIS_RTOS/cmsis_os.c **** {
 103              		.loc 1 174 1 is_stmt 1 view -0
 104              		.cfi_startproc
 105              		@ args = 0, pretend = 0, frame = 0
 106              		@ frame_needed = 0, uses_anonymous_args = 0
 107              		@ link register save eliminated.
 175:Middlewares/Third_Party/FreeRTOS/Source/CMSIS_RTOS/cmsis_os.c ****   return __get_IPSR() != 0;
 108              		.loc 1 175 3 view .LVU22
 109              	.LBB8:
 110              	.LBI8:
 111              		.file 2 "Drivers/CMSIS/Include/cmsis_gcc.h"
   1:Drivers/CMSIS/Include/cmsis_gcc.h **** /**************************************************************************//**
   2:Drivers/CMSIS/Include/cmsis_gcc.h ****  * @file     cmsis_gcc.h
ARM GAS  C:\Users\xixi\AppData\Local\Temp\ccei1Zb6.s 			page 6


   3:Drivers/CMSIS/Include/cmsis_gcc.h ****  * @brief    CMSIS compiler GCC header file
   4:Drivers/CMSIS/Include/cmsis_gcc.h ****  * @version  V5.0.4
   5:Drivers/CMSIS/Include/cmsis_gcc.h ****  * @date     09. April 2018
   6:Drivers/CMSIS/Include/cmsis_gcc.h ****  ******************************************************************************/
   7:Drivers/CMSIS/Include/cmsis_gcc.h **** /*
   8:Drivers/CMSIS/Include/cmsis_gcc.h ****  * Copyright (c) 2009-2018 Arm Limited. All rights reserved.
   9:Drivers/CMSIS/Include/cmsis_gcc.h ****  *
  10:Drivers/CMSIS/Include/cmsis_gcc.h ****  * SPDX-License-Identifier: Apache-2.0
  11:Drivers/CMSIS/Include/cmsis_gcc.h ****  *
  12:Drivers/CMSIS/Include/cmsis_gcc.h ****  * Licensed under the Apache License, Version 2.0 (the License); you may
  13:Drivers/CMSIS/Include/cmsis_gcc.h ****  * not use this file except in compliance with the License.
  14:Drivers/CMSIS/Include/cmsis_gcc.h ****  * You may obtain a copy of the License at
  15:Drivers/CMSIS/Include/cmsis_gcc.h ****  *
  16:Drivers/CMSIS/Include/cmsis_gcc.h ****  * www.apache.org/licenses/LICENSE-2.0
  17:Drivers/CMSIS/Include/cmsis_gcc.h ****  *
  18:Drivers/CMSIS/Include/cmsis_gcc.h ****  * Unless required by applicable law or agreed to in writing, software
  19:Drivers/CMSIS/Include/cmsis_gcc.h ****  * distributed under the License is distributed on an AS IS BASIS, WITHOUT
  20:Drivers/CMSIS/Include/cmsis_gcc.h ****  * WARRANTIES OR CONDITIONS OF ANY KIND, either express or implied.
  21:Drivers/CMSIS/Include/cmsis_gcc.h ****  * See the License for the specific language governing permissions and
  22:Drivers/CMSIS/Include/cmsis_gcc.h ****  * limitations under the License.
  23:Drivers/CMSIS/Include/cmsis_gcc.h ****  */
  24:Drivers/CMSIS/Include/cmsis_gcc.h **** 
  25:Drivers/CMSIS/Include/cmsis_gcc.h **** #ifndef __CMSIS_GCC_H
  26:Drivers/CMSIS/Include/cmsis_gcc.h **** #define __CMSIS_GCC_H
  27:Drivers/CMSIS/Include/cmsis_gcc.h **** 
  28:Drivers/CMSIS/Include/cmsis_gcc.h **** /* ignore some GCC warnings */
  29:Drivers/CMSIS/Include/cmsis_gcc.h **** #pragma GCC diagnostic push
  30:Drivers/CMSIS/Include/cmsis_gcc.h **** #pragma GCC diagnostic ignored "-Wsign-conversion"
  31:Drivers/CMSIS/Include/cmsis_gcc.h **** #pragma GCC diagnostic ignored "-Wconversion"
  32:Drivers/CMSIS/Include/cmsis_gcc.h **** #pragma GCC diagnostic ignored "-Wunused-parameter"
  33:Drivers/CMSIS/Include/cmsis_gcc.h **** 
  34:Drivers/CMSIS/Include/cmsis_gcc.h **** /* Fallback for __has_builtin */
  35:Drivers/CMSIS/Include/cmsis_gcc.h **** #ifndef __has_builtin
  36:Drivers/CMSIS/Include/cmsis_gcc.h ****   #define __has_builtin(x) (0)
  37:Drivers/CMSIS/Include/cmsis_gcc.h **** #endif
  38:Drivers/CMSIS/Include/cmsis_gcc.h **** 
  39:Drivers/CMSIS/Include/cmsis_gcc.h **** /* CMSIS compiler specific defines */
  40:Drivers/CMSIS/Include/cmsis_gcc.h **** #ifndef   __ASM
  41:Drivers/CMSIS/Include/cmsis_gcc.h ****   #define __ASM                                  __asm
  42:Drivers/CMSIS/Include/cmsis_gcc.h **** #endif
  43:Drivers/CMSIS/Include/cmsis_gcc.h **** #ifndef   __INLINE
  44:Drivers/CMSIS/Include/cmsis_gcc.h ****   #define __INLINE                               inline
  45:Drivers/CMSIS/Include/cmsis_gcc.h **** #endif
  46:Drivers/CMSIS/Include/cmsis_gcc.h **** #ifndef   __STATIC_INLINE
  47:Drivers/CMSIS/Include/cmsis_gcc.h ****   #define __STATIC_INLINE                        static inline
  48:Drivers/CMSIS/Include/cmsis_gcc.h **** #endif
  49:Drivers/CMSIS/Include/cmsis_gcc.h **** #ifndef   __STATIC_FORCEINLINE                 
  50:Drivers/CMSIS/Include/cmsis_gcc.h ****   #define __STATIC_FORCEINLINE                   __attribute__((always_inline)) static inline
  51:Drivers/CMSIS/Include/cmsis_gcc.h **** #endif                                           
  52:Drivers/CMSIS/Include/cmsis_gcc.h **** #ifndef   __NO_RETURN
  53:Drivers/CMSIS/Include/cmsis_gcc.h ****   #define __NO_RETURN                            __attribute__((__noreturn__))
  54:Drivers/CMSIS/Include/cmsis_gcc.h **** #endif
  55:Drivers/CMSIS/Include/cmsis_gcc.h **** #ifndef   __USED
  56:Drivers/CMSIS/Include/cmsis_gcc.h ****   #define __USED                                 __attribute__((used))
  57:Drivers/CMSIS/Include/cmsis_gcc.h **** #endif
  58:Drivers/CMSIS/Include/cmsis_gcc.h **** #ifndef   __WEAK
  59:Drivers/CMSIS/Include/cmsis_gcc.h ****   #define __WEAK                                 __attribute__((weak))
ARM GAS  C:\Users\xixi\AppData\Local\Temp\ccei1Zb6.s 			page 7


  60:Drivers/CMSIS/Include/cmsis_gcc.h **** #endif
  61:Drivers/CMSIS/Include/cmsis_gcc.h **** #ifndef   __PACKED
  62:Drivers/CMSIS/Include/cmsis_gcc.h ****   #define __PACKED                               __attribute__((packed, aligned(1)))
  63:Drivers/CMSIS/Include/cmsis_gcc.h **** #endif
  64:Drivers/CMSIS/Include/cmsis_gcc.h **** #ifndef   __PACKED_STRUCT
  65:Drivers/CMSIS/Include/cmsis_gcc.h ****   #define __PACKED_STRUCT                        struct __attribute__((packed, aligned(1)))
  66:Drivers/CMSIS/Include/cmsis_gcc.h **** #endif
  67:Drivers/CMSIS/Include/cmsis_gcc.h **** #ifndef   __PACKED_UNION
  68:Drivers/CMSIS/Include/cmsis_gcc.h ****   #define __PACKED_UNION                         union __attribute__((packed, aligned(1)))
  69:Drivers/CMSIS/Include/cmsis_gcc.h **** #endif
  70:Drivers/CMSIS/Include/cmsis_gcc.h **** #ifndef   __UNALIGNED_UINT32        /* deprecated */
  71:Drivers/CMSIS/Include/cmsis_gcc.h ****   #pragma GCC diagnostic push
  72:Drivers/CMSIS/Include/cmsis_gcc.h ****   #pragma GCC diagnostic ignored "-Wpacked"
  73:Drivers/CMSIS/Include/cmsis_gcc.h ****   #pragma GCC diagnostic ignored "-Wattributes"
  74:Drivers/CMSIS/Include/cmsis_gcc.h ****   struct __attribute__((packed)) T_UINT32 { uint32_t v; };
  75:Drivers/CMSIS/Include/cmsis_gcc.h ****   #pragma GCC diagnostic pop
  76:Drivers/CMSIS/Include/cmsis_gcc.h ****   #define __UNALIGNED_UINT32(x)                  (((struct T_UINT32 *)(x))->v)
  77:Drivers/CMSIS/Include/cmsis_gcc.h **** #endif
  78:Drivers/CMSIS/Include/cmsis_gcc.h **** #ifndef   __UNALIGNED_UINT16_WRITE
  79:Drivers/CMSIS/Include/cmsis_gcc.h ****   #pragma GCC diagnostic push
  80:Drivers/CMSIS/Include/cmsis_gcc.h ****   #pragma GCC diagnostic ignored "-Wpacked"
  81:Drivers/CMSIS/Include/cmsis_gcc.h ****   #pragma GCC diagnostic ignored "-Wattributes"
  82:Drivers/CMSIS/Include/cmsis_gcc.h ****   __PACKED_STRUCT T_UINT16_WRITE { uint16_t v; };
  83:Drivers/CMSIS/Include/cmsis_gcc.h ****   #pragma GCC diagnostic pop
  84:Drivers/CMSIS/Include/cmsis_gcc.h ****   #define __UNALIGNED_UINT16_WRITE(addr, val)    (void)((((struct T_UINT16_WRITE *)(void *)(addr))-
  85:Drivers/CMSIS/Include/cmsis_gcc.h **** #endif
  86:Drivers/CMSIS/Include/cmsis_gcc.h **** #ifndef   __UNALIGNED_UINT16_READ
  87:Drivers/CMSIS/Include/cmsis_gcc.h ****   #pragma GCC diagnostic push
  88:Drivers/CMSIS/Include/cmsis_gcc.h ****   #pragma GCC diagnostic ignored "-Wpacked"
  89:Drivers/CMSIS/Include/cmsis_gcc.h ****   #pragma GCC diagnostic ignored "-Wattributes"
  90:Drivers/CMSIS/Include/cmsis_gcc.h ****   __PACKED_STRUCT T_UINT16_READ { uint16_t v; };
  91:Drivers/CMSIS/Include/cmsis_gcc.h ****   #pragma GCC diagnostic pop
  92:Drivers/CMSIS/Include/cmsis_gcc.h ****   #define __UNALIGNED_UINT16_READ(addr)          (((const struct T_UINT16_READ *)(const void *)(add
  93:Drivers/CMSIS/Include/cmsis_gcc.h **** #endif
  94:Drivers/CMSIS/Include/cmsis_gcc.h **** #ifndef   __UNALIGNED_UINT32_WRITE
  95:Drivers/CMSIS/Include/cmsis_gcc.h ****   #pragma GCC diagnostic push
  96:Drivers/CMSIS/Include/cmsis_gcc.h ****   #pragma GCC diagnostic ignored "-Wpacked"
  97:Drivers/CMSIS/Include/cmsis_gcc.h ****   #pragma GCC diagnostic ignored "-Wattributes"
  98:Drivers/CMSIS/Include/cmsis_gcc.h ****   __PACKED_STRUCT T_UINT32_WRITE { uint32_t v; };
  99:Drivers/CMSIS/Include/cmsis_gcc.h ****   #pragma GCC diagnostic pop
 100:Drivers/CMSIS/Include/cmsis_gcc.h ****   #define __UNALIGNED_UINT32_WRITE(addr, val)    (void)((((struct T_UINT32_WRITE *)(void *)(addr))-
 101:Drivers/CMSIS/Include/cmsis_gcc.h **** #endif
 102:Drivers/CMSIS/Include/cmsis_gcc.h **** #ifndef   __UNALIGNED_UINT32_READ
 103:Drivers/CMSIS/Include/cmsis_gcc.h ****   #pragma GCC diagnostic push
 104:Drivers/CMSIS/Include/cmsis_gcc.h ****   #pragma GCC diagnostic ignored "-Wpacked"
 105:Drivers/CMSIS/Include/cmsis_gcc.h ****   #pragma GCC diagnostic ignored "-Wattributes"
 106:Drivers/CMSIS/Include/cmsis_gcc.h ****   __PACKED_STRUCT T_UINT32_READ { uint32_t v; };
 107:Drivers/CMSIS/Include/cmsis_gcc.h ****   #pragma GCC diagnostic pop
 108:Drivers/CMSIS/Include/cmsis_gcc.h ****   #define __UNALIGNED_UINT32_READ(addr)          (((const struct T_UINT32_READ *)(const void *)(add
 109:Drivers/CMSIS/Include/cmsis_gcc.h **** #endif
 110:Drivers/CMSIS/Include/cmsis_gcc.h **** #ifndef   __ALIGNED
 111:Drivers/CMSIS/Include/cmsis_gcc.h ****   #define __ALIGNED(x)                           __attribute__((aligned(x)))
 112:Drivers/CMSIS/Include/cmsis_gcc.h **** #endif
 113:Drivers/CMSIS/Include/cmsis_gcc.h **** #ifndef   __RESTRICT
 114:Drivers/CMSIS/Include/cmsis_gcc.h ****   #define __RESTRICT                             __restrict
 115:Drivers/CMSIS/Include/cmsis_gcc.h **** #endif
 116:Drivers/CMSIS/Include/cmsis_gcc.h **** 
ARM GAS  C:\Users\xixi\AppData\Local\Temp\ccei1Zb6.s 			page 8


 117:Drivers/CMSIS/Include/cmsis_gcc.h **** 
 118:Drivers/CMSIS/Include/cmsis_gcc.h **** /* ###########################  Core Function Access  ########################### */
 119:Drivers/CMSIS/Include/cmsis_gcc.h **** /** \ingroup  CMSIS_Core_FunctionInterface
 120:Drivers/CMSIS/Include/cmsis_gcc.h ****     \defgroup CMSIS_Core_RegAccFunctions CMSIS Core Register Access Functions
 121:Drivers/CMSIS/Include/cmsis_gcc.h ****   @{
 122:Drivers/CMSIS/Include/cmsis_gcc.h ****  */
 123:Drivers/CMSIS/Include/cmsis_gcc.h **** 
 124:Drivers/CMSIS/Include/cmsis_gcc.h **** /**
 125:Drivers/CMSIS/Include/cmsis_gcc.h ****   \brief   Enable IRQ Interrupts
 126:Drivers/CMSIS/Include/cmsis_gcc.h ****   \details Enables IRQ interrupts by clearing the I-bit in the CPSR.
 127:Drivers/CMSIS/Include/cmsis_gcc.h ****            Can only be executed in Privileged modes.
 128:Drivers/CMSIS/Include/cmsis_gcc.h ****  */
 129:Drivers/CMSIS/Include/cmsis_gcc.h **** __STATIC_FORCEINLINE void __enable_irq(void)
 130:Drivers/CMSIS/Include/cmsis_gcc.h **** {
 131:Drivers/CMSIS/Include/cmsis_gcc.h ****   __ASM volatile ("cpsie i" : : : "memory");
 132:Drivers/CMSIS/Include/cmsis_gcc.h **** }
 133:Drivers/CMSIS/Include/cmsis_gcc.h **** 
 134:Drivers/CMSIS/Include/cmsis_gcc.h **** 
 135:Drivers/CMSIS/Include/cmsis_gcc.h **** /**
 136:Drivers/CMSIS/Include/cmsis_gcc.h ****   \brief   Disable IRQ Interrupts
 137:Drivers/CMSIS/Include/cmsis_gcc.h ****   \details Disables IRQ interrupts by setting the I-bit in the CPSR.
 138:Drivers/CMSIS/Include/cmsis_gcc.h ****            Can only be executed in Privileged modes.
 139:Drivers/CMSIS/Include/cmsis_gcc.h ****  */
 140:Drivers/CMSIS/Include/cmsis_gcc.h **** __STATIC_FORCEINLINE void __disable_irq(void)
 141:Drivers/CMSIS/Include/cmsis_gcc.h **** {
 142:Drivers/CMSIS/Include/cmsis_gcc.h ****   __ASM volatile ("cpsid i" : : : "memory");
 143:Drivers/CMSIS/Include/cmsis_gcc.h **** }
 144:Drivers/CMSIS/Include/cmsis_gcc.h **** 
 145:Drivers/CMSIS/Include/cmsis_gcc.h **** 
 146:Drivers/CMSIS/Include/cmsis_gcc.h **** /**
 147:Drivers/CMSIS/Include/cmsis_gcc.h ****   \brief   Get Control Register
 148:Drivers/CMSIS/Include/cmsis_gcc.h ****   \details Returns the content of the Control Register.
 149:Drivers/CMSIS/Include/cmsis_gcc.h ****   \return               Control Register value
 150:Drivers/CMSIS/Include/cmsis_gcc.h ****  */
 151:Drivers/CMSIS/Include/cmsis_gcc.h **** __STATIC_FORCEINLINE uint32_t __get_CONTROL(void)
 152:Drivers/CMSIS/Include/cmsis_gcc.h **** {
 153:Drivers/CMSIS/Include/cmsis_gcc.h ****   uint32_t result;
 154:Drivers/CMSIS/Include/cmsis_gcc.h **** 
 155:Drivers/CMSIS/Include/cmsis_gcc.h ****   __ASM volatile ("MRS %0, control" : "=r" (result) );
 156:Drivers/CMSIS/Include/cmsis_gcc.h ****   return(result);
 157:Drivers/CMSIS/Include/cmsis_gcc.h **** }
 158:Drivers/CMSIS/Include/cmsis_gcc.h **** 
 159:Drivers/CMSIS/Include/cmsis_gcc.h **** 
 160:Drivers/CMSIS/Include/cmsis_gcc.h **** #if (defined (__ARM_FEATURE_CMSE ) && (__ARM_FEATURE_CMSE == 3))
 161:Drivers/CMSIS/Include/cmsis_gcc.h **** /**
 162:Drivers/CMSIS/Include/cmsis_gcc.h ****   \brief   Get Control Register (non-secure)
 163:Drivers/CMSIS/Include/cmsis_gcc.h ****   \details Returns the content of the non-secure Control Register when in secure mode.
 164:Drivers/CMSIS/Include/cmsis_gcc.h ****   \return               non-secure Control Register value
 165:Drivers/CMSIS/Include/cmsis_gcc.h ****  */
 166:Drivers/CMSIS/Include/cmsis_gcc.h **** __STATIC_FORCEINLINE uint32_t __TZ_get_CONTROL_NS(void)
 167:Drivers/CMSIS/Include/cmsis_gcc.h **** {
 168:Drivers/CMSIS/Include/cmsis_gcc.h ****   uint32_t result;
 169:Drivers/CMSIS/Include/cmsis_gcc.h **** 
 170:Drivers/CMSIS/Include/cmsis_gcc.h ****   __ASM volatile ("MRS %0, control_ns" : "=r" (result) );
 171:Drivers/CMSIS/Include/cmsis_gcc.h ****   return(result);
 172:Drivers/CMSIS/Include/cmsis_gcc.h **** }
 173:Drivers/CMSIS/Include/cmsis_gcc.h **** #endif
ARM GAS  C:\Users\xixi\AppData\Local\Temp\ccei1Zb6.s 			page 9


 174:Drivers/CMSIS/Include/cmsis_gcc.h **** 
 175:Drivers/CMSIS/Include/cmsis_gcc.h **** 
 176:Drivers/CMSIS/Include/cmsis_gcc.h **** /**
 177:Drivers/CMSIS/Include/cmsis_gcc.h ****   \brief   Set Control Register
 178:Drivers/CMSIS/Include/cmsis_gcc.h ****   \details Writes the given value to the Control Register.
 179:Drivers/CMSIS/Include/cmsis_gcc.h ****   \param [in]    control  Control Register value to set
 180:Drivers/CMSIS/Include/cmsis_gcc.h ****  */
 181:Drivers/CMSIS/Include/cmsis_gcc.h **** __STATIC_FORCEINLINE void __set_CONTROL(uint32_t control)
 182:Drivers/CMSIS/Include/cmsis_gcc.h **** {
 183:Drivers/CMSIS/Include/cmsis_gcc.h ****   __ASM volatile ("MSR control, %0" : : "r" (control) : "memory");
 184:Drivers/CMSIS/Include/cmsis_gcc.h **** }
 185:Drivers/CMSIS/Include/cmsis_gcc.h **** 
 186:Drivers/CMSIS/Include/cmsis_gcc.h **** 
 187:Drivers/CMSIS/Include/cmsis_gcc.h **** #if (defined (__ARM_FEATURE_CMSE ) && (__ARM_FEATURE_CMSE == 3))
 188:Drivers/CMSIS/Include/cmsis_gcc.h **** /**
 189:Drivers/CMSIS/Include/cmsis_gcc.h ****   \brief   Set Control Register (non-secure)
 190:Drivers/CMSIS/Include/cmsis_gcc.h ****   \details Writes the given value to the non-secure Control Register when in secure state.
 191:Drivers/CMSIS/Include/cmsis_gcc.h ****   \param [in]    control  Control Register value to set
 192:Drivers/CMSIS/Include/cmsis_gcc.h ****  */
 193:Drivers/CMSIS/Include/cmsis_gcc.h **** __STATIC_FORCEINLINE void __TZ_set_CONTROL_NS(uint32_t control)
 194:Drivers/CMSIS/Include/cmsis_gcc.h **** {
 195:Drivers/CMSIS/Include/cmsis_gcc.h ****   __ASM volatile ("MSR control_ns, %0" : : "r" (control) : "memory");
 196:Drivers/CMSIS/Include/cmsis_gcc.h **** }
 197:Drivers/CMSIS/Include/cmsis_gcc.h **** #endif
 198:Drivers/CMSIS/Include/cmsis_gcc.h **** 
 199:Drivers/CMSIS/Include/cmsis_gcc.h **** 
 200:Drivers/CMSIS/Include/cmsis_gcc.h **** /**
 201:Drivers/CMSIS/Include/cmsis_gcc.h ****   \brief   Get IPSR Register
 202:Drivers/CMSIS/Include/cmsis_gcc.h ****   \details Returns the content of the IPSR Register.
 203:Drivers/CMSIS/Include/cmsis_gcc.h ****   \return               IPSR Register value
 204:Drivers/CMSIS/Include/cmsis_gcc.h ****  */
 205:Drivers/CMSIS/Include/cmsis_gcc.h **** __STATIC_FORCEINLINE uint32_t __get_IPSR(void)
 112              		.loc 2 205 31 view .LVU23
 113              	.LBB9:
 206:Drivers/CMSIS/Include/cmsis_gcc.h **** {
 207:Drivers/CMSIS/Include/cmsis_gcc.h ****   uint32_t result;
 114              		.loc 2 207 3 view .LVU24
 208:Drivers/CMSIS/Include/cmsis_gcc.h **** 
 209:Drivers/CMSIS/Include/cmsis_gcc.h ****   __ASM volatile ("MRS %0, ipsr" : "=r" (result) );
 115              		.loc 2 209 3 view .LVU25
 116              		.syntax unified
 117              	@ 209 "Drivers/CMSIS/Include/cmsis_gcc.h" 1
 118 0000 EFF30580 		MRS r0, ipsr
 119              	@ 0 "" 2
 120              	.LVL9:
 210:Drivers/CMSIS/Include/cmsis_gcc.h ****   return(result);
 121              		.loc 2 210 3 view .LVU26
 122              		.loc 2 210 3 is_stmt 0 view .LVU27
 123              		.thumb
 124              		.syntax unified
 125              	.LBE9:
 126              	.LBE8:
 176:Middlewares/Third_Party/FreeRTOS/Source/CMSIS_RTOS/cmsis_os.c **** }
 127              		.loc 1 176 1 view .LVU28
 128 0004 0038     		subs	r0, r0, #0
 129 0006 18BF     		it	ne
 130 0008 0120     		movne	r0, #1
ARM GAS  C:\Users\xixi\AppData\Local\Temp\ccei1Zb6.s 			page 10


 131 000a 7047     		bx	lr
 132              		.cfi_endproc
 133              	.LFE109:
 135              		.section	.text.osKernelStart,"ax",%progbits
 136              		.align	1
 137              		.global	osKernelStart
 138              		.syntax unified
 139              		.thumb
 140              		.thumb_func
 142              	osKernelStart:
 143              	.LFB110:
 177:Middlewares/Third_Party/FreeRTOS/Source/CMSIS_RTOS/cmsis_os.c **** 
 178:Middlewares/Third_Party/FreeRTOS/Source/CMSIS_RTOS/cmsis_os.c **** /*********************** Kernel Control Functions *****************************/
 179:Middlewares/Third_Party/FreeRTOS/Source/CMSIS_RTOS/cmsis_os.c **** /**
 180:Middlewares/Third_Party/FreeRTOS/Source/CMSIS_RTOS/cmsis_os.c **** * @brief  Initialize the RTOS Kernel for creating objects.
 181:Middlewares/Third_Party/FreeRTOS/Source/CMSIS_RTOS/cmsis_os.c **** * @retval status code that indicates the execution status of the function.
 182:Middlewares/Third_Party/FreeRTOS/Source/CMSIS_RTOS/cmsis_os.c **** * @note   MUST REMAIN UNCHANGED: \b osKernelInitialize shall be consistent in every CMSIS-RTOS.
 183:Middlewares/Third_Party/FreeRTOS/Source/CMSIS_RTOS/cmsis_os.c **** */
 184:Middlewares/Third_Party/FreeRTOS/Source/CMSIS_RTOS/cmsis_os.c **** osStatus osKernelInitialize (void);
 185:Middlewares/Third_Party/FreeRTOS/Source/CMSIS_RTOS/cmsis_os.c **** 
 186:Middlewares/Third_Party/FreeRTOS/Source/CMSIS_RTOS/cmsis_os.c **** /**
 187:Middlewares/Third_Party/FreeRTOS/Source/CMSIS_RTOS/cmsis_os.c **** * @brief  Start the RTOS Kernel with executing the specified thread.
 188:Middlewares/Third_Party/FreeRTOS/Source/CMSIS_RTOS/cmsis_os.c **** * @param  thread_def    thread definition referenced with \ref osThread.
 189:Middlewares/Third_Party/FreeRTOS/Source/CMSIS_RTOS/cmsis_os.c **** * @param  argument      pointer that is passed to the thread function as start argument.
 190:Middlewares/Third_Party/FreeRTOS/Source/CMSIS_RTOS/cmsis_os.c **** * @retval status code that indicates the execution status of the function
 191:Middlewares/Third_Party/FreeRTOS/Source/CMSIS_RTOS/cmsis_os.c **** * @note   MUST REMAIN UNCHANGED: \b osKernelStart shall be consistent in every CMSIS-RTOS.
 192:Middlewares/Third_Party/FreeRTOS/Source/CMSIS_RTOS/cmsis_os.c **** */
 193:Middlewares/Third_Party/FreeRTOS/Source/CMSIS_RTOS/cmsis_os.c **** osStatus osKernelStart (void)
 194:Middlewares/Third_Party/FreeRTOS/Source/CMSIS_RTOS/cmsis_os.c **** {
 144              		.loc 1 194 1 is_stmt 1 view -0
 145              		.cfi_startproc
 146              		@ args = 0, pretend = 0, frame = 0
 147              		@ frame_needed = 0, uses_anonymous_args = 0
 148 0000 08B5     		push	{r3, lr}
 149              	.LCFI0:
 150              		.cfi_def_cfa_offset 8
 151              		.cfi_offset 3, -8
 152              		.cfi_offset 14, -4
 195:Middlewares/Third_Party/FreeRTOS/Source/CMSIS_RTOS/cmsis_os.c ****   vTaskStartScheduler();
 153              		.loc 1 195 3 view .LVU30
 154 0002 FFF7FEFF 		bl	vTaskStartScheduler
 155              	.LVL10:
 196:Middlewares/Third_Party/FreeRTOS/Source/CMSIS_RTOS/cmsis_os.c ****   
 197:Middlewares/Third_Party/FreeRTOS/Source/CMSIS_RTOS/cmsis_os.c ****   return osOK;
 156              		.loc 1 197 3 view .LVU31
 198:Middlewares/Third_Party/FreeRTOS/Source/CMSIS_RTOS/cmsis_os.c **** }
 157              		.loc 1 198 1 is_stmt 0 view .LVU32
 158 0006 0020     		movs	r0, #0
 159 0008 08BD     		pop	{r3, pc}
 160              		.cfi_endproc
 161              	.LFE110:
 163              		.section	.text.osKernelRunning,"ax",%progbits
 164              		.align	1
 165              		.global	osKernelRunning
 166              		.syntax unified
 167              		.thumb
 168              		.thumb_func
ARM GAS  C:\Users\xixi\AppData\Local\Temp\ccei1Zb6.s 			page 11


 170              	osKernelRunning:
 171              	.LFB111:
 199:Middlewares/Third_Party/FreeRTOS/Source/CMSIS_RTOS/cmsis_os.c **** 
 200:Middlewares/Third_Party/FreeRTOS/Source/CMSIS_RTOS/cmsis_os.c **** /**
 201:Middlewares/Third_Party/FreeRTOS/Source/CMSIS_RTOS/cmsis_os.c **** * @brief  Check if the RTOS kernel is already started
 202:Middlewares/Third_Party/FreeRTOS/Source/CMSIS_RTOS/cmsis_os.c **** * @param  None
 203:Middlewares/Third_Party/FreeRTOS/Source/CMSIS_RTOS/cmsis_os.c **** * @retval (0) RTOS is not started
 204:Middlewares/Third_Party/FreeRTOS/Source/CMSIS_RTOS/cmsis_os.c **** *         (1) RTOS is started
 205:Middlewares/Third_Party/FreeRTOS/Source/CMSIS_RTOS/cmsis_os.c **** *         (-1) if this feature is disabled in FreeRTOSConfig.h 
 206:Middlewares/Third_Party/FreeRTOS/Source/CMSIS_RTOS/cmsis_os.c **** * @note  MUST REMAIN UNCHANGED: \b osKernelRunning shall be consistent in every CMSIS-RTOS.
 207:Middlewares/Third_Party/FreeRTOS/Source/CMSIS_RTOS/cmsis_os.c **** */
 208:Middlewares/Third_Party/FreeRTOS/Source/CMSIS_RTOS/cmsis_os.c **** int32_t osKernelRunning(void)
 209:Middlewares/Third_Party/FreeRTOS/Source/CMSIS_RTOS/cmsis_os.c **** {
 172              		.loc 1 209 1 is_stmt 1 view -0
 173              		.cfi_startproc
 174              		@ args = 0, pretend = 0, frame = 0
 175              		@ frame_needed = 0, uses_anonymous_args = 0
 176 0000 08B5     		push	{r3, lr}
 177              	.LCFI1:
 178              		.cfi_def_cfa_offset 8
 179              		.cfi_offset 3, -8
 180              		.cfi_offset 14, -4
 210:Middlewares/Third_Party/FreeRTOS/Source/CMSIS_RTOS/cmsis_os.c **** #if ( ( INCLUDE_xTaskGetSchedulerState == 1 ) || ( configUSE_TIMERS == 1 ) )
 211:Middlewares/Third_Party/FreeRTOS/Source/CMSIS_RTOS/cmsis_os.c ****   if (xTaskGetSchedulerState() == taskSCHEDULER_NOT_STARTED)
 181              		.loc 1 211 3 view .LVU34
 182              		.loc 1 211 7 is_stmt 0 view .LVU35
 183 0002 FFF7FEFF 		bl	xTaskGetSchedulerState
 184              	.LVL11:
 185              		.loc 1 211 6 view .LVU36
 186 0006 0128     		cmp	r0, #1
 187 0008 01D0     		beq	.L14
 212:Middlewares/Third_Party/FreeRTOS/Source/CMSIS_RTOS/cmsis_os.c ****     return 0;
 213:Middlewares/Third_Party/FreeRTOS/Source/CMSIS_RTOS/cmsis_os.c ****   else
 214:Middlewares/Third_Party/FreeRTOS/Source/CMSIS_RTOS/cmsis_os.c ****     return 1;
 188              		.loc 1 214 12 view .LVU37
 189 000a 0120     		movs	r0, #1
 190              	.L10:
 215:Middlewares/Third_Party/FreeRTOS/Source/CMSIS_RTOS/cmsis_os.c **** #else
 216:Middlewares/Third_Party/FreeRTOS/Source/CMSIS_RTOS/cmsis_os.c **** 	return (-1);
 217:Middlewares/Third_Party/FreeRTOS/Source/CMSIS_RTOS/cmsis_os.c **** #endif	
 218:Middlewares/Third_Party/FreeRTOS/Source/CMSIS_RTOS/cmsis_os.c **** }
 191              		.loc 1 218 1 view .LVU38
 192 000c 08BD     		pop	{r3, pc}
 193              	.L14:
 212:Middlewares/Third_Party/FreeRTOS/Source/CMSIS_RTOS/cmsis_os.c ****     return 0;
 194              		.loc 1 212 12 view .LVU39
 195 000e 0020     		movs	r0, #0
 196 0010 FCE7     		b	.L10
 197              		.cfi_endproc
 198              	.LFE111:
 200              		.section	.text.osKernelSysTick,"ax",%progbits
 201              		.align	1
 202              		.global	osKernelSysTick
 203              		.syntax unified
 204              		.thumb
 205              		.thumb_func
 207              	osKernelSysTick:
ARM GAS  C:\Users\xixi\AppData\Local\Temp\ccei1Zb6.s 			page 12


 208              	.LFB112:
 219:Middlewares/Third_Party/FreeRTOS/Source/CMSIS_RTOS/cmsis_os.c **** 
 220:Middlewares/Third_Party/FreeRTOS/Source/CMSIS_RTOS/cmsis_os.c **** #if (defined (osFeature_SysTick)  &&  (osFeature_SysTick != 0))     // System Timer available
 221:Middlewares/Third_Party/FreeRTOS/Source/CMSIS_RTOS/cmsis_os.c **** /**
 222:Middlewares/Third_Party/FreeRTOS/Source/CMSIS_RTOS/cmsis_os.c **** * @brief  Get the value of the Kernel SysTick timer
 223:Middlewares/Third_Party/FreeRTOS/Source/CMSIS_RTOS/cmsis_os.c **** * @param  None
 224:Middlewares/Third_Party/FreeRTOS/Source/CMSIS_RTOS/cmsis_os.c **** * @retval None
 225:Middlewares/Third_Party/FreeRTOS/Source/CMSIS_RTOS/cmsis_os.c **** * @note   MUST REMAIN UNCHANGED: \b osKernelSysTick shall be consistent in every CMSIS-RTOS.
 226:Middlewares/Third_Party/FreeRTOS/Source/CMSIS_RTOS/cmsis_os.c **** */
 227:Middlewares/Third_Party/FreeRTOS/Source/CMSIS_RTOS/cmsis_os.c **** uint32_t osKernelSysTick(void)
 228:Middlewares/Third_Party/FreeRTOS/Source/CMSIS_RTOS/cmsis_os.c **** {
 209              		.loc 1 228 1 is_stmt 1 view -0
 210              		.cfi_startproc
 211              		@ args = 0, pretend = 0, frame = 0
 212              		@ frame_needed = 0, uses_anonymous_args = 0
 213 0000 08B5     		push	{r3, lr}
 214              	.LCFI2:
 215              		.cfi_def_cfa_offset 8
 216              		.cfi_offset 3, -8
 217              		.cfi_offset 14, -4
 229:Middlewares/Third_Party/FreeRTOS/Source/CMSIS_RTOS/cmsis_os.c ****   if (inHandlerMode()) {
 218              		.loc 1 229 3 view .LVU41
 219              		.loc 1 229 7 is_stmt 0 view .LVU42
 220 0002 FFF7FEFF 		bl	inHandlerMode
 221              	.LVL12:
 222              		.loc 1 229 6 view .LVU43
 223 0006 10B1     		cbz	r0, .L16
 230:Middlewares/Third_Party/FreeRTOS/Source/CMSIS_RTOS/cmsis_os.c ****     return xTaskGetTickCountFromISR();
 224              		.loc 1 230 5 is_stmt 1 view .LVU44
 225              		.loc 1 230 12 is_stmt 0 view .LVU45
 226 0008 FFF7FEFF 		bl	xTaskGetTickCountFromISR
 227              	.LVL13:
 228              	.L15:
 231:Middlewares/Third_Party/FreeRTOS/Source/CMSIS_RTOS/cmsis_os.c ****   }
 232:Middlewares/Third_Party/FreeRTOS/Source/CMSIS_RTOS/cmsis_os.c ****   else {
 233:Middlewares/Third_Party/FreeRTOS/Source/CMSIS_RTOS/cmsis_os.c ****     return xTaskGetTickCount();
 234:Middlewares/Third_Party/FreeRTOS/Source/CMSIS_RTOS/cmsis_os.c ****   }
 235:Middlewares/Third_Party/FreeRTOS/Source/CMSIS_RTOS/cmsis_os.c **** }
 229              		.loc 1 235 1 view .LVU46
 230 000c 08BD     		pop	{r3, pc}
 231              	.L16:
 233:Middlewares/Third_Party/FreeRTOS/Source/CMSIS_RTOS/cmsis_os.c ****   }
 232              		.loc 1 233 5 is_stmt 1 view .LVU47
 233:Middlewares/Third_Party/FreeRTOS/Source/CMSIS_RTOS/cmsis_os.c ****   }
 233              		.loc 1 233 12 is_stmt 0 view .LVU48
 234 000e FFF7FEFF 		bl	xTaskGetTickCount
 235              	.LVL14:
 236 0012 FBE7     		b	.L15
 237              		.cfi_endproc
 238              	.LFE112:
 240              		.section	.text.osThreadCreate,"ax",%progbits
 241              		.align	1
 242              		.global	osThreadCreate
 243              		.syntax unified
 244              		.thumb
 245              		.thumb_func
 247              	osThreadCreate:
ARM GAS  C:\Users\xixi\AppData\Local\Temp\ccei1Zb6.s 			page 13


 248              	.LVL15:
 249              	.LFB113:
 236:Middlewares/Third_Party/FreeRTOS/Source/CMSIS_RTOS/cmsis_os.c **** #endif    // System Timer available
 237:Middlewares/Third_Party/FreeRTOS/Source/CMSIS_RTOS/cmsis_os.c **** /*********************** Thread Management *****************************/
 238:Middlewares/Third_Party/FreeRTOS/Source/CMSIS_RTOS/cmsis_os.c **** /**
 239:Middlewares/Third_Party/FreeRTOS/Source/CMSIS_RTOS/cmsis_os.c **** * @brief  Create a thread and add it to Active Threads and set it to state READY.
 240:Middlewares/Third_Party/FreeRTOS/Source/CMSIS_RTOS/cmsis_os.c **** * @param  thread_def    thread definition referenced with \ref osThread.
 241:Middlewares/Third_Party/FreeRTOS/Source/CMSIS_RTOS/cmsis_os.c **** * @param  argument      pointer that is passed to the thread function as start argument.
 242:Middlewares/Third_Party/FreeRTOS/Source/CMSIS_RTOS/cmsis_os.c **** * @retval thread ID for reference by other functions or NULL in case of error.
 243:Middlewares/Third_Party/FreeRTOS/Source/CMSIS_RTOS/cmsis_os.c **** * @note   MUST REMAIN UNCHANGED: \b osThreadCreate shall be consistent in every CMSIS-RTOS.
 244:Middlewares/Third_Party/FreeRTOS/Source/CMSIS_RTOS/cmsis_os.c **** */
 245:Middlewares/Third_Party/FreeRTOS/Source/CMSIS_RTOS/cmsis_os.c **** osThreadId osThreadCreate (const osThreadDef_t *thread_def, void *argument)
 246:Middlewares/Third_Party/FreeRTOS/Source/CMSIS_RTOS/cmsis_os.c **** {
 250              		.loc 1 246 1 is_stmt 1 view -0
 251              		.cfi_startproc
 252              		@ args = 0, pretend = 0, frame = 8
 253              		@ frame_needed = 0, uses_anonymous_args = 0
 254              		.loc 1 246 1 is_stmt 0 view .LVU50
 255 0000 2DE9F043 		push	{r4, r5, r6, r7, r8, r9, lr}
 256              	.LCFI3:
 257              		.cfi_def_cfa_offset 28
 258              		.cfi_offset 4, -28
 259              		.cfi_offset 5, -24
 260              		.cfi_offset 6, -20
 261              		.cfi_offset 7, -16
 262              		.cfi_offset 8, -12
 263              		.cfi_offset 9, -8
 264              		.cfi_offset 14, -4
 265 0004 87B0     		sub	sp, sp, #28
 266              	.LCFI4:
 267              		.cfi_def_cfa_offset 56
 268 0006 0446     		mov	r4, r0
 269 0008 0F46     		mov	r7, r1
 247:Middlewares/Third_Party/FreeRTOS/Source/CMSIS_RTOS/cmsis_os.c ****   TaskHandle_t handle;
 270              		.loc 1 247 3 is_stmt 1 view .LVU51
 248:Middlewares/Third_Party/FreeRTOS/Source/CMSIS_RTOS/cmsis_os.c ****   
 249:Middlewares/Third_Party/FreeRTOS/Source/CMSIS_RTOS/cmsis_os.c **** #if( configSUPPORT_STATIC_ALLOCATION == 1 ) &&  ( configSUPPORT_DYNAMIC_ALLOCATION == 1 )
 250:Middlewares/Third_Party/FreeRTOS/Source/CMSIS_RTOS/cmsis_os.c ****   if((thread_def->buffer != NULL) && (thread_def->controlblock != NULL)) {
 271              		.loc 1 250 3 view .LVU52
 272              		.loc 1 250 17 is_stmt 0 view .LVU53
 273 000a 4569     		ldr	r5, [r0, #20]
 274              		.loc 1 250 5 view .LVU54
 275 000c BDB1     		cbz	r5, .L20
 276              		.loc 1 250 49 discriminator 1 view .LVU55
 277 000e 8669     		ldr	r6, [r0, #24]
 278              		.loc 1 250 35 discriminator 1 view .LVU56
 279 0010 AEB1     		cbz	r6, .L20
 251:Middlewares/Third_Party/FreeRTOS/Source/CMSIS_RTOS/cmsis_os.c ****     handle = xTaskCreateStatic((TaskFunction_t)thread_def->pthread,(const portCHAR *)thread_def->na
 280              		.loc 1 251 5 is_stmt 1 view .LVU57
 281              		.loc 1 251 58 is_stmt 0 view .LVU58
 282 0012 D0F80480 		ldr	r8, [r0, #4]
 283              		.loc 1 251 96 view .LVU59
 284 0016 D0F80090 		ldr	r9, [r0]
 285              		.loc 1 251 14 view .LVU60
 286 001a B0F90800 		ldrsh	r0, [r0, #8]
 287              	.LVL16:
 288              		.loc 1 251 14 view .LVU61
ARM GAS  C:\Users\xixi\AppData\Local\Temp\ccei1Zb6.s 			page 14


 289 001e FFF7FEFF 		bl	makeFreeRtosPriority
 290              	.LVL17:
 291              		.loc 1 251 14 view .LVU62
 292 0022 0296     		str	r6, [sp, #8]
 293 0024 0195     		str	r5, [sp, #4]
 294 0026 0090     		str	r0, [sp]
 295 0028 3B46     		mov	r3, r7
 296 002a 2269     		ldr	r2, [r4, #16]
 297 002c 4946     		mov	r1, r9
 298 002e 4046     		mov	r0, r8
 299 0030 FFF7FEFF 		bl	xTaskCreateStatic
 300              	.LVL18:
 301              		.loc 1 251 12 view .LVU63
 302 0034 0590     		str	r0, [sp, #20]
 303              	.L21:
 252:Middlewares/Third_Party/FreeRTOS/Source/CMSIS_RTOS/cmsis_os.c ****               thread_def->stacksize, argument, makeFreeRtosPriority(thread_def->tpriority),
 253:Middlewares/Third_Party/FreeRTOS/Source/CMSIS_RTOS/cmsis_os.c ****               thread_def->buffer, thread_def->controlblock);
 254:Middlewares/Third_Party/FreeRTOS/Source/CMSIS_RTOS/cmsis_os.c ****   }
 255:Middlewares/Third_Party/FreeRTOS/Source/CMSIS_RTOS/cmsis_os.c ****   else {
 256:Middlewares/Third_Party/FreeRTOS/Source/CMSIS_RTOS/cmsis_os.c ****     if (xTaskCreate((TaskFunction_t)thread_def->pthread,(const portCHAR *)thread_def->name,
 257:Middlewares/Third_Party/FreeRTOS/Source/CMSIS_RTOS/cmsis_os.c ****               thread_def->stacksize, argument, makeFreeRtosPriority(thread_def->tpriority),
 258:Middlewares/Third_Party/FreeRTOS/Source/CMSIS_RTOS/cmsis_os.c ****               &handle) != pdPASS)  {
 259:Middlewares/Third_Party/FreeRTOS/Source/CMSIS_RTOS/cmsis_os.c ****       return NULL;
 260:Middlewares/Third_Party/FreeRTOS/Source/CMSIS_RTOS/cmsis_os.c ****     } 
 261:Middlewares/Third_Party/FreeRTOS/Source/CMSIS_RTOS/cmsis_os.c ****   }
 262:Middlewares/Third_Party/FreeRTOS/Source/CMSIS_RTOS/cmsis_os.c **** #elif( configSUPPORT_STATIC_ALLOCATION == 1 )
 263:Middlewares/Third_Party/FreeRTOS/Source/CMSIS_RTOS/cmsis_os.c **** 
 264:Middlewares/Third_Party/FreeRTOS/Source/CMSIS_RTOS/cmsis_os.c ****     handle = xTaskCreateStatic((TaskFunction_t)thread_def->pthread,(const portCHAR *)thread_def->na
 265:Middlewares/Third_Party/FreeRTOS/Source/CMSIS_RTOS/cmsis_os.c ****               thread_def->stacksize, argument, makeFreeRtosPriority(thread_def->tpriority),
 266:Middlewares/Third_Party/FreeRTOS/Source/CMSIS_RTOS/cmsis_os.c ****               thread_def->buffer, thread_def->controlblock);
 267:Middlewares/Third_Party/FreeRTOS/Source/CMSIS_RTOS/cmsis_os.c **** #else
 268:Middlewares/Third_Party/FreeRTOS/Source/CMSIS_RTOS/cmsis_os.c ****   if (xTaskCreate((TaskFunction_t)thread_def->pthread,(const portCHAR *)thread_def->name,
 269:Middlewares/Third_Party/FreeRTOS/Source/CMSIS_RTOS/cmsis_os.c ****                    thread_def->stacksize, argument, makeFreeRtosPriority(thread_def->tpriority),
 270:Middlewares/Third_Party/FreeRTOS/Source/CMSIS_RTOS/cmsis_os.c ****                    &handle) != pdPASS)  {
 271:Middlewares/Third_Party/FreeRTOS/Source/CMSIS_RTOS/cmsis_os.c ****     return NULL;
 272:Middlewares/Third_Party/FreeRTOS/Source/CMSIS_RTOS/cmsis_os.c ****   }     
 273:Middlewares/Third_Party/FreeRTOS/Source/CMSIS_RTOS/cmsis_os.c **** #endif
 274:Middlewares/Third_Party/FreeRTOS/Source/CMSIS_RTOS/cmsis_os.c ****   
 275:Middlewares/Third_Party/FreeRTOS/Source/CMSIS_RTOS/cmsis_os.c ****   return handle;
 304              		.loc 1 275 3 is_stmt 1 view .LVU64
 305              		.loc 1 275 10 is_stmt 0 view .LVU65
 306 0036 0598     		ldr	r0, [sp, #20]
 307              	.L19:
 276:Middlewares/Third_Party/FreeRTOS/Source/CMSIS_RTOS/cmsis_os.c **** }
 308              		.loc 1 276 1 view .LVU66
 309 0038 07B0     		add	sp, sp, #28
 310              	.LCFI5:
 311              		.cfi_remember_state
 312              		.cfi_def_cfa_offset 28
 313              		@ sp needed
 314 003a BDE8F083 		pop	{r4, r5, r6, r7, r8, r9, pc}
 315              	.LVL19:
 316              	.L20:
 317              	.LCFI6:
 318              		.cfi_restore_state
 256:Middlewares/Third_Party/FreeRTOS/Source/CMSIS_RTOS/cmsis_os.c ****               thread_def->stacksize, argument, makeFreeRtosPriority(thread_def->tpriority),
 319              		.loc 1 256 5 is_stmt 1 view .LVU67
ARM GAS  C:\Users\xixi\AppData\Local\Temp\ccei1Zb6.s 			page 15


 256:Middlewares/Third_Party/FreeRTOS/Source/CMSIS_RTOS/cmsis_os.c ****               thread_def->stacksize, argument, makeFreeRtosPriority(thread_def->tpriority),
 320              		.loc 1 256 47 is_stmt 0 view .LVU68
 321 003e 6568     		ldr	r5, [r4, #4]
 256:Middlewares/Third_Party/FreeRTOS/Source/CMSIS_RTOS/cmsis_os.c ****               thread_def->stacksize, argument, makeFreeRtosPriority(thread_def->tpriority),
 322              		.loc 1 256 85 view .LVU69
 323 0040 2668     		ldr	r6, [r4]
 257:Middlewares/Third_Party/FreeRTOS/Source/CMSIS_RTOS/cmsis_os.c ****               &handle) != pdPASS)  {
 324              		.loc 1 257 25 view .LVU70
 325 0042 D4F81080 		ldr	r8, [r4, #16]
 256:Middlewares/Third_Party/FreeRTOS/Source/CMSIS_RTOS/cmsis_os.c ****               thread_def->stacksize, argument, makeFreeRtosPriority(thread_def->tpriority),
 326              		.loc 1 256 9 view .LVU71
 327 0046 B4F90800 		ldrsh	r0, [r4, #8]
 328              	.LVL20:
 256:Middlewares/Third_Party/FreeRTOS/Source/CMSIS_RTOS/cmsis_os.c ****               thread_def->stacksize, argument, makeFreeRtosPriority(thread_def->tpriority),
 329              		.loc 1 256 9 view .LVU72
 330 004a FFF7FEFF 		bl	makeFreeRtosPriority
 331              	.LVL21:
 256:Middlewares/Third_Party/FreeRTOS/Source/CMSIS_RTOS/cmsis_os.c ****               thread_def->stacksize, argument, makeFreeRtosPriority(thread_def->tpriority),
 332              		.loc 1 256 9 view .LVU73
 333 004e 05AB     		add	r3, sp, #20
 334 0050 0193     		str	r3, [sp, #4]
 335 0052 0090     		str	r0, [sp]
 336 0054 3B46     		mov	r3, r7
 337 0056 1FFA88F2 		uxth	r2, r8
 338 005a 3146     		mov	r1, r6
 339 005c 2846     		mov	r0, r5
 340 005e FFF7FEFF 		bl	xTaskCreate
 341              	.LVL22:
 256:Middlewares/Third_Party/FreeRTOS/Source/CMSIS_RTOS/cmsis_os.c ****               thread_def->stacksize, argument, makeFreeRtosPriority(thread_def->tpriority),
 342              		.loc 1 256 8 view .LVU74
 343 0062 0128     		cmp	r0, #1
 344 0064 E7D0     		beq	.L21
 259:Middlewares/Third_Party/FreeRTOS/Source/CMSIS_RTOS/cmsis_os.c ****     } 
 345              		.loc 1 259 14 view .LVU75
 346 0066 0020     		movs	r0, #0
 347 0068 E6E7     		b	.L19
 348              		.cfi_endproc
 349              	.LFE113:
 351              		.section	.text.osThreadGetId,"ax",%progbits
 352              		.align	1
 353              		.global	osThreadGetId
 354              		.syntax unified
 355              		.thumb
 356              		.thumb_func
 358              	osThreadGetId:
 359              	.LFB114:
 277:Middlewares/Third_Party/FreeRTOS/Source/CMSIS_RTOS/cmsis_os.c **** 
 278:Middlewares/Third_Party/FreeRTOS/Source/CMSIS_RTOS/cmsis_os.c **** /**
 279:Middlewares/Third_Party/FreeRTOS/Source/CMSIS_RTOS/cmsis_os.c **** * @brief  Return the thread ID of the current running thread.
 280:Middlewares/Third_Party/FreeRTOS/Source/CMSIS_RTOS/cmsis_os.c **** * @retval thread ID for reference by other functions or NULL in case of error.
 281:Middlewares/Third_Party/FreeRTOS/Source/CMSIS_RTOS/cmsis_os.c **** * @note   MUST REMAIN UNCHANGED: \b osThreadGetId shall be consistent in every CMSIS-RTOS.
 282:Middlewares/Third_Party/FreeRTOS/Source/CMSIS_RTOS/cmsis_os.c **** */
 283:Middlewares/Third_Party/FreeRTOS/Source/CMSIS_RTOS/cmsis_os.c **** osThreadId osThreadGetId (void)
 284:Middlewares/Third_Party/FreeRTOS/Source/CMSIS_RTOS/cmsis_os.c **** {
 360              		.loc 1 284 1 is_stmt 1 view -0
 361              		.cfi_startproc
 362              		@ args = 0, pretend = 0, frame = 0
ARM GAS  C:\Users\xixi\AppData\Local\Temp\ccei1Zb6.s 			page 16


 363              		@ frame_needed = 0, uses_anonymous_args = 0
 364 0000 08B5     		push	{r3, lr}
 365              	.LCFI7:
 366              		.cfi_def_cfa_offset 8
 367              		.cfi_offset 3, -8
 368              		.cfi_offset 14, -4
 285:Middlewares/Third_Party/FreeRTOS/Source/CMSIS_RTOS/cmsis_os.c **** #if ( ( INCLUDE_xTaskGetCurrentTaskHandle == 1 ) || ( configUSE_MUTEXES == 1 ) )
 286:Middlewares/Third_Party/FreeRTOS/Source/CMSIS_RTOS/cmsis_os.c ****   return xTaskGetCurrentTaskHandle();
 369              		.loc 1 286 3 view .LVU77
 370              		.loc 1 286 10 is_stmt 0 view .LVU78
 371 0002 FFF7FEFF 		bl	xTaskGetCurrentTaskHandle
 372              	.LVL23:
 287:Middlewares/Third_Party/FreeRTOS/Source/CMSIS_RTOS/cmsis_os.c **** #else
 288:Middlewares/Third_Party/FreeRTOS/Source/CMSIS_RTOS/cmsis_os.c **** 	return NULL;
 289:Middlewares/Third_Party/FreeRTOS/Source/CMSIS_RTOS/cmsis_os.c **** #endif
 290:Middlewares/Third_Party/FreeRTOS/Source/CMSIS_RTOS/cmsis_os.c **** }
 373              		.loc 1 290 1 view .LVU79
 374 0006 08BD     		pop	{r3, pc}
 375              		.cfi_endproc
 376              	.LFE114:
 378              		.section	.text.osThreadTerminate,"ax",%progbits
 379              		.align	1
 380              		.global	osThreadTerminate
 381              		.syntax unified
 382              		.thumb
 383              		.thumb_func
 385              	osThreadTerminate:
 386              	.LVL24:
 387              	.LFB115:
 291:Middlewares/Third_Party/FreeRTOS/Source/CMSIS_RTOS/cmsis_os.c **** 
 292:Middlewares/Third_Party/FreeRTOS/Source/CMSIS_RTOS/cmsis_os.c **** /**
 293:Middlewares/Third_Party/FreeRTOS/Source/CMSIS_RTOS/cmsis_os.c **** * @brief  Terminate execution of a thread and remove it from Active Threads.
 294:Middlewares/Third_Party/FreeRTOS/Source/CMSIS_RTOS/cmsis_os.c **** * @param   thread_id   thread ID obtained by \ref osThreadCreate or \ref osThreadGetId.
 295:Middlewares/Third_Party/FreeRTOS/Source/CMSIS_RTOS/cmsis_os.c **** * @retval  status code that indicates the execution status of the function.
 296:Middlewares/Third_Party/FreeRTOS/Source/CMSIS_RTOS/cmsis_os.c **** * @note   MUST REMAIN UNCHANGED: \b osThreadTerminate shall be consistent in every CMSIS-RTOS.
 297:Middlewares/Third_Party/FreeRTOS/Source/CMSIS_RTOS/cmsis_os.c **** */
 298:Middlewares/Third_Party/FreeRTOS/Source/CMSIS_RTOS/cmsis_os.c **** osStatus osThreadTerminate (osThreadId thread_id)
 299:Middlewares/Third_Party/FreeRTOS/Source/CMSIS_RTOS/cmsis_os.c **** {
 388              		.loc 1 299 1 is_stmt 1 view -0
 389              		.cfi_startproc
 390              		@ args = 0, pretend = 0, frame = 0
 391              		@ frame_needed = 0, uses_anonymous_args = 0
 392              		.loc 1 299 1 is_stmt 0 view .LVU81
 393 0000 08B5     		push	{r3, lr}
 394              	.LCFI8:
 395              		.cfi_def_cfa_offset 8
 396              		.cfi_offset 3, -8
 397              		.cfi_offset 14, -4
 300:Middlewares/Third_Party/FreeRTOS/Source/CMSIS_RTOS/cmsis_os.c **** #if (INCLUDE_vTaskDelete == 1)
 301:Middlewares/Third_Party/FreeRTOS/Source/CMSIS_RTOS/cmsis_os.c ****   vTaskDelete(thread_id);
 398              		.loc 1 301 3 is_stmt 1 view .LVU82
 399 0002 FFF7FEFF 		bl	vTaskDelete
 400              	.LVL25:
 302:Middlewares/Third_Party/FreeRTOS/Source/CMSIS_RTOS/cmsis_os.c ****   return osOK;
 401              		.loc 1 302 3 view .LVU83
 303:Middlewares/Third_Party/FreeRTOS/Source/CMSIS_RTOS/cmsis_os.c **** #else
 304:Middlewares/Third_Party/FreeRTOS/Source/CMSIS_RTOS/cmsis_os.c ****   return osErrorOS;
ARM GAS  C:\Users\xixi\AppData\Local\Temp\ccei1Zb6.s 			page 17


 305:Middlewares/Third_Party/FreeRTOS/Source/CMSIS_RTOS/cmsis_os.c **** #endif
 306:Middlewares/Third_Party/FreeRTOS/Source/CMSIS_RTOS/cmsis_os.c **** }
 402              		.loc 1 306 1 is_stmt 0 view .LVU84
 403 0006 0020     		movs	r0, #0
 404 0008 08BD     		pop	{r3, pc}
 405              		.cfi_endproc
 406              	.LFE115:
 408              		.section	.text.osThreadYield,"ax",%progbits
 409              		.align	1
 410              		.global	osThreadYield
 411              		.syntax unified
 412              		.thumb
 413              		.thumb_func
 415              	osThreadYield:
 416              	.LFB116:
 307:Middlewares/Third_Party/FreeRTOS/Source/CMSIS_RTOS/cmsis_os.c **** 
 308:Middlewares/Third_Party/FreeRTOS/Source/CMSIS_RTOS/cmsis_os.c **** /**
 309:Middlewares/Third_Party/FreeRTOS/Source/CMSIS_RTOS/cmsis_os.c **** * @brief  Pass control to next thread that is in state \b READY.
 310:Middlewares/Third_Party/FreeRTOS/Source/CMSIS_RTOS/cmsis_os.c **** * @retval status code that indicates the execution status of the function.
 311:Middlewares/Third_Party/FreeRTOS/Source/CMSIS_RTOS/cmsis_os.c **** * @note   MUST REMAIN UNCHANGED: \b osThreadYield shall be consistent in every CMSIS-RTOS.
 312:Middlewares/Third_Party/FreeRTOS/Source/CMSIS_RTOS/cmsis_os.c **** */
 313:Middlewares/Third_Party/FreeRTOS/Source/CMSIS_RTOS/cmsis_os.c **** osStatus osThreadYield (void)
 314:Middlewares/Third_Party/FreeRTOS/Source/CMSIS_RTOS/cmsis_os.c **** {
 417              		.loc 1 314 1 is_stmt 1 view -0
 418              		.cfi_startproc
 419              		@ args = 0, pretend = 0, frame = 0
 420              		@ frame_needed = 0, uses_anonymous_args = 0
 421              		@ link register save eliminated.
 315:Middlewares/Third_Party/FreeRTOS/Source/CMSIS_RTOS/cmsis_os.c ****   taskYIELD();
 422              		.loc 1 315 3 view .LVU86
 423 0000 4FF0E023 		mov	r3, #-536813568
 424 0004 4FF08052 		mov	r2, #268435456
 425 0008 C3F8042D 		str	r2, [r3, #3332]
 426              		.loc 1 315 3 view .LVU87
 427              		.syntax unified
 428              	@ 315 "Middlewares/Third_Party/FreeRTOS/Source/CMSIS_RTOS/cmsis_os.c" 1
 429 000c BFF34F8F 		dsb
 430              	@ 0 "" 2
 431              		.loc 1 315 3 view .LVU88
 432              	@ 315 "Middlewares/Third_Party/FreeRTOS/Source/CMSIS_RTOS/cmsis_os.c" 1
 433 0010 BFF36F8F 		isb
 434              	@ 0 "" 2
 435              		.loc 1 315 14 view .LVU89
 316:Middlewares/Third_Party/FreeRTOS/Source/CMSIS_RTOS/cmsis_os.c ****   
 317:Middlewares/Third_Party/FreeRTOS/Source/CMSIS_RTOS/cmsis_os.c ****   return osOK;
 436              		.loc 1 317 3 view .LVU90
 318:Middlewares/Third_Party/FreeRTOS/Source/CMSIS_RTOS/cmsis_os.c **** }
 437              		.loc 1 318 1 is_stmt 0 view .LVU91
 438              		.thumb
 439              		.syntax unified
 440 0014 0020     		movs	r0, #0
 441 0016 7047     		bx	lr
 442              		.cfi_endproc
 443              	.LFE116:
 445              		.section	.text.osThreadSetPriority,"ax",%progbits
 446              		.align	1
 447              		.global	osThreadSetPriority
ARM GAS  C:\Users\xixi\AppData\Local\Temp\ccei1Zb6.s 			page 18


 448              		.syntax unified
 449              		.thumb
 450              		.thumb_func
 452              	osThreadSetPriority:
 453              	.LVL26:
 454              	.LFB117:
 319:Middlewares/Third_Party/FreeRTOS/Source/CMSIS_RTOS/cmsis_os.c **** 
 320:Middlewares/Third_Party/FreeRTOS/Source/CMSIS_RTOS/cmsis_os.c **** /**
 321:Middlewares/Third_Party/FreeRTOS/Source/CMSIS_RTOS/cmsis_os.c **** * @brief   Change priority of an active thread.
 322:Middlewares/Third_Party/FreeRTOS/Source/CMSIS_RTOS/cmsis_os.c **** * @param   thread_id     thread ID obtained by \ref osThreadCreate or \ref osThreadGetId.
 323:Middlewares/Third_Party/FreeRTOS/Source/CMSIS_RTOS/cmsis_os.c **** * @param   priority      new priority value for the thread function.
 324:Middlewares/Third_Party/FreeRTOS/Source/CMSIS_RTOS/cmsis_os.c **** * @retval  status code that indicates the execution status of the function.
 325:Middlewares/Third_Party/FreeRTOS/Source/CMSIS_RTOS/cmsis_os.c **** * @note   MUST REMAIN UNCHANGED: \b osThreadSetPriority shall be consistent in every CMSIS-RTOS.
 326:Middlewares/Third_Party/FreeRTOS/Source/CMSIS_RTOS/cmsis_os.c **** */
 327:Middlewares/Third_Party/FreeRTOS/Source/CMSIS_RTOS/cmsis_os.c **** osStatus osThreadSetPriority (osThreadId thread_id, osPriority priority)
 328:Middlewares/Third_Party/FreeRTOS/Source/CMSIS_RTOS/cmsis_os.c **** {
 455              		.loc 1 328 1 is_stmt 1 view -0
 456              		.cfi_startproc
 457              		@ args = 0, pretend = 0, frame = 0
 458              		@ frame_needed = 0, uses_anonymous_args = 0
 459              		.loc 1 328 1 is_stmt 0 view .LVU93
 460 0000 10B5     		push	{r4, lr}
 461              	.LCFI9:
 462              		.cfi_def_cfa_offset 8
 463              		.cfi_offset 4, -8
 464              		.cfi_offset 14, -4
 465 0002 0446     		mov	r4, r0
 329:Middlewares/Third_Party/FreeRTOS/Source/CMSIS_RTOS/cmsis_os.c **** #if (INCLUDE_vTaskPrioritySet == 1)
 330:Middlewares/Third_Party/FreeRTOS/Source/CMSIS_RTOS/cmsis_os.c ****   vTaskPrioritySet(thread_id, makeFreeRtosPriority(priority));
 466              		.loc 1 330 3 is_stmt 1 view .LVU94
 467 0004 0846     		mov	r0, r1
 468              	.LVL27:
 469              		.loc 1 330 3 is_stmt 0 view .LVU95
 470 0006 FFF7FEFF 		bl	makeFreeRtosPriority
 471              	.LVL28:
 472              		.loc 1 330 3 view .LVU96
 473 000a 0146     		mov	r1, r0
 474 000c 2046     		mov	r0, r4
 475 000e FFF7FEFF 		bl	vTaskPrioritySet
 476              	.LVL29:
 331:Middlewares/Third_Party/FreeRTOS/Source/CMSIS_RTOS/cmsis_os.c ****   return osOK;
 477              		.loc 1 331 3 is_stmt 1 view .LVU97
 332:Middlewares/Third_Party/FreeRTOS/Source/CMSIS_RTOS/cmsis_os.c **** #else
 333:Middlewares/Third_Party/FreeRTOS/Source/CMSIS_RTOS/cmsis_os.c ****   return osErrorOS;
 334:Middlewares/Third_Party/FreeRTOS/Source/CMSIS_RTOS/cmsis_os.c **** #endif
 335:Middlewares/Third_Party/FreeRTOS/Source/CMSIS_RTOS/cmsis_os.c **** }
 478              		.loc 1 335 1 is_stmt 0 view .LVU98
 479 0012 0020     		movs	r0, #0
 480 0014 10BD     		pop	{r4, pc}
 481              		.loc 1 335 1 view .LVU99
 482              		.cfi_endproc
 483              	.LFE117:
 485              		.section	.text.osThreadGetPriority,"ax",%progbits
 486              		.align	1
 487              		.global	osThreadGetPriority
 488              		.syntax unified
 489              		.thumb
ARM GAS  C:\Users\xixi\AppData\Local\Temp\ccei1Zb6.s 			page 19


 490              		.thumb_func
 492              	osThreadGetPriority:
 493              	.LVL30:
 494              	.LFB118:
 336:Middlewares/Third_Party/FreeRTOS/Source/CMSIS_RTOS/cmsis_os.c **** 
 337:Middlewares/Third_Party/FreeRTOS/Source/CMSIS_RTOS/cmsis_os.c **** /**
 338:Middlewares/Third_Party/FreeRTOS/Source/CMSIS_RTOS/cmsis_os.c **** * @brief   Get current priority of an active thread.
 339:Middlewares/Third_Party/FreeRTOS/Source/CMSIS_RTOS/cmsis_os.c **** * @param   thread_id     thread ID obtained by \ref osThreadCreate or \ref osThreadGetId.
 340:Middlewares/Third_Party/FreeRTOS/Source/CMSIS_RTOS/cmsis_os.c **** * @retval  current priority value of the thread function.
 341:Middlewares/Third_Party/FreeRTOS/Source/CMSIS_RTOS/cmsis_os.c **** * @note   MUST REMAIN UNCHANGED: \b osThreadGetPriority shall be consistent in every CMSIS-RTOS.
 342:Middlewares/Third_Party/FreeRTOS/Source/CMSIS_RTOS/cmsis_os.c **** */
 343:Middlewares/Third_Party/FreeRTOS/Source/CMSIS_RTOS/cmsis_os.c **** osPriority osThreadGetPriority (osThreadId thread_id)
 344:Middlewares/Third_Party/FreeRTOS/Source/CMSIS_RTOS/cmsis_os.c **** {
 495              		.loc 1 344 1 is_stmt 1 view -0
 496              		.cfi_startproc
 497              		@ args = 0, pretend = 0, frame = 0
 498              		@ frame_needed = 0, uses_anonymous_args = 0
 499              		.loc 1 344 1 is_stmt 0 view .LVU101
 500 0000 10B5     		push	{r4, lr}
 501              	.LCFI10:
 502              		.cfi_def_cfa_offset 8
 503              		.cfi_offset 4, -8
 504              		.cfi_offset 14, -4
 505 0002 0446     		mov	r4, r0
 345:Middlewares/Third_Party/FreeRTOS/Source/CMSIS_RTOS/cmsis_os.c **** #if (INCLUDE_uxTaskPriorityGet == 1)
 346:Middlewares/Third_Party/FreeRTOS/Source/CMSIS_RTOS/cmsis_os.c ****   if (inHandlerMode())
 506              		.loc 1 346 3 is_stmt 1 view .LVU102
 507              		.loc 1 346 7 is_stmt 0 view .LVU103
 508 0004 FFF7FEFF 		bl	inHandlerMode
 509              	.LVL31:
 510              		.loc 1 346 6 view .LVU104
 511 0008 28B1     		cbz	r0, .L33
 347:Middlewares/Third_Party/FreeRTOS/Source/CMSIS_RTOS/cmsis_os.c ****   {
 348:Middlewares/Third_Party/FreeRTOS/Source/CMSIS_RTOS/cmsis_os.c ****     return makeCmsisPriority(uxTaskPriorityGetFromISR(thread_id));  
 512              		.loc 1 348 5 is_stmt 1 view .LVU105
 513              		.loc 1 348 12 is_stmt 0 view .LVU106
 514 000a 2046     		mov	r0, r4
 515 000c FFF7FEFF 		bl	uxTaskPriorityGetFromISR
 516              	.LVL32:
 517 0010 FFF7FEFF 		bl	makeCmsisPriority
 518              	.LVL33:
 519              	.L34:
 349:Middlewares/Third_Party/FreeRTOS/Source/CMSIS_RTOS/cmsis_os.c ****   }
 350:Middlewares/Third_Party/FreeRTOS/Source/CMSIS_RTOS/cmsis_os.c ****   else
 351:Middlewares/Third_Party/FreeRTOS/Source/CMSIS_RTOS/cmsis_os.c ****   {  
 352:Middlewares/Third_Party/FreeRTOS/Source/CMSIS_RTOS/cmsis_os.c ****     return makeCmsisPriority(uxTaskPriorityGet(thread_id));
 353:Middlewares/Third_Party/FreeRTOS/Source/CMSIS_RTOS/cmsis_os.c ****   }
 354:Middlewares/Third_Party/FreeRTOS/Source/CMSIS_RTOS/cmsis_os.c **** #else
 355:Middlewares/Third_Party/FreeRTOS/Source/CMSIS_RTOS/cmsis_os.c ****   return osPriorityError;
 356:Middlewares/Third_Party/FreeRTOS/Source/CMSIS_RTOS/cmsis_os.c **** #endif
 357:Middlewares/Third_Party/FreeRTOS/Source/CMSIS_RTOS/cmsis_os.c **** }
 520              		.loc 1 357 1 view .LVU107
 521 0014 10BD     		pop	{r4, pc}
 522              	.LVL34:
 523              	.L33:
 352:Middlewares/Third_Party/FreeRTOS/Source/CMSIS_RTOS/cmsis_os.c ****   }
 524              		.loc 1 352 5 is_stmt 1 view .LVU108
ARM GAS  C:\Users\xixi\AppData\Local\Temp\ccei1Zb6.s 			page 20


 352:Middlewares/Third_Party/FreeRTOS/Source/CMSIS_RTOS/cmsis_os.c ****   }
 525              		.loc 1 352 12 is_stmt 0 view .LVU109
 526 0016 2046     		mov	r0, r4
 527 0018 FFF7FEFF 		bl	uxTaskPriorityGet
 528              	.LVL35:
 529 001c FFF7FEFF 		bl	makeCmsisPriority
 530              	.LVL36:
 531 0020 F8E7     		b	.L34
 532              		.cfi_endproc
 533              	.LFE118:
 535              		.section	.text.osDelay,"ax",%progbits
 536              		.align	1
 537              		.global	osDelay
 538              		.syntax unified
 539              		.thumb
 540              		.thumb_func
 542              	osDelay:
 543              	.LVL37:
 544              	.LFB119:
 358:Middlewares/Third_Party/FreeRTOS/Source/CMSIS_RTOS/cmsis_os.c **** 
 359:Middlewares/Third_Party/FreeRTOS/Source/CMSIS_RTOS/cmsis_os.c **** /*********************** Generic Wait Functions *******************************/
 360:Middlewares/Third_Party/FreeRTOS/Source/CMSIS_RTOS/cmsis_os.c **** /**
 361:Middlewares/Third_Party/FreeRTOS/Source/CMSIS_RTOS/cmsis_os.c **** * @brief   Wait for Timeout (Time Delay)
 362:Middlewares/Third_Party/FreeRTOS/Source/CMSIS_RTOS/cmsis_os.c **** * @param   millisec      time delay value
 363:Middlewares/Third_Party/FreeRTOS/Source/CMSIS_RTOS/cmsis_os.c **** * @retval  status code that indicates the execution status of the function.
 364:Middlewares/Third_Party/FreeRTOS/Source/CMSIS_RTOS/cmsis_os.c **** */
 365:Middlewares/Third_Party/FreeRTOS/Source/CMSIS_RTOS/cmsis_os.c **** osStatus osDelay (uint32_t millisec)
 366:Middlewares/Third_Party/FreeRTOS/Source/CMSIS_RTOS/cmsis_os.c **** {
 545              		.loc 1 366 1 is_stmt 1 view -0
 546              		.cfi_startproc
 547              		@ args = 0, pretend = 0, frame = 0
 548              		@ frame_needed = 0, uses_anonymous_args = 0
 549              		.loc 1 366 1 is_stmt 0 view .LVU111
 550 0000 08B5     		push	{r3, lr}
 551              	.LCFI11:
 552              		.cfi_def_cfa_offset 8
 553              		.cfi_offset 3, -8
 554              		.cfi_offset 14, -4
 367:Middlewares/Third_Party/FreeRTOS/Source/CMSIS_RTOS/cmsis_os.c **** #if INCLUDE_vTaskDelay
 368:Middlewares/Third_Party/FreeRTOS/Source/CMSIS_RTOS/cmsis_os.c ****   TickType_t ticks = millisec / portTICK_PERIOD_MS;
 555              		.loc 1 368 3 is_stmt 1 view .LVU112
 556              	.LVL38:
 369:Middlewares/Third_Party/FreeRTOS/Source/CMSIS_RTOS/cmsis_os.c ****   
 370:Middlewares/Third_Party/FreeRTOS/Source/CMSIS_RTOS/cmsis_os.c ****   vTaskDelay(ticks ? ticks : 1);          /* Minimum delay = 1 tick */
 557              		.loc 1 370 3 view .LVU113
 558 0002 00B9     		cbnz	r0, .L37
 559 0004 0120     		movs	r0, #1
 560              	.LVL39:
 561              	.L37:
 562              		.loc 1 370 3 is_stmt 0 discriminator 4 view .LVU114
 563 0006 FFF7FEFF 		bl	vTaskDelay
 564              	.LVL40:
 371:Middlewares/Third_Party/FreeRTOS/Source/CMSIS_RTOS/cmsis_os.c ****   
 372:Middlewares/Third_Party/FreeRTOS/Source/CMSIS_RTOS/cmsis_os.c ****   return osOK;
 565              		.loc 1 372 3 is_stmt 1 discriminator 4 view .LVU115
 373:Middlewares/Third_Party/FreeRTOS/Source/CMSIS_RTOS/cmsis_os.c **** #else
 374:Middlewares/Third_Party/FreeRTOS/Source/CMSIS_RTOS/cmsis_os.c ****   (void) millisec;
ARM GAS  C:\Users\xixi\AppData\Local\Temp\ccei1Zb6.s 			page 21


 375:Middlewares/Third_Party/FreeRTOS/Source/CMSIS_RTOS/cmsis_os.c ****   
 376:Middlewares/Third_Party/FreeRTOS/Source/CMSIS_RTOS/cmsis_os.c ****   return osErrorResource;
 377:Middlewares/Third_Party/FreeRTOS/Source/CMSIS_RTOS/cmsis_os.c **** #endif
 378:Middlewares/Third_Party/FreeRTOS/Source/CMSIS_RTOS/cmsis_os.c **** }
 566              		.loc 1 378 1 is_stmt 0 discriminator 4 view .LVU116
 567 000a 0020     		movs	r0, #0
 568 000c 08BD     		pop	{r3, pc}
 569              		.cfi_endproc
 570              	.LFE119:
 572              		.section	.text.osTimerCreate,"ax",%progbits
 573              		.align	1
 574              		.global	osTimerCreate
 575              		.syntax unified
 576              		.thumb
 577              		.thumb_func
 579              	osTimerCreate:
 580              	.LVL41:
 581              	.LFB120:
 379:Middlewares/Third_Party/FreeRTOS/Source/CMSIS_RTOS/cmsis_os.c **** 
 380:Middlewares/Third_Party/FreeRTOS/Source/CMSIS_RTOS/cmsis_os.c **** #if (defined (osFeature_Wait)  &&  (osFeature_Wait != 0)) /* Generic Wait available */
 381:Middlewares/Third_Party/FreeRTOS/Source/CMSIS_RTOS/cmsis_os.c **** /**
 382:Middlewares/Third_Party/FreeRTOS/Source/CMSIS_RTOS/cmsis_os.c **** * @brief  Wait for Signal, Message, Mail, or Timeout
 383:Middlewares/Third_Party/FreeRTOS/Source/CMSIS_RTOS/cmsis_os.c **** * @param   millisec  timeout value or 0 in case of no time-out
 384:Middlewares/Third_Party/FreeRTOS/Source/CMSIS_RTOS/cmsis_os.c **** * @retval  event that contains signal, message, or mail information or error code.
 385:Middlewares/Third_Party/FreeRTOS/Source/CMSIS_RTOS/cmsis_os.c **** * @note   MUST REMAIN UNCHANGED: \b osWait shall be consistent in every CMSIS-RTOS.
 386:Middlewares/Third_Party/FreeRTOS/Source/CMSIS_RTOS/cmsis_os.c **** */
 387:Middlewares/Third_Party/FreeRTOS/Source/CMSIS_RTOS/cmsis_os.c **** osEvent osWait (uint32_t millisec);
 388:Middlewares/Third_Party/FreeRTOS/Source/CMSIS_RTOS/cmsis_os.c **** 
 389:Middlewares/Third_Party/FreeRTOS/Source/CMSIS_RTOS/cmsis_os.c **** #endif  /* Generic Wait available */
 390:Middlewares/Third_Party/FreeRTOS/Source/CMSIS_RTOS/cmsis_os.c **** 
 391:Middlewares/Third_Party/FreeRTOS/Source/CMSIS_RTOS/cmsis_os.c **** /***********************  Timer Management Functions ***************************/
 392:Middlewares/Third_Party/FreeRTOS/Source/CMSIS_RTOS/cmsis_os.c **** /**
 393:Middlewares/Third_Party/FreeRTOS/Source/CMSIS_RTOS/cmsis_os.c **** * @brief  Create a timer.
 394:Middlewares/Third_Party/FreeRTOS/Source/CMSIS_RTOS/cmsis_os.c **** * @param  timer_def     timer object referenced with \ref osTimer.
 395:Middlewares/Third_Party/FreeRTOS/Source/CMSIS_RTOS/cmsis_os.c **** * @param  type          osTimerOnce for one-shot or osTimerPeriodic for periodic behavior.
 396:Middlewares/Third_Party/FreeRTOS/Source/CMSIS_RTOS/cmsis_os.c **** * @param  argument      argument to the timer call back function.
 397:Middlewares/Third_Party/FreeRTOS/Source/CMSIS_RTOS/cmsis_os.c **** * @retval  timer ID for reference by other functions or NULL in case of error.
 398:Middlewares/Third_Party/FreeRTOS/Source/CMSIS_RTOS/cmsis_os.c **** * @note   MUST REMAIN UNCHANGED: \b osTimerCreate shall be consistent in every CMSIS-RTOS.
 399:Middlewares/Third_Party/FreeRTOS/Source/CMSIS_RTOS/cmsis_os.c **** */
 400:Middlewares/Third_Party/FreeRTOS/Source/CMSIS_RTOS/cmsis_os.c **** osTimerId osTimerCreate (const osTimerDef_t *timer_def, os_timer_type type, void *argument)
 401:Middlewares/Third_Party/FreeRTOS/Source/CMSIS_RTOS/cmsis_os.c **** {
 582              		.loc 1 401 1 is_stmt 1 view -0
 583              		.cfi_startproc
 584              		@ args = 0, pretend = 0, frame = 0
 585              		@ frame_needed = 0, uses_anonymous_args = 0
 586              		@ link register save eliminated.
 402:Middlewares/Third_Party/FreeRTOS/Source/CMSIS_RTOS/cmsis_os.c **** #if (configUSE_TIMERS == 1)
 403:Middlewares/Third_Party/FreeRTOS/Source/CMSIS_RTOS/cmsis_os.c **** 
 404:Middlewares/Third_Party/FreeRTOS/Source/CMSIS_RTOS/cmsis_os.c **** #if( ( configSUPPORT_STATIC_ALLOCATION == 1 ) && ( configSUPPORT_DYNAMIC_ALLOCATION == 1 ) ) 
 405:Middlewares/Third_Party/FreeRTOS/Source/CMSIS_RTOS/cmsis_os.c ****   if(timer_def->controlblock != NULL) {
 406:Middlewares/Third_Party/FreeRTOS/Source/CMSIS_RTOS/cmsis_os.c ****     return xTimerCreateStatic((const char *)"",
 407:Middlewares/Third_Party/FreeRTOS/Source/CMSIS_RTOS/cmsis_os.c ****                       1, // period should be filled when starting the Timer using osTimerStart
 408:Middlewares/Third_Party/FreeRTOS/Source/CMSIS_RTOS/cmsis_os.c ****                       (type == osTimerPeriodic) ? pdTRUE : pdFALSE,
 409:Middlewares/Third_Party/FreeRTOS/Source/CMSIS_RTOS/cmsis_os.c ****                       (void *) argument,
 410:Middlewares/Third_Party/FreeRTOS/Source/CMSIS_RTOS/cmsis_os.c ****                       (TaskFunction_t)timer_def->ptimer,
 411:Middlewares/Third_Party/FreeRTOS/Source/CMSIS_RTOS/cmsis_os.c ****                       (StaticTimer_t *)timer_def->controlblock);
 412:Middlewares/Third_Party/FreeRTOS/Source/CMSIS_RTOS/cmsis_os.c ****   }
ARM GAS  C:\Users\xixi\AppData\Local\Temp\ccei1Zb6.s 			page 22


 413:Middlewares/Third_Party/FreeRTOS/Source/CMSIS_RTOS/cmsis_os.c ****   else {
 414:Middlewares/Third_Party/FreeRTOS/Source/CMSIS_RTOS/cmsis_os.c ****     return xTimerCreate((const char *)"",
 415:Middlewares/Third_Party/FreeRTOS/Source/CMSIS_RTOS/cmsis_os.c ****                       1, // period should be filled when starting the Timer using osTimerStart
 416:Middlewares/Third_Party/FreeRTOS/Source/CMSIS_RTOS/cmsis_os.c ****                       (type == osTimerPeriodic) ? pdTRUE : pdFALSE,
 417:Middlewares/Third_Party/FreeRTOS/Source/CMSIS_RTOS/cmsis_os.c ****                       (void *) argument,
 418:Middlewares/Third_Party/FreeRTOS/Source/CMSIS_RTOS/cmsis_os.c ****                       (TaskFunction_t)timer_def->ptimer);
 419:Middlewares/Third_Party/FreeRTOS/Source/CMSIS_RTOS/cmsis_os.c ****  }
 420:Middlewares/Third_Party/FreeRTOS/Source/CMSIS_RTOS/cmsis_os.c **** #elif( configSUPPORT_STATIC_ALLOCATION == 1 )
 421:Middlewares/Third_Party/FreeRTOS/Source/CMSIS_RTOS/cmsis_os.c ****   return xTimerCreateStatic((const char *)"",
 422:Middlewares/Third_Party/FreeRTOS/Source/CMSIS_RTOS/cmsis_os.c ****                       1, // period should be filled when starting the Timer using osTimerStart
 423:Middlewares/Third_Party/FreeRTOS/Source/CMSIS_RTOS/cmsis_os.c ****                       (type == osTimerPeriodic) ? pdTRUE : pdFALSE,
 424:Middlewares/Third_Party/FreeRTOS/Source/CMSIS_RTOS/cmsis_os.c ****                       (void *) argument,
 425:Middlewares/Third_Party/FreeRTOS/Source/CMSIS_RTOS/cmsis_os.c ****                       (TaskFunction_t)timer_def->ptimer,
 426:Middlewares/Third_Party/FreeRTOS/Source/CMSIS_RTOS/cmsis_os.c ****                       (StaticTimer_t *)timer_def->controlblock);  
 427:Middlewares/Third_Party/FreeRTOS/Source/CMSIS_RTOS/cmsis_os.c **** #else
 428:Middlewares/Third_Party/FreeRTOS/Source/CMSIS_RTOS/cmsis_os.c ****   return xTimerCreate((const char *)"",
 429:Middlewares/Third_Party/FreeRTOS/Source/CMSIS_RTOS/cmsis_os.c ****                       1, // period should be filled when starting the Timer using osTimerStart
 430:Middlewares/Third_Party/FreeRTOS/Source/CMSIS_RTOS/cmsis_os.c ****                       (type == osTimerPeriodic) ? pdTRUE : pdFALSE,
 431:Middlewares/Third_Party/FreeRTOS/Source/CMSIS_RTOS/cmsis_os.c ****                       (void *) argument,
 432:Middlewares/Third_Party/FreeRTOS/Source/CMSIS_RTOS/cmsis_os.c ****                       (TaskFunction_t)timer_def->ptimer);
 433:Middlewares/Third_Party/FreeRTOS/Source/CMSIS_RTOS/cmsis_os.c **** #endif
 434:Middlewares/Third_Party/FreeRTOS/Source/CMSIS_RTOS/cmsis_os.c **** 
 435:Middlewares/Third_Party/FreeRTOS/Source/CMSIS_RTOS/cmsis_os.c **** #else 
 436:Middlewares/Third_Party/FreeRTOS/Source/CMSIS_RTOS/cmsis_os.c **** 	return NULL;
 587              		.loc 1 436 2 view .LVU118
 437:Middlewares/Third_Party/FreeRTOS/Source/CMSIS_RTOS/cmsis_os.c **** #endif
 438:Middlewares/Third_Party/FreeRTOS/Source/CMSIS_RTOS/cmsis_os.c **** }
 588              		.loc 1 438 1 is_stmt 0 view .LVU119
 589 0000 0020     		movs	r0, #0
 590              	.LVL42:
 591              		.loc 1 438 1 view .LVU120
 592 0002 7047     		bx	lr
 593              		.cfi_endproc
 594              	.LFE120:
 596              		.section	.text.osTimerStart,"ax",%progbits
 597              		.align	1
 598              		.global	osTimerStart
 599              		.syntax unified
 600              		.thumb
 601              		.thumb_func
 603              	osTimerStart:
 604              	.LVL43:
 605              	.LFB121:
 439:Middlewares/Third_Party/FreeRTOS/Source/CMSIS_RTOS/cmsis_os.c **** 
 440:Middlewares/Third_Party/FreeRTOS/Source/CMSIS_RTOS/cmsis_os.c **** /**
 441:Middlewares/Third_Party/FreeRTOS/Source/CMSIS_RTOS/cmsis_os.c **** * @brief  Start or restart a timer.
 442:Middlewares/Third_Party/FreeRTOS/Source/CMSIS_RTOS/cmsis_os.c **** * @param  timer_id      timer ID obtained by \ref osTimerCreate.
 443:Middlewares/Third_Party/FreeRTOS/Source/CMSIS_RTOS/cmsis_os.c **** * @param  millisec      time delay value of the timer.
 444:Middlewares/Third_Party/FreeRTOS/Source/CMSIS_RTOS/cmsis_os.c **** * @retval  status code that indicates the execution status of the function
 445:Middlewares/Third_Party/FreeRTOS/Source/CMSIS_RTOS/cmsis_os.c **** * @note   MUST REMAIN UNCHANGED: \b osTimerStart shall be consistent in every CMSIS-RTOS.
 446:Middlewares/Third_Party/FreeRTOS/Source/CMSIS_RTOS/cmsis_os.c **** */
 447:Middlewares/Third_Party/FreeRTOS/Source/CMSIS_RTOS/cmsis_os.c **** osStatus osTimerStart (osTimerId timer_id, uint32_t millisec)
 448:Middlewares/Third_Party/FreeRTOS/Source/CMSIS_RTOS/cmsis_os.c **** {
 606              		.loc 1 448 1 is_stmt 1 view -0
 607              		.cfi_startproc
 608              		@ args = 0, pretend = 0, frame = 0
 609              		@ frame_needed = 0, uses_anonymous_args = 0
ARM GAS  C:\Users\xixi\AppData\Local\Temp\ccei1Zb6.s 			page 23


 610              		@ link register save eliminated.
 449:Middlewares/Third_Party/FreeRTOS/Source/CMSIS_RTOS/cmsis_os.c ****   osStatus result = osOK;
 611              		.loc 1 449 3 view .LVU122
 450:Middlewares/Third_Party/FreeRTOS/Source/CMSIS_RTOS/cmsis_os.c **** #if (configUSE_TIMERS == 1)  
 451:Middlewares/Third_Party/FreeRTOS/Source/CMSIS_RTOS/cmsis_os.c ****   portBASE_TYPE taskWoken = pdFALSE;
 452:Middlewares/Third_Party/FreeRTOS/Source/CMSIS_RTOS/cmsis_os.c ****   TickType_t ticks = millisec / portTICK_PERIOD_MS;
 453:Middlewares/Third_Party/FreeRTOS/Source/CMSIS_RTOS/cmsis_os.c **** 
 454:Middlewares/Third_Party/FreeRTOS/Source/CMSIS_RTOS/cmsis_os.c ****   if (ticks == 0)
 455:Middlewares/Third_Party/FreeRTOS/Source/CMSIS_RTOS/cmsis_os.c ****     ticks = 1;
 456:Middlewares/Third_Party/FreeRTOS/Source/CMSIS_RTOS/cmsis_os.c ****     
 457:Middlewares/Third_Party/FreeRTOS/Source/CMSIS_RTOS/cmsis_os.c ****   if (inHandlerMode()) 
 458:Middlewares/Third_Party/FreeRTOS/Source/CMSIS_RTOS/cmsis_os.c ****   {
 459:Middlewares/Third_Party/FreeRTOS/Source/CMSIS_RTOS/cmsis_os.c ****     if (xTimerChangePeriodFromISR(timer_id, ticks, &taskWoken) != pdPASS)
 460:Middlewares/Third_Party/FreeRTOS/Source/CMSIS_RTOS/cmsis_os.c ****     {
 461:Middlewares/Third_Party/FreeRTOS/Source/CMSIS_RTOS/cmsis_os.c ****       result = osErrorOS;
 462:Middlewares/Third_Party/FreeRTOS/Source/CMSIS_RTOS/cmsis_os.c ****     }
 463:Middlewares/Third_Party/FreeRTOS/Source/CMSIS_RTOS/cmsis_os.c ****     else
 464:Middlewares/Third_Party/FreeRTOS/Source/CMSIS_RTOS/cmsis_os.c ****     {
 465:Middlewares/Third_Party/FreeRTOS/Source/CMSIS_RTOS/cmsis_os.c ****       portEND_SWITCHING_ISR(taskWoken);     
 466:Middlewares/Third_Party/FreeRTOS/Source/CMSIS_RTOS/cmsis_os.c ****     }
 467:Middlewares/Third_Party/FreeRTOS/Source/CMSIS_RTOS/cmsis_os.c ****   }
 468:Middlewares/Third_Party/FreeRTOS/Source/CMSIS_RTOS/cmsis_os.c ****   else 
 469:Middlewares/Third_Party/FreeRTOS/Source/CMSIS_RTOS/cmsis_os.c ****   {
 470:Middlewares/Third_Party/FreeRTOS/Source/CMSIS_RTOS/cmsis_os.c ****     if (xTimerChangePeriod(timer_id, ticks, 0) != pdPASS)
 471:Middlewares/Third_Party/FreeRTOS/Source/CMSIS_RTOS/cmsis_os.c ****       result = osErrorOS;
 472:Middlewares/Third_Party/FreeRTOS/Source/CMSIS_RTOS/cmsis_os.c ****   }
 473:Middlewares/Third_Party/FreeRTOS/Source/CMSIS_RTOS/cmsis_os.c **** 
 474:Middlewares/Third_Party/FreeRTOS/Source/CMSIS_RTOS/cmsis_os.c **** #else 
 475:Middlewares/Third_Party/FreeRTOS/Source/CMSIS_RTOS/cmsis_os.c ****   result = osErrorOS;
 612              		.loc 1 475 3 view .LVU123
 476:Middlewares/Third_Party/FreeRTOS/Source/CMSIS_RTOS/cmsis_os.c **** #endif
 477:Middlewares/Third_Party/FreeRTOS/Source/CMSIS_RTOS/cmsis_os.c ****   return result;
 613              		.loc 1 477 3 view .LVU124
 478:Middlewares/Third_Party/FreeRTOS/Source/CMSIS_RTOS/cmsis_os.c **** }
 614              		.loc 1 478 1 is_stmt 0 view .LVU125
 615 0000 FF20     		movs	r0, #255
 616              	.LVL44:
 617              		.loc 1 478 1 view .LVU126
 618 0002 7047     		bx	lr
 619              		.cfi_endproc
 620              	.LFE121:
 622              		.section	.text.osTimerStop,"ax",%progbits
 623              		.align	1
 624              		.global	osTimerStop
 625              		.syntax unified
 626              		.thumb
 627              		.thumb_func
 629              	osTimerStop:
 630              	.LVL45:
 631              	.LFB122:
 479:Middlewares/Third_Party/FreeRTOS/Source/CMSIS_RTOS/cmsis_os.c **** 
 480:Middlewares/Third_Party/FreeRTOS/Source/CMSIS_RTOS/cmsis_os.c **** /**
 481:Middlewares/Third_Party/FreeRTOS/Source/CMSIS_RTOS/cmsis_os.c **** * @brief  Stop a timer.
 482:Middlewares/Third_Party/FreeRTOS/Source/CMSIS_RTOS/cmsis_os.c **** * @param  timer_id      timer ID obtained by \ref osTimerCreate
 483:Middlewares/Third_Party/FreeRTOS/Source/CMSIS_RTOS/cmsis_os.c **** * @retval  status code that indicates the execution status of the function.
 484:Middlewares/Third_Party/FreeRTOS/Source/CMSIS_RTOS/cmsis_os.c **** * @note   MUST REMAIN UNCHANGED: \b osTimerStop shall be consistent in every CMSIS-RTOS.
 485:Middlewares/Third_Party/FreeRTOS/Source/CMSIS_RTOS/cmsis_os.c **** */
ARM GAS  C:\Users\xixi\AppData\Local\Temp\ccei1Zb6.s 			page 24


 486:Middlewares/Third_Party/FreeRTOS/Source/CMSIS_RTOS/cmsis_os.c **** osStatus osTimerStop (osTimerId timer_id)
 487:Middlewares/Third_Party/FreeRTOS/Source/CMSIS_RTOS/cmsis_os.c **** {
 632              		.loc 1 487 1 is_stmt 1 view -0
 633              		.cfi_startproc
 634              		@ args = 0, pretend = 0, frame = 0
 635              		@ frame_needed = 0, uses_anonymous_args = 0
 636              		@ link register save eliminated.
 488:Middlewares/Third_Party/FreeRTOS/Source/CMSIS_RTOS/cmsis_os.c ****   osStatus result = osOK;
 637              		.loc 1 488 3 view .LVU128
 489:Middlewares/Third_Party/FreeRTOS/Source/CMSIS_RTOS/cmsis_os.c **** #if (configUSE_TIMERS == 1)  
 490:Middlewares/Third_Party/FreeRTOS/Source/CMSIS_RTOS/cmsis_os.c ****   portBASE_TYPE taskWoken = pdFALSE;
 491:Middlewares/Third_Party/FreeRTOS/Source/CMSIS_RTOS/cmsis_os.c **** 
 492:Middlewares/Third_Party/FreeRTOS/Source/CMSIS_RTOS/cmsis_os.c ****   if (inHandlerMode()) {
 493:Middlewares/Third_Party/FreeRTOS/Source/CMSIS_RTOS/cmsis_os.c ****     if (xTimerStopFromISR(timer_id, &taskWoken) != pdPASS) {
 494:Middlewares/Third_Party/FreeRTOS/Source/CMSIS_RTOS/cmsis_os.c ****       return osErrorOS;
 495:Middlewares/Third_Party/FreeRTOS/Source/CMSIS_RTOS/cmsis_os.c ****     }
 496:Middlewares/Third_Party/FreeRTOS/Source/CMSIS_RTOS/cmsis_os.c ****     portEND_SWITCHING_ISR(taskWoken);
 497:Middlewares/Third_Party/FreeRTOS/Source/CMSIS_RTOS/cmsis_os.c ****   }
 498:Middlewares/Third_Party/FreeRTOS/Source/CMSIS_RTOS/cmsis_os.c ****   else {
 499:Middlewares/Third_Party/FreeRTOS/Source/CMSIS_RTOS/cmsis_os.c ****     if (xTimerStop(timer_id, 0) != pdPASS) {
 500:Middlewares/Third_Party/FreeRTOS/Source/CMSIS_RTOS/cmsis_os.c ****       result = osErrorOS;
 501:Middlewares/Third_Party/FreeRTOS/Source/CMSIS_RTOS/cmsis_os.c ****     }
 502:Middlewares/Third_Party/FreeRTOS/Source/CMSIS_RTOS/cmsis_os.c ****   }
 503:Middlewares/Third_Party/FreeRTOS/Source/CMSIS_RTOS/cmsis_os.c **** #else 
 504:Middlewares/Third_Party/FreeRTOS/Source/CMSIS_RTOS/cmsis_os.c ****   result = osErrorOS;
 638              		.loc 1 504 3 view .LVU129
 505:Middlewares/Third_Party/FreeRTOS/Source/CMSIS_RTOS/cmsis_os.c **** #endif 
 506:Middlewares/Third_Party/FreeRTOS/Source/CMSIS_RTOS/cmsis_os.c ****   return result;
 639              		.loc 1 506 3 view .LVU130
 507:Middlewares/Third_Party/FreeRTOS/Source/CMSIS_RTOS/cmsis_os.c **** }
 640              		.loc 1 507 1 is_stmt 0 view .LVU131
 641 0000 FF20     		movs	r0, #255
 642              	.LVL46:
 643              		.loc 1 507 1 view .LVU132
 644 0002 7047     		bx	lr
 645              		.cfi_endproc
 646              	.LFE122:
 648              		.section	.text.osTimerDelete,"ax",%progbits
 649              		.align	1
 650              		.global	osTimerDelete
 651              		.syntax unified
 652              		.thumb
 653              		.thumb_func
 655              	osTimerDelete:
 656              	.LVL47:
 657              	.LFB123:
 508:Middlewares/Third_Party/FreeRTOS/Source/CMSIS_RTOS/cmsis_os.c **** 
 509:Middlewares/Third_Party/FreeRTOS/Source/CMSIS_RTOS/cmsis_os.c **** /**
 510:Middlewares/Third_Party/FreeRTOS/Source/CMSIS_RTOS/cmsis_os.c **** * @brief  Delete a timer.
 511:Middlewares/Third_Party/FreeRTOS/Source/CMSIS_RTOS/cmsis_os.c **** * @param  timer_id      timer ID obtained by \ref osTimerCreate
 512:Middlewares/Third_Party/FreeRTOS/Source/CMSIS_RTOS/cmsis_os.c **** * @retval  status code that indicates the execution status of the function.
 513:Middlewares/Third_Party/FreeRTOS/Source/CMSIS_RTOS/cmsis_os.c **** * @note   MUST REMAIN UNCHANGED: \b osTimerDelete shall be consistent in every CMSIS-RTOS.
 514:Middlewares/Third_Party/FreeRTOS/Source/CMSIS_RTOS/cmsis_os.c **** */
 515:Middlewares/Third_Party/FreeRTOS/Source/CMSIS_RTOS/cmsis_os.c **** osStatus osTimerDelete (osTimerId timer_id)
 516:Middlewares/Third_Party/FreeRTOS/Source/CMSIS_RTOS/cmsis_os.c **** {
 658              		.loc 1 516 1 is_stmt 1 view -0
 659              		.cfi_startproc
ARM GAS  C:\Users\xixi\AppData\Local\Temp\ccei1Zb6.s 			page 25


 660              		@ args = 0, pretend = 0, frame = 0
 661              		@ frame_needed = 0, uses_anonymous_args = 0
 662              		@ link register save eliminated.
 517:Middlewares/Third_Party/FreeRTOS/Source/CMSIS_RTOS/cmsis_os.c **** osStatus result = osOK;
 663              		.loc 1 517 1 view .LVU134
 518:Middlewares/Third_Party/FreeRTOS/Source/CMSIS_RTOS/cmsis_os.c **** 
 519:Middlewares/Third_Party/FreeRTOS/Source/CMSIS_RTOS/cmsis_os.c **** #if (configUSE_TIMERS == 1)
 520:Middlewares/Third_Party/FreeRTOS/Source/CMSIS_RTOS/cmsis_os.c **** 
 521:Middlewares/Third_Party/FreeRTOS/Source/CMSIS_RTOS/cmsis_os.c ****    if (inHandlerMode()) {
 522:Middlewares/Third_Party/FreeRTOS/Source/CMSIS_RTOS/cmsis_os.c ****      return osErrorISR;
 523:Middlewares/Third_Party/FreeRTOS/Source/CMSIS_RTOS/cmsis_os.c ****   }
 524:Middlewares/Third_Party/FreeRTOS/Source/CMSIS_RTOS/cmsis_os.c ****   else { 
 525:Middlewares/Third_Party/FreeRTOS/Source/CMSIS_RTOS/cmsis_os.c ****     if ((xTimerDelete(timer_id, osWaitForever )) != pdPASS) {
 526:Middlewares/Third_Party/FreeRTOS/Source/CMSIS_RTOS/cmsis_os.c ****       result = osErrorOS;
 527:Middlewares/Third_Party/FreeRTOS/Source/CMSIS_RTOS/cmsis_os.c ****     }
 528:Middlewares/Third_Party/FreeRTOS/Source/CMSIS_RTOS/cmsis_os.c ****   } 
 529:Middlewares/Third_Party/FreeRTOS/Source/CMSIS_RTOS/cmsis_os.c ****     
 530:Middlewares/Third_Party/FreeRTOS/Source/CMSIS_RTOS/cmsis_os.c **** #else 
 531:Middlewares/Third_Party/FreeRTOS/Source/CMSIS_RTOS/cmsis_os.c ****   result = osErrorOS;
 664              		.loc 1 531 3 view .LVU135
 532:Middlewares/Third_Party/FreeRTOS/Source/CMSIS_RTOS/cmsis_os.c **** #endif 
 533:Middlewares/Third_Party/FreeRTOS/Source/CMSIS_RTOS/cmsis_os.c ****  
 534:Middlewares/Third_Party/FreeRTOS/Source/CMSIS_RTOS/cmsis_os.c ****   return result;
 665              		.loc 1 534 3 view .LVU136
 535:Middlewares/Third_Party/FreeRTOS/Source/CMSIS_RTOS/cmsis_os.c **** }
 666              		.loc 1 535 1 is_stmt 0 view .LVU137
 667 0000 FF20     		movs	r0, #255
 668              	.LVL48:
 669              		.loc 1 535 1 view .LVU138
 670 0002 7047     		bx	lr
 671              		.cfi_endproc
 672              	.LFE123:
 674              		.section	.text.osSignalSet,"ax",%progbits
 675              		.align	1
 676              		.global	osSignalSet
 677              		.syntax unified
 678              		.thumb
 679              		.thumb_func
 681              	osSignalSet:
 682              	.LVL49:
 683              	.LFB124:
 536:Middlewares/Third_Party/FreeRTOS/Source/CMSIS_RTOS/cmsis_os.c **** 
 537:Middlewares/Third_Party/FreeRTOS/Source/CMSIS_RTOS/cmsis_os.c **** /***************************  Signal Management ********************************/
 538:Middlewares/Third_Party/FreeRTOS/Source/CMSIS_RTOS/cmsis_os.c **** /**
 539:Middlewares/Third_Party/FreeRTOS/Source/CMSIS_RTOS/cmsis_os.c **** * @brief  Set the specified Signal Flags of an active thread.
 540:Middlewares/Third_Party/FreeRTOS/Source/CMSIS_RTOS/cmsis_os.c **** * @param  thread_id     thread ID obtained by \ref osThreadCreate or \ref osThreadGetId.
 541:Middlewares/Third_Party/FreeRTOS/Source/CMSIS_RTOS/cmsis_os.c **** * @param  signals       specifies the signal flags of the thread that should be set.
 542:Middlewares/Third_Party/FreeRTOS/Source/CMSIS_RTOS/cmsis_os.c **** * @retval previous signal flags of the specified thread or 0x80000000 in case of incorrect paramete
 543:Middlewares/Third_Party/FreeRTOS/Source/CMSIS_RTOS/cmsis_os.c **** * @note   MUST REMAIN UNCHANGED: \b osSignalSet shall be consistent in every CMSIS-RTOS.
 544:Middlewares/Third_Party/FreeRTOS/Source/CMSIS_RTOS/cmsis_os.c **** */
 545:Middlewares/Third_Party/FreeRTOS/Source/CMSIS_RTOS/cmsis_os.c **** int32_t osSignalSet (osThreadId thread_id, int32_t signal)
 546:Middlewares/Third_Party/FreeRTOS/Source/CMSIS_RTOS/cmsis_os.c **** {
 684              		.loc 1 546 1 is_stmt 1 view -0
 685              		.cfi_startproc
 686              		@ args = 0, pretend = 0, frame = 8
 687              		@ frame_needed = 0, uses_anonymous_args = 0
 688              		.loc 1 546 1 is_stmt 0 view .LVU140
ARM GAS  C:\Users\xixi\AppData\Local\Temp\ccei1Zb6.s 			page 26


 689 0000 30B5     		push	{r4, r5, lr}
 690              	.LCFI12:
 691              		.cfi_def_cfa_offset 12
 692              		.cfi_offset 4, -12
 693              		.cfi_offset 5, -8
 694              		.cfi_offset 14, -4
 695 0002 85B0     		sub	sp, sp, #20
 696              	.LCFI13:
 697              		.cfi_def_cfa_offset 32
 698 0004 0446     		mov	r4, r0
 699 0006 0D46     		mov	r5, r1
 547:Middlewares/Third_Party/FreeRTOS/Source/CMSIS_RTOS/cmsis_os.c **** #if( configUSE_TASK_NOTIFICATIONS == 1 )	
 548:Middlewares/Third_Party/FreeRTOS/Source/CMSIS_RTOS/cmsis_os.c ****   BaseType_t xHigherPriorityTaskWoken = pdFALSE;
 700              		.loc 1 548 3 is_stmt 1 view .LVU141
 701              		.loc 1 548 14 is_stmt 0 view .LVU142
 702 0008 0023     		movs	r3, #0
 703 000a 0393     		str	r3, [sp, #12]
 549:Middlewares/Third_Party/FreeRTOS/Source/CMSIS_RTOS/cmsis_os.c ****   uint32_t ulPreviousNotificationValue = 0;
 704              		.loc 1 549 3 is_stmt 1 view .LVU143
 705              		.loc 1 549 12 is_stmt 0 view .LVU144
 706 000c 0293     		str	r3, [sp, #8]
 550:Middlewares/Third_Party/FreeRTOS/Source/CMSIS_RTOS/cmsis_os.c ****   
 551:Middlewares/Third_Party/FreeRTOS/Source/CMSIS_RTOS/cmsis_os.c ****   if (inHandlerMode())
 707              		.loc 1 551 3 is_stmt 1 view .LVU145
 708              		.loc 1 551 7 is_stmt 0 view .LVU146
 709 000e FFF7FEFF 		bl	inHandlerMode
 710              	.LVL50:
 711              		.loc 1 551 6 view .LVU147
 712 0012 B0B1     		cbz	r0, .L45
 552:Middlewares/Third_Party/FreeRTOS/Source/CMSIS_RTOS/cmsis_os.c ****   {
 553:Middlewares/Third_Party/FreeRTOS/Source/CMSIS_RTOS/cmsis_os.c ****     if(xTaskGenericNotifyFromISR( thread_id , (uint32_t)signal, eSetBits, &ulPreviousNotificationVa
 713              		.loc 1 553 5 is_stmt 1 view .LVU148
 714              		.loc 1 553 8 is_stmt 0 view .LVU149
 715 0014 03AB     		add	r3, sp, #12
 716 0016 0093     		str	r3, [sp]
 717 0018 02AB     		add	r3, sp, #8
 718 001a 0122     		movs	r2, #1
 719 001c 2946     		mov	r1, r5
 720 001e 2046     		mov	r0, r4
 721 0020 FFF7FEFF 		bl	xTaskGenericNotifyFromISR
 722              	.LVL51:
 723              		.loc 1 553 7 view .LVU150
 724 0024 0128     		cmp	r0, #1
 725 0026 17D1     		bne	.L48
 554:Middlewares/Third_Party/FreeRTOS/Source/CMSIS_RTOS/cmsis_os.c ****       return 0x80000000;
 555:Middlewares/Third_Party/FreeRTOS/Source/CMSIS_RTOS/cmsis_os.c ****     
 556:Middlewares/Third_Party/FreeRTOS/Source/CMSIS_RTOS/cmsis_os.c ****     portYIELD_FROM_ISR( xHigherPriorityTaskWoken );
 726              		.loc 1 556 5 is_stmt 1 view .LVU151
 727 0028 039B     		ldr	r3, [sp, #12]
 728 002a 93B1     		cbz	r3, .L47
 729              		.loc 1 556 5 discriminator 1 view .LVU152
 730 002c 4FF0E023 		mov	r3, #-536813568
 731 0030 4FF08052 		mov	r2, #268435456
 732 0034 C3F8042D 		str	r2, [r3, #3332]
 733              		.loc 1 556 5 discriminator 1 view .LVU153
 734              		.syntax unified
 735              	@ 556 "Middlewares/Third_Party/FreeRTOS/Source/CMSIS_RTOS/cmsis_os.c" 1
ARM GAS  C:\Users\xixi\AppData\Local\Temp\ccei1Zb6.s 			page 27


 736 0038 BFF34F8F 		dsb
 737              	@ 0 "" 2
 738              		.loc 1 556 5 discriminator 1 view .LVU154
 739              	@ 556 "Middlewares/Third_Party/FreeRTOS/Source/CMSIS_RTOS/cmsis_os.c" 1
 740 003c BFF36F8F 		isb
 741              	@ 0 "" 2
 742              		.thumb
 743              		.syntax unified
 744 0040 07E0     		b	.L47
 745              	.L45:
 557:Middlewares/Third_Party/FreeRTOS/Source/CMSIS_RTOS/cmsis_os.c ****   }  
 558:Middlewares/Third_Party/FreeRTOS/Source/CMSIS_RTOS/cmsis_os.c ****   else if(xTaskGenericNotify( thread_id , (uint32_t)signal, eSetBits, &ulPreviousNotificationValue)
 746              		.loc 1 558 8 view .LVU155
 747              		.loc 1 558 11 is_stmt 0 view .LVU156
 748 0042 02AB     		add	r3, sp, #8
 749 0044 0122     		movs	r2, #1
 750 0046 2946     		mov	r1, r5
 751 0048 2046     		mov	r0, r4
 752 004a FFF7FEFF 		bl	xTaskGenericNotify
 753              	.LVL52:
 754              		.loc 1 558 10 view .LVU157
 755 004e 0128     		cmp	r0, #1
 756 0050 05D1     		bne	.L49
 757              	.L47:
 559:Middlewares/Third_Party/FreeRTOS/Source/CMSIS_RTOS/cmsis_os.c ****     return 0x80000000;
 560:Middlewares/Third_Party/FreeRTOS/Source/CMSIS_RTOS/cmsis_os.c ****   
 561:Middlewares/Third_Party/FreeRTOS/Source/CMSIS_RTOS/cmsis_os.c ****   return ulPreviousNotificationValue;
 758              		.loc 1 561 3 is_stmt 1 view .LVU158
 759              		.loc 1 561 10 is_stmt 0 view .LVU159
 760 0052 0298     		ldr	r0, [sp, #8]
 761              	.L44:
 562:Middlewares/Third_Party/FreeRTOS/Source/CMSIS_RTOS/cmsis_os.c **** #else
 563:Middlewares/Third_Party/FreeRTOS/Source/CMSIS_RTOS/cmsis_os.c ****   (void) thread_id;
 564:Middlewares/Third_Party/FreeRTOS/Source/CMSIS_RTOS/cmsis_os.c ****   (void) signal;
 565:Middlewares/Third_Party/FreeRTOS/Source/CMSIS_RTOS/cmsis_os.c **** 
 566:Middlewares/Third_Party/FreeRTOS/Source/CMSIS_RTOS/cmsis_os.c ****   return 0x80000000; /* Task Notification not supported */ 	
 567:Middlewares/Third_Party/FreeRTOS/Source/CMSIS_RTOS/cmsis_os.c **** #endif
 568:Middlewares/Third_Party/FreeRTOS/Source/CMSIS_RTOS/cmsis_os.c **** }
 762              		.loc 1 568 1 view .LVU160
 763 0054 05B0     		add	sp, sp, #20
 764              	.LCFI14:
 765              		.cfi_remember_state
 766              		.cfi_def_cfa_offset 12
 767              		@ sp needed
 768 0056 30BD     		pop	{r4, r5, pc}
 769              	.LVL53:
 770              	.L48:
 771              	.LCFI15:
 772              		.cfi_restore_state
 554:Middlewares/Third_Party/FreeRTOS/Source/CMSIS_RTOS/cmsis_os.c ****     
 773              		.loc 1 554 14 view .LVU161
 774 0058 4FF00040 		mov	r0, #-2147483648
 775 005c FAE7     		b	.L44
 776              	.L49:
 559:Middlewares/Third_Party/FreeRTOS/Source/CMSIS_RTOS/cmsis_os.c ****     return 0x80000000;
 777              		.loc 1 559 12 view .LVU162
 778 005e 4FF00040 		mov	r0, #-2147483648
ARM GAS  C:\Users\xixi\AppData\Local\Temp\ccei1Zb6.s 			page 28


 779 0062 F7E7     		b	.L44
 780              		.cfi_endproc
 781              	.LFE124:
 783              		.section	.text.osSignalWait,"ax",%progbits
 784              		.align	1
 785              		.global	osSignalWait
 786              		.syntax unified
 787              		.thumb
 788              		.thumb_func
 790              	osSignalWait:
 791              	.LVL54:
 792              	.LFB125:
 569:Middlewares/Third_Party/FreeRTOS/Source/CMSIS_RTOS/cmsis_os.c **** 
 570:Middlewares/Third_Party/FreeRTOS/Source/CMSIS_RTOS/cmsis_os.c **** /**
 571:Middlewares/Third_Party/FreeRTOS/Source/CMSIS_RTOS/cmsis_os.c **** * @brief  Clear the specified Signal Flags of an active thread.
 572:Middlewares/Third_Party/FreeRTOS/Source/CMSIS_RTOS/cmsis_os.c **** * @param  thread_id  thread ID obtained by \ref osThreadCreate or \ref osThreadGetId.
 573:Middlewares/Third_Party/FreeRTOS/Source/CMSIS_RTOS/cmsis_os.c **** * @param  signals    specifies the signal flags of the thread that shall be cleared.
 574:Middlewares/Third_Party/FreeRTOS/Source/CMSIS_RTOS/cmsis_os.c **** * @retval  previous signal flags of the specified thread or 0x80000000 in case of incorrect paramet
 575:Middlewares/Third_Party/FreeRTOS/Source/CMSIS_RTOS/cmsis_os.c **** * @note   MUST REMAIN UNCHANGED: \b osSignalClear shall be consistent in every CMSIS-RTOS.
 576:Middlewares/Third_Party/FreeRTOS/Source/CMSIS_RTOS/cmsis_os.c **** */
 577:Middlewares/Third_Party/FreeRTOS/Source/CMSIS_RTOS/cmsis_os.c **** int32_t osSignalClear (osThreadId thread_id, int32_t signal);
 578:Middlewares/Third_Party/FreeRTOS/Source/CMSIS_RTOS/cmsis_os.c **** 
 579:Middlewares/Third_Party/FreeRTOS/Source/CMSIS_RTOS/cmsis_os.c **** /**
 580:Middlewares/Third_Party/FreeRTOS/Source/CMSIS_RTOS/cmsis_os.c **** * @brief  Wait for one or more Signal Flags to become signaled for the current \b RUNNING thread.
 581:Middlewares/Third_Party/FreeRTOS/Source/CMSIS_RTOS/cmsis_os.c **** * @param  signals   wait until all specified signal flags set or 0 for any single signal flag.
 582:Middlewares/Third_Party/FreeRTOS/Source/CMSIS_RTOS/cmsis_os.c **** * @param  millisec  timeout value or 0 in case of no time-out.
 583:Middlewares/Third_Party/FreeRTOS/Source/CMSIS_RTOS/cmsis_os.c **** * @retval  event flag information or error code.
 584:Middlewares/Third_Party/FreeRTOS/Source/CMSIS_RTOS/cmsis_os.c **** * @note   MUST REMAIN UNCHANGED: \b osSignalWait shall be consistent in every CMSIS-RTOS.
 585:Middlewares/Third_Party/FreeRTOS/Source/CMSIS_RTOS/cmsis_os.c **** */
 586:Middlewares/Third_Party/FreeRTOS/Source/CMSIS_RTOS/cmsis_os.c **** osEvent osSignalWait (int32_t signals, uint32_t millisec)
 587:Middlewares/Third_Party/FreeRTOS/Source/CMSIS_RTOS/cmsis_os.c **** {
 793              		.loc 1 587 1 is_stmt 1 view -0
 794              		.cfi_startproc
 795              		@ args = 0, pretend = 0, frame = 16
 796              		@ frame_needed = 0, uses_anonymous_args = 0
 797              		.loc 1 587 1 is_stmt 0 view .LVU164
 798 0000 70B5     		push	{r4, r5, r6, lr}
 799              	.LCFI16:
 800              		.cfi_def_cfa_offset 16
 801              		.cfi_offset 4, -16
 802              		.cfi_offset 5, -12
 803              		.cfi_offset 6, -8
 804              		.cfi_offset 14, -4
 805 0002 84B0     		sub	sp, sp, #16
 806              	.LCFI17:
 807              		.cfi_def_cfa_offset 32
 808 0004 0446     		mov	r4, r0
 809 0006 0E46     		mov	r6, r1
 810 0008 1546     		mov	r5, r2
 588:Middlewares/Third_Party/FreeRTOS/Source/CMSIS_RTOS/cmsis_os.c ****   osEvent ret;
 811              		.loc 1 588 3 is_stmt 1 view .LVU165
 589:Middlewares/Third_Party/FreeRTOS/Source/CMSIS_RTOS/cmsis_os.c **** 
 590:Middlewares/Third_Party/FreeRTOS/Source/CMSIS_RTOS/cmsis_os.c **** #if( configUSE_TASK_NOTIFICATIONS == 1 )
 591:Middlewares/Third_Party/FreeRTOS/Source/CMSIS_RTOS/cmsis_os.c **** 	
 592:Middlewares/Third_Party/FreeRTOS/Source/CMSIS_RTOS/cmsis_os.c ****   TickType_t ticks;
 812              		.loc 1 592 3 view .LVU166
 593:Middlewares/Third_Party/FreeRTOS/Source/CMSIS_RTOS/cmsis_os.c **** 
ARM GAS  C:\Users\xixi\AppData\Local\Temp\ccei1Zb6.s 			page 29


 594:Middlewares/Third_Party/FreeRTOS/Source/CMSIS_RTOS/cmsis_os.c ****   ret.value.signals = 0;  
 813              		.loc 1 594 3 view .LVU167
 814              		.loc 1 594 21 is_stmt 0 view .LVU168
 815 000a 0023     		movs	r3, #0
 816 000c 0293     		str	r3, [sp, #8]
 595:Middlewares/Third_Party/FreeRTOS/Source/CMSIS_RTOS/cmsis_os.c ****   ticks = 0;
 817              		.loc 1 595 3 is_stmt 1 view .LVU169
 818              	.LVL55:
 596:Middlewares/Third_Party/FreeRTOS/Source/CMSIS_RTOS/cmsis_os.c ****   if (millisec == osWaitForever) {
 819              		.loc 1 596 3 view .LVU170
 597:Middlewares/Third_Party/FreeRTOS/Source/CMSIS_RTOS/cmsis_os.c ****     ticks = portMAX_DELAY;
 598:Middlewares/Third_Party/FreeRTOS/Source/CMSIS_RTOS/cmsis_os.c ****   }
 599:Middlewares/Third_Party/FreeRTOS/Source/CMSIS_RTOS/cmsis_os.c ****   else if (millisec != 0) {
 600:Middlewares/Third_Party/FreeRTOS/Source/CMSIS_RTOS/cmsis_os.c ****     ticks = millisec / portTICK_PERIOD_MS;
 601:Middlewares/Third_Party/FreeRTOS/Source/CMSIS_RTOS/cmsis_os.c ****     if (ticks == 0) {
 602:Middlewares/Third_Party/FreeRTOS/Source/CMSIS_RTOS/cmsis_os.c ****       ticks = 1;
 603:Middlewares/Third_Party/FreeRTOS/Source/CMSIS_RTOS/cmsis_os.c ****     }
 604:Middlewares/Third_Party/FreeRTOS/Source/CMSIS_RTOS/cmsis_os.c ****   }  
 605:Middlewares/Third_Party/FreeRTOS/Source/CMSIS_RTOS/cmsis_os.c ****   
 606:Middlewares/Third_Party/FreeRTOS/Source/CMSIS_RTOS/cmsis_os.c ****   if (inHandlerMode())
 820              		.loc 1 606 3 view .LVU171
 821              		.loc 1 606 7 is_stmt 0 view .LVU172
 822 000e FFF7FEFF 		bl	inHandlerMode
 823              	.LVL56:
 824              		.loc 1 606 6 view .LVU173
 825 0012 48B1     		cbz	r0, .L52
 607:Middlewares/Third_Party/FreeRTOS/Source/CMSIS_RTOS/cmsis_os.c ****   {
 608:Middlewares/Third_Party/FreeRTOS/Source/CMSIS_RTOS/cmsis_os.c ****     ret.status = osErrorISR;  /*Not allowed in ISR*/
 826              		.loc 1 608 5 is_stmt 1 view .LVU174
 827              		.loc 1 608 16 is_stmt 0 view .LVU175
 828 0014 8223     		movs	r3, #130
 829 0016 0193     		str	r3, [sp, #4]
 830              	.L53:
 609:Middlewares/Third_Party/FreeRTOS/Source/CMSIS_RTOS/cmsis_os.c ****   }
 610:Middlewares/Third_Party/FreeRTOS/Source/CMSIS_RTOS/cmsis_os.c ****   else
 611:Middlewares/Third_Party/FreeRTOS/Source/CMSIS_RTOS/cmsis_os.c ****   {
 612:Middlewares/Third_Party/FreeRTOS/Source/CMSIS_RTOS/cmsis_os.c ****     if(xTaskNotifyWait( 0,(uint32_t) signals, (uint32_t *)&ret.value.signals, ticks) != pdTRUE)
 613:Middlewares/Third_Party/FreeRTOS/Source/CMSIS_RTOS/cmsis_os.c ****     {
 614:Middlewares/Third_Party/FreeRTOS/Source/CMSIS_RTOS/cmsis_os.c ****       if(ticks == 0)  ret.status = osOK;
 615:Middlewares/Third_Party/FreeRTOS/Source/CMSIS_RTOS/cmsis_os.c ****       else  ret.status = osEventTimeout;
 616:Middlewares/Third_Party/FreeRTOS/Source/CMSIS_RTOS/cmsis_os.c ****     }
 617:Middlewares/Third_Party/FreeRTOS/Source/CMSIS_RTOS/cmsis_os.c ****     else if(ret.value.signals < 0)
 618:Middlewares/Third_Party/FreeRTOS/Source/CMSIS_RTOS/cmsis_os.c ****     {
 619:Middlewares/Third_Party/FreeRTOS/Source/CMSIS_RTOS/cmsis_os.c ****       ret.status =  osErrorValue;     
 620:Middlewares/Third_Party/FreeRTOS/Source/CMSIS_RTOS/cmsis_os.c ****     }
 621:Middlewares/Third_Party/FreeRTOS/Source/CMSIS_RTOS/cmsis_os.c ****     else  ret.status =  osEventSignal;
 622:Middlewares/Third_Party/FreeRTOS/Source/CMSIS_RTOS/cmsis_os.c ****   }
 623:Middlewares/Third_Party/FreeRTOS/Source/CMSIS_RTOS/cmsis_os.c **** #else
 624:Middlewares/Third_Party/FreeRTOS/Source/CMSIS_RTOS/cmsis_os.c ****   (void) signals;
 625:Middlewares/Third_Party/FreeRTOS/Source/CMSIS_RTOS/cmsis_os.c ****   (void) millisec;
 626:Middlewares/Third_Party/FreeRTOS/Source/CMSIS_RTOS/cmsis_os.c **** 	
 627:Middlewares/Third_Party/FreeRTOS/Source/CMSIS_RTOS/cmsis_os.c ****   ret.status =  osErrorOS;	/* Task Notification not supported */
 628:Middlewares/Third_Party/FreeRTOS/Source/CMSIS_RTOS/cmsis_os.c **** #endif
 629:Middlewares/Third_Party/FreeRTOS/Source/CMSIS_RTOS/cmsis_os.c ****   
 630:Middlewares/Third_Party/FreeRTOS/Source/CMSIS_RTOS/cmsis_os.c ****   return ret;
 831              		.loc 1 630 3 is_stmt 1 view .LVU176
 832              		.loc 1 630 10 is_stmt 0 view .LVU177
ARM GAS  C:\Users\xixi\AppData\Local\Temp\ccei1Zb6.s 			page 30


 833 0018 04AB     		add	r3, sp, #16
 834 001a 13E90700 		ldmdb	r3, {r0, r1, r2}
 835 001e 84E80700 		stm	r4, {r0, r1, r2}
 631:Middlewares/Third_Party/FreeRTOS/Source/CMSIS_RTOS/cmsis_os.c **** }
 836              		.loc 1 631 1 view .LVU178
 837 0022 2046     		mov	r0, r4
 838 0024 04B0     		add	sp, sp, #16
 839              	.LCFI18:
 840              		.cfi_remember_state
 841              		.cfi_def_cfa_offset 16
 842              		@ sp needed
 843 0026 70BD     		pop	{r4, r5, r6, pc}
 844              	.LVL57:
 845              	.L52:
 846              	.LCFI19:
 847              		.cfi_restore_state
 612:Middlewares/Third_Party/FreeRTOS/Source/CMSIS_RTOS/cmsis_os.c ****     {
 848              		.loc 1 612 5 is_stmt 1 view .LVU179
 612:Middlewares/Third_Party/FreeRTOS/Source/CMSIS_RTOS/cmsis_os.c ****     {
 849              		.loc 1 612 8 is_stmt 0 view .LVU180
 850 0028 2B46     		mov	r3, r5
 851 002a 02AA     		add	r2, sp, #8
 852 002c 3146     		mov	r1, r6
 853 002e 0020     		movs	r0, #0
 854 0030 FFF7FEFF 		bl	xTaskNotifyWait
 855              	.LVL58:
 612:Middlewares/Third_Party/FreeRTOS/Source/CMSIS_RTOS/cmsis_os.c ****     {
 856              		.loc 1 612 7 view .LVU181
 857 0034 0128     		cmp	r0, #1
 858 0036 06D0     		beq	.L54
 614:Middlewares/Third_Party/FreeRTOS/Source/CMSIS_RTOS/cmsis_os.c ****       else  ret.status = osEventTimeout;
 859              		.loc 1 614 7 is_stmt 1 view .LVU182
 614:Middlewares/Third_Party/FreeRTOS/Source/CMSIS_RTOS/cmsis_os.c ****       else  ret.status = osEventTimeout;
 860              		.loc 1 614 9 is_stmt 0 view .LVU183
 861 0038 15B9     		cbnz	r5, .L55
 614:Middlewares/Third_Party/FreeRTOS/Source/CMSIS_RTOS/cmsis_os.c ****       else  ret.status = osEventTimeout;
 862              		.loc 1 614 23 is_stmt 1 discriminator 1 view .LVU184
 614:Middlewares/Third_Party/FreeRTOS/Source/CMSIS_RTOS/cmsis_os.c ****       else  ret.status = osEventTimeout;
 863              		.loc 1 614 34 is_stmt 0 discriminator 1 view .LVU185
 864 003a 0023     		movs	r3, #0
 865 003c 0193     		str	r3, [sp, #4]
 866 003e EBE7     		b	.L53
 867              	.L55:
 615:Middlewares/Third_Party/FreeRTOS/Source/CMSIS_RTOS/cmsis_os.c ****     }
 868              		.loc 1 615 13 is_stmt 1 view .LVU186
 615:Middlewares/Third_Party/FreeRTOS/Source/CMSIS_RTOS/cmsis_os.c ****     }
 869              		.loc 1 615 24 is_stmt 0 view .LVU187
 870 0040 4023     		movs	r3, #64
 871 0042 0193     		str	r3, [sp, #4]
 872 0044 E8E7     		b	.L53
 873              	.L54:
 617:Middlewares/Third_Party/FreeRTOS/Source/CMSIS_RTOS/cmsis_os.c ****     {
 874              		.loc 1 617 10 is_stmt 1 view .LVU188
 617:Middlewares/Third_Party/FreeRTOS/Source/CMSIS_RTOS/cmsis_os.c ****     {
 875              		.loc 1 617 22 is_stmt 0 view .LVU189
 876 0046 029B     		ldr	r3, [sp, #8]
 617:Middlewares/Third_Party/FreeRTOS/Source/CMSIS_RTOS/cmsis_os.c ****     {
ARM GAS  C:\Users\xixi\AppData\Local\Temp\ccei1Zb6.s 			page 31


 877              		.loc 1 617 12 view .LVU190
 878 0048 002B     		cmp	r3, #0
 879 004a 02DB     		blt	.L58
 621:Middlewares/Third_Party/FreeRTOS/Source/CMSIS_RTOS/cmsis_os.c ****   }
 880              		.loc 1 621 11 is_stmt 1 view .LVU191
 621:Middlewares/Third_Party/FreeRTOS/Source/CMSIS_RTOS/cmsis_os.c ****   }
 881              		.loc 1 621 22 is_stmt 0 view .LVU192
 882 004c 0823     		movs	r3, #8
 883 004e 0193     		str	r3, [sp, #4]
 884 0050 E2E7     		b	.L53
 885              	.L58:
 619:Middlewares/Third_Party/FreeRTOS/Source/CMSIS_RTOS/cmsis_os.c ****     }
 886              		.loc 1 619 7 is_stmt 1 view .LVU193
 619:Middlewares/Third_Party/FreeRTOS/Source/CMSIS_RTOS/cmsis_os.c ****     }
 887              		.loc 1 619 18 is_stmt 0 view .LVU194
 888 0052 8623     		movs	r3, #134
 889 0054 0193     		str	r3, [sp, #4]
 890 0056 DFE7     		b	.L53
 891              		.cfi_endproc
 892              	.LFE125:
 894              		.section	.text.osMutexCreate,"ax",%progbits
 895              		.align	1
 896              		.global	osMutexCreate
 897              		.syntax unified
 898              		.thumb
 899              		.thumb_func
 901              	osMutexCreate:
 902              	.LVL59:
 903              	.LFB126:
 632:Middlewares/Third_Party/FreeRTOS/Source/CMSIS_RTOS/cmsis_os.c **** 
 633:Middlewares/Third_Party/FreeRTOS/Source/CMSIS_RTOS/cmsis_os.c **** /****************************  Mutex Management ********************************/
 634:Middlewares/Third_Party/FreeRTOS/Source/CMSIS_RTOS/cmsis_os.c **** /**
 635:Middlewares/Third_Party/FreeRTOS/Source/CMSIS_RTOS/cmsis_os.c **** * @brief  Create and Initialize a Mutex object
 636:Middlewares/Third_Party/FreeRTOS/Source/CMSIS_RTOS/cmsis_os.c **** * @param  mutex_def     mutex definition referenced with \ref osMutex.
 637:Middlewares/Third_Party/FreeRTOS/Source/CMSIS_RTOS/cmsis_os.c **** * @retval  mutex ID for reference by other functions or NULL in case of error.
 638:Middlewares/Third_Party/FreeRTOS/Source/CMSIS_RTOS/cmsis_os.c **** * @note   MUST REMAIN UNCHANGED: \b osMutexCreate shall be consistent in every CMSIS-RTOS.
 639:Middlewares/Third_Party/FreeRTOS/Source/CMSIS_RTOS/cmsis_os.c **** */
 640:Middlewares/Third_Party/FreeRTOS/Source/CMSIS_RTOS/cmsis_os.c **** osMutexId osMutexCreate (const osMutexDef_t *mutex_def)
 641:Middlewares/Third_Party/FreeRTOS/Source/CMSIS_RTOS/cmsis_os.c **** {
 904              		.loc 1 641 1 is_stmt 1 view -0
 905              		.cfi_startproc
 906              		@ args = 0, pretend = 0, frame = 0
 907              		@ frame_needed = 0, uses_anonymous_args = 0
 908              		.loc 1 641 1 is_stmt 0 view .LVU196
 909 0000 08B5     		push	{r3, lr}
 910              	.LCFI20:
 911              		.cfi_def_cfa_offset 8
 912              		.cfi_offset 3, -8
 913              		.cfi_offset 14, -4
 642:Middlewares/Third_Party/FreeRTOS/Source/CMSIS_RTOS/cmsis_os.c **** #if ( configUSE_MUTEXES == 1)
 643:Middlewares/Third_Party/FreeRTOS/Source/CMSIS_RTOS/cmsis_os.c **** 
 644:Middlewares/Third_Party/FreeRTOS/Source/CMSIS_RTOS/cmsis_os.c **** #if( configSUPPORT_STATIC_ALLOCATION == 1 ) && ( configSUPPORT_DYNAMIC_ALLOCATION == 1 )
 645:Middlewares/Third_Party/FreeRTOS/Source/CMSIS_RTOS/cmsis_os.c **** 
 646:Middlewares/Third_Party/FreeRTOS/Source/CMSIS_RTOS/cmsis_os.c ****   if (mutex_def->controlblock != NULL) {
 914              		.loc 1 646 3 is_stmt 1 view .LVU197
 915              		.loc 1 646 16 is_stmt 0 view .LVU198
 916 0002 4168     		ldr	r1, [r0, #4]
ARM GAS  C:\Users\xixi\AppData\Local\Temp\ccei1Zb6.s 			page 32


 917              		.loc 1 646 6 view .LVU199
 918 0004 19B1     		cbz	r1, .L60
 647:Middlewares/Third_Party/FreeRTOS/Source/CMSIS_RTOS/cmsis_os.c ****     return xSemaphoreCreateMutexStatic( mutex_def->controlblock );
 919              		.loc 1 647 5 is_stmt 1 view .LVU200
 920              		.loc 1 647 12 is_stmt 0 view .LVU201
 921 0006 0120     		movs	r0, #1
 922              	.LVL60:
 923              		.loc 1 647 12 view .LVU202
 924 0008 FFF7FEFF 		bl	xQueueCreateMutexStatic
 925              	.LVL61:
 926              	.L59:
 648:Middlewares/Third_Party/FreeRTOS/Source/CMSIS_RTOS/cmsis_os.c ****      }
 649:Middlewares/Third_Party/FreeRTOS/Source/CMSIS_RTOS/cmsis_os.c ****   else {
 650:Middlewares/Third_Party/FreeRTOS/Source/CMSIS_RTOS/cmsis_os.c ****     return xSemaphoreCreateMutex(); 
 651:Middlewares/Third_Party/FreeRTOS/Source/CMSIS_RTOS/cmsis_os.c ****   }
 652:Middlewares/Third_Party/FreeRTOS/Source/CMSIS_RTOS/cmsis_os.c **** #elif ( configSUPPORT_STATIC_ALLOCATION == 1 )
 653:Middlewares/Third_Party/FreeRTOS/Source/CMSIS_RTOS/cmsis_os.c ****   return xSemaphoreCreateMutexStatic( mutex_def->controlblock );
 654:Middlewares/Third_Party/FreeRTOS/Source/CMSIS_RTOS/cmsis_os.c **** #else  
 655:Middlewares/Third_Party/FreeRTOS/Source/CMSIS_RTOS/cmsis_os.c ****     return xSemaphoreCreateMutex(); 
 656:Middlewares/Third_Party/FreeRTOS/Source/CMSIS_RTOS/cmsis_os.c **** #endif
 657:Middlewares/Third_Party/FreeRTOS/Source/CMSIS_RTOS/cmsis_os.c **** #else
 658:Middlewares/Third_Party/FreeRTOS/Source/CMSIS_RTOS/cmsis_os.c ****   return NULL;
 659:Middlewares/Third_Party/FreeRTOS/Source/CMSIS_RTOS/cmsis_os.c **** #endif
 660:Middlewares/Third_Party/FreeRTOS/Source/CMSIS_RTOS/cmsis_os.c **** }
 927              		.loc 1 660 1 view .LVU203
 928 000c 08BD     		pop	{r3, pc}
 929              	.LVL62:
 930              	.L60:
 650:Middlewares/Third_Party/FreeRTOS/Source/CMSIS_RTOS/cmsis_os.c ****   }
 931              		.loc 1 650 5 is_stmt 1 view .LVU204
 650:Middlewares/Third_Party/FreeRTOS/Source/CMSIS_RTOS/cmsis_os.c ****   }
 932              		.loc 1 650 12 is_stmt 0 view .LVU205
 933 000e 0120     		movs	r0, #1
 934              	.LVL63:
 650:Middlewares/Third_Party/FreeRTOS/Source/CMSIS_RTOS/cmsis_os.c ****   }
 935              		.loc 1 650 12 view .LVU206
 936 0010 FFF7FEFF 		bl	xQueueCreateMutex
 937              	.LVL64:
 938 0014 FAE7     		b	.L59
 939              		.cfi_endproc
 940              	.LFE126:
 942              		.section	.text.osMutexWait,"ax",%progbits
 943              		.align	1
 944              		.global	osMutexWait
 945              		.syntax unified
 946              		.thumb
 947              		.thumb_func
 949              	osMutexWait:
 950              	.LVL65:
 951              	.LFB127:
 661:Middlewares/Third_Party/FreeRTOS/Source/CMSIS_RTOS/cmsis_os.c **** 
 662:Middlewares/Third_Party/FreeRTOS/Source/CMSIS_RTOS/cmsis_os.c **** /**
 663:Middlewares/Third_Party/FreeRTOS/Source/CMSIS_RTOS/cmsis_os.c **** * @brief Wait until a Mutex becomes available
 664:Middlewares/Third_Party/FreeRTOS/Source/CMSIS_RTOS/cmsis_os.c **** * @param mutex_id      mutex ID obtained by \ref osMutexCreate.
 665:Middlewares/Third_Party/FreeRTOS/Source/CMSIS_RTOS/cmsis_os.c **** * @param millisec      timeout value or 0 in case of no time-out.
 666:Middlewares/Third_Party/FreeRTOS/Source/CMSIS_RTOS/cmsis_os.c **** * @retval  status code that indicates the execution status of the function.
 667:Middlewares/Third_Party/FreeRTOS/Source/CMSIS_RTOS/cmsis_os.c **** * @note   MUST REMAIN UNCHANGED: \b osMutexWait shall be consistent in every CMSIS-RTOS.
ARM GAS  C:\Users\xixi\AppData\Local\Temp\ccei1Zb6.s 			page 33


 668:Middlewares/Third_Party/FreeRTOS/Source/CMSIS_RTOS/cmsis_os.c **** */
 669:Middlewares/Third_Party/FreeRTOS/Source/CMSIS_RTOS/cmsis_os.c **** osStatus osMutexWait (osMutexId mutex_id, uint32_t millisec)
 670:Middlewares/Third_Party/FreeRTOS/Source/CMSIS_RTOS/cmsis_os.c **** {
 952              		.loc 1 670 1 is_stmt 1 view -0
 953              		.cfi_startproc
 954              		@ args = 0, pretend = 0, frame = 8
 955              		@ frame_needed = 0, uses_anonymous_args = 0
 956              		.loc 1 670 1 is_stmt 0 view .LVU208
 957 0000 30B5     		push	{r4, r5, lr}
 958              	.LCFI21:
 959              		.cfi_def_cfa_offset 12
 960              		.cfi_offset 4, -12
 961              		.cfi_offset 5, -8
 962              		.cfi_offset 14, -4
 963 0002 83B0     		sub	sp, sp, #12
 964              	.LCFI22:
 965              		.cfi_def_cfa_offset 24
 671:Middlewares/Third_Party/FreeRTOS/Source/CMSIS_RTOS/cmsis_os.c ****   TickType_t ticks;
 966              		.loc 1 671 3 is_stmt 1 view .LVU209
 672:Middlewares/Third_Party/FreeRTOS/Source/CMSIS_RTOS/cmsis_os.c ****   portBASE_TYPE taskWoken = pdFALSE;  
 967              		.loc 1 672 3 view .LVU210
 968              		.loc 1 672 17 is_stmt 0 view .LVU211
 969 0004 0023     		movs	r3, #0
 970 0006 0193     		str	r3, [sp, #4]
 673:Middlewares/Third_Party/FreeRTOS/Source/CMSIS_RTOS/cmsis_os.c ****   
 674:Middlewares/Third_Party/FreeRTOS/Source/CMSIS_RTOS/cmsis_os.c ****   
 675:Middlewares/Third_Party/FreeRTOS/Source/CMSIS_RTOS/cmsis_os.c ****   if (mutex_id == NULL) {
 971              		.loc 1 675 3 is_stmt 1 view .LVU212
 972              		.loc 1 675 6 is_stmt 0 view .LVU213
 973 0008 10B3     		cbz	r0, .L66
 974 000a 0C46     		mov	r4, r1
 975 000c 0546     		mov	r5, r0
 676:Middlewares/Third_Party/FreeRTOS/Source/CMSIS_RTOS/cmsis_os.c ****     return osErrorParameter;
 677:Middlewares/Third_Party/FreeRTOS/Source/CMSIS_RTOS/cmsis_os.c ****   }
 678:Middlewares/Third_Party/FreeRTOS/Source/CMSIS_RTOS/cmsis_os.c ****   
 679:Middlewares/Third_Party/FreeRTOS/Source/CMSIS_RTOS/cmsis_os.c ****   ticks = 0;
 976              		.loc 1 679 3 is_stmt 1 view .LVU214
 977              	.LVL66:
 680:Middlewares/Third_Party/FreeRTOS/Source/CMSIS_RTOS/cmsis_os.c ****   if (millisec == osWaitForever) {
 978              		.loc 1 680 3 view .LVU215
 681:Middlewares/Third_Party/FreeRTOS/Source/CMSIS_RTOS/cmsis_os.c ****     ticks = portMAX_DELAY;
 682:Middlewares/Third_Party/FreeRTOS/Source/CMSIS_RTOS/cmsis_os.c ****   }
 683:Middlewares/Third_Party/FreeRTOS/Source/CMSIS_RTOS/cmsis_os.c ****   else if (millisec != 0) {
 684:Middlewares/Third_Party/FreeRTOS/Source/CMSIS_RTOS/cmsis_os.c ****     ticks = millisec / portTICK_PERIOD_MS;
 685:Middlewares/Third_Party/FreeRTOS/Source/CMSIS_RTOS/cmsis_os.c ****     if (ticks == 0) {
 686:Middlewares/Third_Party/FreeRTOS/Source/CMSIS_RTOS/cmsis_os.c ****       ticks = 1;
 687:Middlewares/Third_Party/FreeRTOS/Source/CMSIS_RTOS/cmsis_os.c ****     }
 688:Middlewares/Third_Party/FreeRTOS/Source/CMSIS_RTOS/cmsis_os.c ****   }
 689:Middlewares/Third_Party/FreeRTOS/Source/CMSIS_RTOS/cmsis_os.c ****   
 690:Middlewares/Third_Party/FreeRTOS/Source/CMSIS_RTOS/cmsis_os.c ****   if (inHandlerMode()) {
 979              		.loc 1 690 3 view .LVU216
 980              		.loc 1 690 7 is_stmt 0 view .LVU217
 981 000e FFF7FEFF 		bl	inHandlerMode
 982              	.LVL67:
 983              		.loc 1 690 6 view .LVU218
 984 0012 A0B1     		cbz	r0, .L65
 691:Middlewares/Third_Party/FreeRTOS/Source/CMSIS_RTOS/cmsis_os.c ****     if (xSemaphoreTakeFromISR(mutex_id, &taskWoken) != pdTRUE) {
ARM GAS  C:\Users\xixi\AppData\Local\Temp\ccei1Zb6.s 			page 34


 985              		.loc 1 691 5 is_stmt 1 view .LVU219
 986              		.loc 1 691 9 is_stmt 0 view .LVU220
 987 0014 01AA     		add	r2, sp, #4
 988 0016 0021     		movs	r1, #0
 989 0018 2846     		mov	r0, r5
 990 001a FFF7FEFF 		bl	xQueueReceiveFromISR
 991              	.LVL68:
 992              		.loc 1 691 8 view .LVU221
 993 001e 0128     		cmp	r0, #1
 994 0020 18D1     		bne	.L67
 692:Middlewares/Third_Party/FreeRTOS/Source/CMSIS_RTOS/cmsis_os.c ****       return osErrorOS;
 693:Middlewares/Third_Party/FreeRTOS/Source/CMSIS_RTOS/cmsis_os.c ****     }
 694:Middlewares/Third_Party/FreeRTOS/Source/CMSIS_RTOS/cmsis_os.c **** 	portEND_SWITCHING_ISR(taskWoken);
 995              		.loc 1 694 2 is_stmt 1 view .LVU222
 996 0022 019B     		ldr	r3, [sp, #4]
 997 0024 C3B1     		cbz	r3, .L68
 998              		.loc 1 694 2 discriminator 1 view .LVU223
 999 0026 4FF0E023 		mov	r3, #-536813568
 1000 002a 4FF08052 		mov	r2, #268435456
 1001 002e C3F8042D 		str	r2, [r3, #3332]
 1002              		.loc 1 694 2 discriminator 1 view .LVU224
 1003              		.syntax unified
 1004              	@ 694 "Middlewares/Third_Party/FreeRTOS/Source/CMSIS_RTOS/cmsis_os.c" 1
 1005 0032 BFF34F8F 		dsb
 1006              	@ 0 "" 2
 1007              		.loc 1 694 2 discriminator 1 view .LVU225
 1008              	@ 694 "Middlewares/Third_Party/FreeRTOS/Source/CMSIS_RTOS/cmsis_os.c" 1
 1009 0036 BFF36F8F 		isb
 1010              	@ 0 "" 2
 695:Middlewares/Third_Party/FreeRTOS/Source/CMSIS_RTOS/cmsis_os.c ****   } 
 696:Middlewares/Third_Party/FreeRTOS/Source/CMSIS_RTOS/cmsis_os.c ****   else if (xSemaphoreTake(mutex_id, ticks) != pdTRUE) {
 697:Middlewares/Third_Party/FreeRTOS/Source/CMSIS_RTOS/cmsis_os.c ****     return osErrorOS;
 698:Middlewares/Third_Party/FreeRTOS/Source/CMSIS_RTOS/cmsis_os.c ****   }
 699:Middlewares/Third_Party/FreeRTOS/Source/CMSIS_RTOS/cmsis_os.c ****   
 700:Middlewares/Third_Party/FreeRTOS/Source/CMSIS_RTOS/cmsis_os.c ****   return osOK;
 1011              		.loc 1 700 10 is_stmt 0 discriminator 1 view .LVU226
 1012              		.thumb
 1013              		.syntax unified
 1014 003a 0020     		movs	r0, #0
 1015 003c 06E0     		b	.L63
 1016              	.L65:
 696:Middlewares/Third_Party/FreeRTOS/Source/CMSIS_RTOS/cmsis_os.c ****     return osErrorOS;
 1017              		.loc 1 696 8 is_stmt 1 view .LVU227
 696:Middlewares/Third_Party/FreeRTOS/Source/CMSIS_RTOS/cmsis_os.c ****     return osErrorOS;
 1018              		.loc 1 696 12 is_stmt 0 view .LVU228
 1019 003e 2146     		mov	r1, r4
 1020 0040 2846     		mov	r0, r5
 1021 0042 FFF7FEFF 		bl	xQueueSemaphoreTake
 1022              	.LVL69:
 696:Middlewares/Third_Party/FreeRTOS/Source/CMSIS_RTOS/cmsis_os.c ****     return osErrorOS;
 1023              		.loc 1 696 11 view .LVU229
 1024 0046 0128     		cmp	r0, #1
 1025 0048 08D1     		bne	.L69
 1026              		.loc 1 700 10 view .LVU230
 1027 004a 0020     		movs	r0, #0
 1028              	.LVL70:
 1029              	.L63:
ARM GAS  C:\Users\xixi\AppData\Local\Temp\ccei1Zb6.s 			page 35


 701:Middlewares/Third_Party/FreeRTOS/Source/CMSIS_RTOS/cmsis_os.c **** }
 1030              		.loc 1 701 1 view .LVU231
 1031 004c 03B0     		add	sp, sp, #12
 1032              	.LCFI23:
 1033              		.cfi_remember_state
 1034              		.cfi_def_cfa_offset 12
 1035              		@ sp needed
 1036 004e 30BD     		pop	{r4, r5, pc}
 1037              	.LVL71:
 1038              	.L66:
 1039              	.LCFI24:
 1040              		.cfi_restore_state
 676:Middlewares/Third_Party/FreeRTOS/Source/CMSIS_RTOS/cmsis_os.c ****   }
 1041              		.loc 1 676 12 view .LVU232
 1042 0050 8020     		movs	r0, #128
 1043              	.LVL72:
 676:Middlewares/Third_Party/FreeRTOS/Source/CMSIS_RTOS/cmsis_os.c ****   }
 1044              		.loc 1 676 12 view .LVU233
 1045 0052 FBE7     		b	.L63
 1046              	.LVL73:
 1047              	.L67:
 692:Middlewares/Third_Party/FreeRTOS/Source/CMSIS_RTOS/cmsis_os.c ****     }
 1048              		.loc 1 692 14 view .LVU234
 1049 0054 FF20     		movs	r0, #255
 1050 0056 F9E7     		b	.L63
 1051              	.L68:
 700:Middlewares/Third_Party/FreeRTOS/Source/CMSIS_RTOS/cmsis_os.c **** }
 1052              		.loc 1 700 10 view .LVU235
 1053 0058 0020     		movs	r0, #0
 1054 005a F7E7     		b	.L63
 1055              	.L69:
 697:Middlewares/Third_Party/FreeRTOS/Source/CMSIS_RTOS/cmsis_os.c ****   }
 1056              		.loc 1 697 12 view .LVU236
 1057 005c FF20     		movs	r0, #255
 1058 005e F5E7     		b	.L63
 1059              		.cfi_endproc
 1060              	.LFE127:
 1062              		.section	.text.osMutexRelease,"ax",%progbits
 1063              		.align	1
 1064              		.global	osMutexRelease
 1065              		.syntax unified
 1066              		.thumb
 1067              		.thumb_func
 1069              	osMutexRelease:
 1070              	.LVL74:
 1071              	.LFB128:
 702:Middlewares/Third_Party/FreeRTOS/Source/CMSIS_RTOS/cmsis_os.c **** 
 703:Middlewares/Third_Party/FreeRTOS/Source/CMSIS_RTOS/cmsis_os.c **** /**
 704:Middlewares/Third_Party/FreeRTOS/Source/CMSIS_RTOS/cmsis_os.c **** * @brief Release a Mutex that was obtained by \ref osMutexWait
 705:Middlewares/Third_Party/FreeRTOS/Source/CMSIS_RTOS/cmsis_os.c **** * @param mutex_id      mutex ID obtained by \ref osMutexCreate.
 706:Middlewares/Third_Party/FreeRTOS/Source/CMSIS_RTOS/cmsis_os.c **** * @retval  status code that indicates the execution status of the function.
 707:Middlewares/Third_Party/FreeRTOS/Source/CMSIS_RTOS/cmsis_os.c **** * @note   MUST REMAIN UNCHANGED: \b osMutexRelease shall be consistent in every CMSIS-RTOS.
 708:Middlewares/Third_Party/FreeRTOS/Source/CMSIS_RTOS/cmsis_os.c **** */
 709:Middlewares/Third_Party/FreeRTOS/Source/CMSIS_RTOS/cmsis_os.c **** osStatus osMutexRelease (osMutexId mutex_id)
 710:Middlewares/Third_Party/FreeRTOS/Source/CMSIS_RTOS/cmsis_os.c **** {
 1072              		.loc 1 710 1 is_stmt 1 view -0
 1073              		.cfi_startproc
ARM GAS  C:\Users\xixi\AppData\Local\Temp\ccei1Zb6.s 			page 36


 1074              		@ args = 0, pretend = 0, frame = 8
 1075              		@ frame_needed = 0, uses_anonymous_args = 0
 1076              		.loc 1 710 1 is_stmt 0 view .LVU238
 1077 0000 10B5     		push	{r4, lr}
 1078              	.LCFI25:
 1079              		.cfi_def_cfa_offset 8
 1080              		.cfi_offset 4, -8
 1081              		.cfi_offset 14, -4
 1082 0002 82B0     		sub	sp, sp, #8
 1083              	.LCFI26:
 1084              		.cfi_def_cfa_offset 16
 1085 0004 0446     		mov	r4, r0
 711:Middlewares/Third_Party/FreeRTOS/Source/CMSIS_RTOS/cmsis_os.c ****   osStatus result = osOK;
 1086              		.loc 1 711 3 is_stmt 1 view .LVU239
 1087              	.LVL75:
 712:Middlewares/Third_Party/FreeRTOS/Source/CMSIS_RTOS/cmsis_os.c ****   portBASE_TYPE taskWoken = pdFALSE;
 1088              		.loc 1 712 3 view .LVU240
 1089              		.loc 1 712 17 is_stmt 0 view .LVU241
 1090 0006 0023     		movs	r3, #0
 1091 0008 0193     		str	r3, [sp, #4]
 713:Middlewares/Third_Party/FreeRTOS/Source/CMSIS_RTOS/cmsis_os.c ****   
 714:Middlewares/Third_Party/FreeRTOS/Source/CMSIS_RTOS/cmsis_os.c ****   if (inHandlerMode()) {
 1092              		.loc 1 714 3 is_stmt 1 view .LVU242
 1093              		.loc 1 714 7 is_stmt 0 view .LVU243
 1094 000a FFF7FEFF 		bl	inHandlerMode
 1095              	.LVL76:
 1096              		.loc 1 714 6 view .LVU244
 1097 000e 98B1     		cbz	r0, .L72
 715:Middlewares/Third_Party/FreeRTOS/Source/CMSIS_RTOS/cmsis_os.c ****     if (xSemaphoreGiveFromISR(mutex_id, &taskWoken) != pdTRUE) {
 1098              		.loc 1 715 5 is_stmt 1 view .LVU245
 1099              		.loc 1 715 9 is_stmt 0 view .LVU246
 1100 0010 01A9     		add	r1, sp, #4
 1101 0012 2046     		mov	r0, r4
 1102 0014 FFF7FEFF 		bl	xQueueGiveFromISR
 1103              	.LVL77:
 1104              		.loc 1 715 8 view .LVU247
 1105 0018 0128     		cmp	r0, #1
 1106 001a 1AD1     		bne	.L74
 716:Middlewares/Third_Party/FreeRTOS/Source/CMSIS_RTOS/cmsis_os.c ****       return osErrorOS;
 717:Middlewares/Third_Party/FreeRTOS/Source/CMSIS_RTOS/cmsis_os.c ****     }
 718:Middlewares/Third_Party/FreeRTOS/Source/CMSIS_RTOS/cmsis_os.c ****     portEND_SWITCHING_ISR(taskWoken);
 1107              		.loc 1 718 5 is_stmt 1 view .LVU248
 1108 001c 019B     		ldr	r3, [sp, #4]
 1109 001e D3B1     		cbz	r3, .L75
 1110              		.loc 1 718 5 discriminator 1 view .LVU249
 1111 0020 4FF0E023 		mov	r3, #-536813568
 1112 0024 4FF08052 		mov	r2, #268435456
 1113 0028 C3F8042D 		str	r2, [r3, #3332]
 1114              		.loc 1 718 5 discriminator 1 view .LVU250
 1115              		.syntax unified
 1116              	@ 718 "Middlewares/Third_Party/FreeRTOS/Source/CMSIS_RTOS/cmsis_os.c" 1
 1117 002c BFF34F8F 		dsb
 1118              	@ 0 "" 2
 1119              		.loc 1 718 5 discriminator 1 view .LVU251
 1120              	@ 718 "Middlewares/Third_Party/FreeRTOS/Source/CMSIS_RTOS/cmsis_os.c" 1
 1121 0030 BFF36F8F 		isb
 1122              	@ 0 "" 2
ARM GAS  C:\Users\xixi\AppData\Local\Temp\ccei1Zb6.s 			page 37


 711:Middlewares/Third_Party/FreeRTOS/Source/CMSIS_RTOS/cmsis_os.c ****   portBASE_TYPE taskWoken = pdFALSE;
 1123              		.loc 1 711 12 is_stmt 0 discriminator 1 view .LVU252
 1124              		.thumb
 1125              		.syntax unified
 1126 0034 0020     		movs	r0, #0
 1127 0036 08E0     		b	.L71
 1128              	.L72:
 719:Middlewares/Third_Party/FreeRTOS/Source/CMSIS_RTOS/cmsis_os.c ****   }
 720:Middlewares/Third_Party/FreeRTOS/Source/CMSIS_RTOS/cmsis_os.c ****   else if (xSemaphoreGive(mutex_id) != pdTRUE) 
 1129              		.loc 1 720 8 is_stmt 1 view .LVU253
 1130              		.loc 1 720 12 is_stmt 0 view .LVU254
 1131 0038 0023     		movs	r3, #0
 1132 003a 1A46     		mov	r2, r3
 1133 003c 1946     		mov	r1, r3
 1134 003e 2046     		mov	r0, r4
 1135 0040 FFF7FEFF 		bl	xQueueGenericSend
 1136              	.LVL78:
 1137              		.loc 1 720 11 view .LVU255
 1138 0044 0128     		cmp	r0, #1
 1139 0046 02D0     		beq	.L78
 721:Middlewares/Third_Party/FreeRTOS/Source/CMSIS_RTOS/cmsis_os.c ****   {
 722:Middlewares/Third_Party/FreeRTOS/Source/CMSIS_RTOS/cmsis_os.c ****     result = osErrorOS;
 1140              		.loc 1 722 12 view .LVU256
 1141 0048 FF20     		movs	r0, #255
 1142              	.LVL79:
 1143              	.L71:
 723:Middlewares/Third_Party/FreeRTOS/Source/CMSIS_RTOS/cmsis_os.c ****   }
 724:Middlewares/Third_Party/FreeRTOS/Source/CMSIS_RTOS/cmsis_os.c ****   return result;
 725:Middlewares/Third_Party/FreeRTOS/Source/CMSIS_RTOS/cmsis_os.c **** }
 1144              		.loc 1 725 1 view .LVU257
 1145 004a 02B0     		add	sp, sp, #8
 1146              	.LCFI27:
 1147              		.cfi_remember_state
 1148              		.cfi_def_cfa_offset 8
 1149              		@ sp needed
 1150 004c 10BD     		pop	{r4, pc}
 1151              	.LVL80:
 1152              	.L78:
 1153              	.LCFI28:
 1154              		.cfi_restore_state
 711:Middlewares/Third_Party/FreeRTOS/Source/CMSIS_RTOS/cmsis_os.c ****   portBASE_TYPE taskWoken = pdFALSE;
 1155              		.loc 1 711 12 view .LVU258
 1156 004e 0020     		movs	r0, #0
 1157 0050 FBE7     		b	.L71
 1158              	.L74:
 716:Middlewares/Third_Party/FreeRTOS/Source/CMSIS_RTOS/cmsis_os.c ****     }
 1159              		.loc 1 716 14 view .LVU259
 1160 0052 FF20     		movs	r0, #255
 1161 0054 F9E7     		b	.L71
 1162              	.L75:
 711:Middlewares/Third_Party/FreeRTOS/Source/CMSIS_RTOS/cmsis_os.c ****   portBASE_TYPE taskWoken = pdFALSE;
 1163              		.loc 1 711 12 view .LVU260
 1164 0056 0020     		movs	r0, #0
 1165 0058 F7E7     		b	.L71
 1166              		.cfi_endproc
 1167              	.LFE128:
 1169              		.section	.text.osMutexDelete,"ax",%progbits
ARM GAS  C:\Users\xixi\AppData\Local\Temp\ccei1Zb6.s 			page 38


 1170              		.align	1
 1171              		.global	osMutexDelete
 1172              		.syntax unified
 1173              		.thumb
 1174              		.thumb_func
 1176              	osMutexDelete:
 1177              	.LVL81:
 1178              	.LFB129:
 726:Middlewares/Third_Party/FreeRTOS/Source/CMSIS_RTOS/cmsis_os.c **** 
 727:Middlewares/Third_Party/FreeRTOS/Source/CMSIS_RTOS/cmsis_os.c **** /**
 728:Middlewares/Third_Party/FreeRTOS/Source/CMSIS_RTOS/cmsis_os.c **** * @brief Delete a Mutex
 729:Middlewares/Third_Party/FreeRTOS/Source/CMSIS_RTOS/cmsis_os.c **** * @param mutex_id  mutex ID obtained by \ref osMutexCreate.
 730:Middlewares/Third_Party/FreeRTOS/Source/CMSIS_RTOS/cmsis_os.c **** * @retval  status code that indicates the execution status of the function.
 731:Middlewares/Third_Party/FreeRTOS/Source/CMSIS_RTOS/cmsis_os.c **** * @note   MUST REMAIN UNCHANGED: \b osMutexDelete shall be consistent in every CMSIS-RTOS.
 732:Middlewares/Third_Party/FreeRTOS/Source/CMSIS_RTOS/cmsis_os.c **** */
 733:Middlewares/Third_Party/FreeRTOS/Source/CMSIS_RTOS/cmsis_os.c **** osStatus osMutexDelete (osMutexId mutex_id)
 734:Middlewares/Third_Party/FreeRTOS/Source/CMSIS_RTOS/cmsis_os.c **** {
 1179              		.loc 1 734 1 is_stmt 1 view -0
 1180              		.cfi_startproc
 1181              		@ args = 0, pretend = 0, frame = 0
 1182              		@ frame_needed = 0, uses_anonymous_args = 0
 1183              		.loc 1 734 1 is_stmt 0 view .LVU262
 1184 0000 10B5     		push	{r4, lr}
 1185              	.LCFI29:
 1186              		.cfi_def_cfa_offset 8
 1187              		.cfi_offset 4, -8
 1188              		.cfi_offset 14, -4
 1189 0002 0446     		mov	r4, r0
 735:Middlewares/Third_Party/FreeRTOS/Source/CMSIS_RTOS/cmsis_os.c ****   if (inHandlerMode()) {
 1190              		.loc 1 735 3 is_stmt 1 view .LVU263
 1191              		.loc 1 735 7 is_stmt 0 view .LVU264
 1192 0004 FFF7FEFF 		bl	inHandlerMode
 1193              	.LVL82:
 1194              		.loc 1 735 6 view .LVU265
 1195 0008 20B9     		cbnz	r0, .L81
 736:Middlewares/Third_Party/FreeRTOS/Source/CMSIS_RTOS/cmsis_os.c ****     return osErrorISR;
 737:Middlewares/Third_Party/FreeRTOS/Source/CMSIS_RTOS/cmsis_os.c ****   }
 738:Middlewares/Third_Party/FreeRTOS/Source/CMSIS_RTOS/cmsis_os.c **** 
 739:Middlewares/Third_Party/FreeRTOS/Source/CMSIS_RTOS/cmsis_os.c ****   vQueueDelete(mutex_id);
 1196              		.loc 1 739 3 is_stmt 1 view .LVU266
 1197 000a 2046     		mov	r0, r4
 1198 000c FFF7FEFF 		bl	vQueueDelete
 1199              	.LVL83:
 740:Middlewares/Third_Party/FreeRTOS/Source/CMSIS_RTOS/cmsis_os.c **** 
 741:Middlewares/Third_Party/FreeRTOS/Source/CMSIS_RTOS/cmsis_os.c ****   return osOK;
 1200              		.loc 1 741 3 view .LVU267
 1201              		.loc 1 741 10 is_stmt 0 view .LVU268
 1202 0010 0020     		movs	r0, #0
 1203              	.L79:
 742:Middlewares/Third_Party/FreeRTOS/Source/CMSIS_RTOS/cmsis_os.c **** }
 1204              		.loc 1 742 1 view .LVU269
 1205 0012 10BD     		pop	{r4, pc}
 1206              	.LVL84:
 1207              	.L81:
 736:Middlewares/Third_Party/FreeRTOS/Source/CMSIS_RTOS/cmsis_os.c ****     return osErrorISR;
 1208              		.loc 1 736 12 view .LVU270
 1209 0014 8220     		movs	r0, #130
ARM GAS  C:\Users\xixi\AppData\Local\Temp\ccei1Zb6.s 			page 39


 1210 0016 FCE7     		b	.L79
 1211              		.cfi_endproc
 1212              	.LFE129:
 1214              		.section	.text.osSemaphoreCreate,"ax",%progbits
 1215              		.align	1
 1216              		.global	osSemaphoreCreate
 1217              		.syntax unified
 1218              		.thumb
 1219              		.thumb_func
 1221              	osSemaphoreCreate:
 1222              	.LVL85:
 1223              	.LFB130:
 743:Middlewares/Third_Party/FreeRTOS/Source/CMSIS_RTOS/cmsis_os.c **** 
 744:Middlewares/Third_Party/FreeRTOS/Source/CMSIS_RTOS/cmsis_os.c **** /********************  Semaphore Management Functions **************************/
 745:Middlewares/Third_Party/FreeRTOS/Source/CMSIS_RTOS/cmsis_os.c **** 
 746:Middlewares/Third_Party/FreeRTOS/Source/CMSIS_RTOS/cmsis_os.c **** #if (defined (osFeature_Semaphore)  &&  (osFeature_Semaphore != 0))
 747:Middlewares/Third_Party/FreeRTOS/Source/CMSIS_RTOS/cmsis_os.c **** 
 748:Middlewares/Third_Party/FreeRTOS/Source/CMSIS_RTOS/cmsis_os.c **** /**
 749:Middlewares/Third_Party/FreeRTOS/Source/CMSIS_RTOS/cmsis_os.c **** * @brief Create and Initialize a Semaphore object used for managing resources
 750:Middlewares/Third_Party/FreeRTOS/Source/CMSIS_RTOS/cmsis_os.c **** * @param semaphore_def semaphore definition referenced with \ref osSemaphore.
 751:Middlewares/Third_Party/FreeRTOS/Source/CMSIS_RTOS/cmsis_os.c **** * @param count         number of available resources.
 752:Middlewares/Third_Party/FreeRTOS/Source/CMSIS_RTOS/cmsis_os.c **** * @retval  semaphore ID for reference by other functions or NULL in case of error.
 753:Middlewares/Third_Party/FreeRTOS/Source/CMSIS_RTOS/cmsis_os.c **** * @note   MUST REMAIN UNCHANGED: \b osSemaphoreCreate shall be consistent in every CMSIS-RTOS.
 754:Middlewares/Third_Party/FreeRTOS/Source/CMSIS_RTOS/cmsis_os.c **** */
 755:Middlewares/Third_Party/FreeRTOS/Source/CMSIS_RTOS/cmsis_os.c **** osSemaphoreId osSemaphoreCreate (const osSemaphoreDef_t *semaphore_def, int32_t count)
 756:Middlewares/Third_Party/FreeRTOS/Source/CMSIS_RTOS/cmsis_os.c **** { 
 1224              		.loc 1 756 1 is_stmt 1 view -0
 1225              		.cfi_startproc
 1226              		@ args = 0, pretend = 0, frame = 0
 1227              		@ frame_needed = 0, uses_anonymous_args = 0
 1228              		.loc 1 756 1 is_stmt 0 view .LVU272
 1229 0000 10B5     		push	{r4, lr}
 1230              	.LCFI30:
 1231              		.cfi_def_cfa_offset 8
 1232              		.cfi_offset 4, -8
 1233              		.cfi_offset 14, -4
 1234 0002 82B0     		sub	sp, sp, #8
 1235              	.LCFI31:
 1236              		.cfi_def_cfa_offset 16
 757:Middlewares/Third_Party/FreeRTOS/Source/CMSIS_RTOS/cmsis_os.c **** #if( configSUPPORT_STATIC_ALLOCATION == 1 ) && ( configSUPPORT_DYNAMIC_ALLOCATION == 1 )
 758:Middlewares/Third_Party/FreeRTOS/Source/CMSIS_RTOS/cmsis_os.c **** 
 759:Middlewares/Third_Party/FreeRTOS/Source/CMSIS_RTOS/cmsis_os.c ****   osSemaphoreId sema;
 1237              		.loc 1 759 3 is_stmt 1 view .LVU273
 760:Middlewares/Third_Party/FreeRTOS/Source/CMSIS_RTOS/cmsis_os.c ****   
 761:Middlewares/Third_Party/FreeRTOS/Source/CMSIS_RTOS/cmsis_os.c ****   if (semaphore_def->controlblock != NULL){
 1238              		.loc 1 761 3 view .LVU274
 1239              		.loc 1 761 20 is_stmt 0 view .LVU275
 1240 0004 4468     		ldr	r4, [r0, #4]
 1241              		.loc 1 761 6 view .LVU276
 1242 0006 7CB1     		cbz	r4, .L84
 762:Middlewares/Third_Party/FreeRTOS/Source/CMSIS_RTOS/cmsis_os.c ****     if (count == 1) {
 1243              		.loc 1 762 5 is_stmt 1 view .LVU277
 1244              		.loc 1 762 8 is_stmt 0 view .LVU278
 1245 0008 0129     		cmp	r1, #1
 1246 000a 03D0     		beq	.L89
 763:Middlewares/Third_Party/FreeRTOS/Source/CMSIS_RTOS/cmsis_os.c ****       return xSemaphoreCreateBinaryStatic( semaphore_def->controlblock );
 764:Middlewares/Third_Party/FreeRTOS/Source/CMSIS_RTOS/cmsis_os.c ****     }
ARM GAS  C:\Users\xixi\AppData\Local\Temp\ccei1Zb6.s 			page 40


 765:Middlewares/Third_Party/FreeRTOS/Source/CMSIS_RTOS/cmsis_os.c ****     else {
 766:Middlewares/Third_Party/FreeRTOS/Source/CMSIS_RTOS/cmsis_os.c **** #if (configUSE_COUNTING_SEMAPHORES == 1 )
 767:Middlewares/Third_Party/FreeRTOS/Source/CMSIS_RTOS/cmsis_os.c ****       return xSemaphoreCreateCountingStatic( count, count, semaphore_def->controlblock );
 768:Middlewares/Third_Party/FreeRTOS/Source/CMSIS_RTOS/cmsis_os.c **** #else
 769:Middlewares/Third_Party/FreeRTOS/Source/CMSIS_RTOS/cmsis_os.c ****       return NULL;
 1247              		.loc 1 769 14 view .LVU279
 1248 000c 0024     		movs	r4, #0
 1249              	.LVL86:
 1250              	.L83:
 770:Middlewares/Third_Party/FreeRTOS/Source/CMSIS_RTOS/cmsis_os.c **** #endif
 771:Middlewares/Third_Party/FreeRTOS/Source/CMSIS_RTOS/cmsis_os.c ****     }
 772:Middlewares/Third_Party/FreeRTOS/Source/CMSIS_RTOS/cmsis_os.c ****   }
 773:Middlewares/Third_Party/FreeRTOS/Source/CMSIS_RTOS/cmsis_os.c ****   else {
 774:Middlewares/Third_Party/FreeRTOS/Source/CMSIS_RTOS/cmsis_os.c ****     if (count == 1) {
 775:Middlewares/Third_Party/FreeRTOS/Source/CMSIS_RTOS/cmsis_os.c ****       vSemaphoreCreateBinary(sema);
 776:Middlewares/Third_Party/FreeRTOS/Source/CMSIS_RTOS/cmsis_os.c ****       return sema;
 777:Middlewares/Third_Party/FreeRTOS/Source/CMSIS_RTOS/cmsis_os.c ****     }
 778:Middlewares/Third_Party/FreeRTOS/Source/CMSIS_RTOS/cmsis_os.c ****     else {
 779:Middlewares/Third_Party/FreeRTOS/Source/CMSIS_RTOS/cmsis_os.c **** #if (configUSE_COUNTING_SEMAPHORES == 1 )	
 780:Middlewares/Third_Party/FreeRTOS/Source/CMSIS_RTOS/cmsis_os.c ****       return xSemaphoreCreateCounting(count, count);
 781:Middlewares/Third_Party/FreeRTOS/Source/CMSIS_RTOS/cmsis_os.c **** #else
 782:Middlewares/Third_Party/FreeRTOS/Source/CMSIS_RTOS/cmsis_os.c ****       return NULL;
 783:Middlewares/Third_Party/FreeRTOS/Source/CMSIS_RTOS/cmsis_os.c **** #endif    
 784:Middlewares/Third_Party/FreeRTOS/Source/CMSIS_RTOS/cmsis_os.c ****     }
 785:Middlewares/Third_Party/FreeRTOS/Source/CMSIS_RTOS/cmsis_os.c ****   }
 786:Middlewares/Third_Party/FreeRTOS/Source/CMSIS_RTOS/cmsis_os.c **** #elif ( configSUPPORT_STATIC_ALLOCATION == 1 ) // configSUPPORT_DYNAMIC_ALLOCATION == 0
 787:Middlewares/Third_Party/FreeRTOS/Source/CMSIS_RTOS/cmsis_os.c ****   if(count == 1) {
 788:Middlewares/Third_Party/FreeRTOS/Source/CMSIS_RTOS/cmsis_os.c ****     return xSemaphoreCreateBinaryStatic( semaphore_def->controlblock );
 789:Middlewares/Third_Party/FreeRTOS/Source/CMSIS_RTOS/cmsis_os.c ****   }
 790:Middlewares/Third_Party/FreeRTOS/Source/CMSIS_RTOS/cmsis_os.c ****   else
 791:Middlewares/Third_Party/FreeRTOS/Source/CMSIS_RTOS/cmsis_os.c ****   {
 792:Middlewares/Third_Party/FreeRTOS/Source/CMSIS_RTOS/cmsis_os.c **** #if (configUSE_COUNTING_SEMAPHORES == 1 )
 793:Middlewares/Third_Party/FreeRTOS/Source/CMSIS_RTOS/cmsis_os.c ****       return xSemaphoreCreateCountingStatic( count, count, semaphore_def->controlblock );
 794:Middlewares/Third_Party/FreeRTOS/Source/CMSIS_RTOS/cmsis_os.c **** #else
 795:Middlewares/Third_Party/FreeRTOS/Source/CMSIS_RTOS/cmsis_os.c ****       return NULL;
 796:Middlewares/Third_Party/FreeRTOS/Source/CMSIS_RTOS/cmsis_os.c **** #endif    
 797:Middlewares/Third_Party/FreeRTOS/Source/CMSIS_RTOS/cmsis_os.c ****   }
 798:Middlewares/Third_Party/FreeRTOS/Source/CMSIS_RTOS/cmsis_os.c **** #else  // configSUPPORT_STATIC_ALLOCATION == 0  && configSUPPORT_DYNAMIC_ALLOCATION == 1
 799:Middlewares/Third_Party/FreeRTOS/Source/CMSIS_RTOS/cmsis_os.c ****   osSemaphoreId sema;
 800:Middlewares/Third_Party/FreeRTOS/Source/CMSIS_RTOS/cmsis_os.c ****  
 801:Middlewares/Third_Party/FreeRTOS/Source/CMSIS_RTOS/cmsis_os.c ****   if (count == 1) {
 802:Middlewares/Third_Party/FreeRTOS/Source/CMSIS_RTOS/cmsis_os.c ****     vSemaphoreCreateBinary(sema);
 803:Middlewares/Third_Party/FreeRTOS/Source/CMSIS_RTOS/cmsis_os.c ****     return sema;
 804:Middlewares/Third_Party/FreeRTOS/Source/CMSIS_RTOS/cmsis_os.c ****   }
 805:Middlewares/Third_Party/FreeRTOS/Source/CMSIS_RTOS/cmsis_os.c ****   else {
 806:Middlewares/Third_Party/FreeRTOS/Source/CMSIS_RTOS/cmsis_os.c **** #if (configUSE_COUNTING_SEMAPHORES == 1 )	
 807:Middlewares/Third_Party/FreeRTOS/Source/CMSIS_RTOS/cmsis_os.c ****     return xSemaphoreCreateCounting(count, count);
 808:Middlewares/Third_Party/FreeRTOS/Source/CMSIS_RTOS/cmsis_os.c **** #else
 809:Middlewares/Third_Party/FreeRTOS/Source/CMSIS_RTOS/cmsis_os.c ****     return NULL;
 810:Middlewares/Third_Party/FreeRTOS/Source/CMSIS_RTOS/cmsis_os.c **** #endif
 811:Middlewares/Third_Party/FreeRTOS/Source/CMSIS_RTOS/cmsis_os.c ****   }
 812:Middlewares/Third_Party/FreeRTOS/Source/CMSIS_RTOS/cmsis_os.c **** #endif
 813:Middlewares/Third_Party/FreeRTOS/Source/CMSIS_RTOS/cmsis_os.c **** }
 1251              		.loc 1 813 1 view .LVU280
 1252 000e 2046     		mov	r0, r4
 1253 0010 02B0     		add	sp, sp, #8
 1254              	.LCFI32:
ARM GAS  C:\Users\xixi\AppData\Local\Temp\ccei1Zb6.s 			page 41


 1255              		.cfi_remember_state
 1256              		.cfi_def_cfa_offset 8
 1257              		@ sp needed
 1258 0012 10BD     		pop	{r4, pc}
 1259              	.LVL87:
 1260              	.L89:
 1261              	.LCFI33:
 1262              		.cfi_restore_state
 763:Middlewares/Third_Party/FreeRTOS/Source/CMSIS_RTOS/cmsis_os.c ****       return xSemaphoreCreateBinaryStatic( semaphore_def->controlblock );
 1263              		.loc 1 763 7 is_stmt 1 view .LVU281
 763:Middlewares/Third_Party/FreeRTOS/Source/CMSIS_RTOS/cmsis_os.c ****       return xSemaphoreCreateBinaryStatic( semaphore_def->controlblock );
 1264              		.loc 1 763 14 is_stmt 0 view .LVU282
 1265 0014 0323     		movs	r3, #3
 1266 0016 0093     		str	r3, [sp]
 1267 0018 2346     		mov	r3, r4
 1268 001a 0022     		movs	r2, #0
 1269 001c 1146     		mov	r1, r2
 1270              	.LVL88:
 763:Middlewares/Third_Party/FreeRTOS/Source/CMSIS_RTOS/cmsis_os.c ****       return xSemaphoreCreateBinaryStatic( semaphore_def->controlblock );
 1271              		.loc 1 763 14 view .LVU283
 1272 001e 0120     		movs	r0, #1
 1273              	.LVL89:
 763:Middlewares/Third_Party/FreeRTOS/Source/CMSIS_RTOS/cmsis_os.c ****       return xSemaphoreCreateBinaryStatic( semaphore_def->controlblock );
 1274              		.loc 1 763 14 view .LVU284
 1275 0020 FFF7FEFF 		bl	xQueueGenericCreateStatic
 1276              	.LVL90:
 1277 0024 0446     		mov	r4, r0
 1278 0026 F2E7     		b	.L83
 1279              	.LVL91:
 1280              	.L84:
 774:Middlewares/Third_Party/FreeRTOS/Source/CMSIS_RTOS/cmsis_os.c ****       vSemaphoreCreateBinary(sema);
 1281              		.loc 1 774 5 is_stmt 1 view .LVU285
 774:Middlewares/Third_Party/FreeRTOS/Source/CMSIS_RTOS/cmsis_os.c ****       vSemaphoreCreateBinary(sema);
 1282              		.loc 1 774 8 is_stmt 0 view .LVU286
 1283 0028 0129     		cmp	r1, #1
 1284 002a F0D1     		bne	.L83
 775:Middlewares/Third_Party/FreeRTOS/Source/CMSIS_RTOS/cmsis_os.c ****       return sema;
 1285              		.loc 1 775 7 is_stmt 1 view .LVU287
 1286 002c 0322     		movs	r2, #3
 1287 002e 0021     		movs	r1, #0
 1288              	.LVL92:
 775:Middlewares/Third_Party/FreeRTOS/Source/CMSIS_RTOS/cmsis_os.c ****       return sema;
 1289              		.loc 1 775 7 is_stmt 0 view .LVU288
 1290 0030 0120     		movs	r0, #1
 1291              	.LVL93:
 775:Middlewares/Third_Party/FreeRTOS/Source/CMSIS_RTOS/cmsis_os.c ****       return sema;
 1292              		.loc 1 775 7 view .LVU289
 1293 0032 FFF7FEFF 		bl	xQueueGenericCreate
 1294              	.LVL94:
 775:Middlewares/Third_Party/FreeRTOS/Source/CMSIS_RTOS/cmsis_os.c ****       return sema;
 1295              		.loc 1 775 7 is_stmt 1 view .LVU290
 1296 0036 0446     		mov	r4, r0
 1297 0038 0028     		cmp	r0, #0
 1298 003a E8D0     		beq	.L83
 775:Middlewares/Third_Party/FreeRTOS/Source/CMSIS_RTOS/cmsis_os.c ****       return sema;
 1299              		.loc 1 775 7 discriminator 1 view .LVU291
 1300 003c 0023     		movs	r3, #0
ARM GAS  C:\Users\xixi\AppData\Local\Temp\ccei1Zb6.s 			page 42


 1301 003e 1A46     		mov	r2, r3
 1302 0040 1946     		mov	r1, r3
 1303 0042 FFF7FEFF 		bl	xQueueGenericSend
 1304              	.LVL95:
 775:Middlewares/Third_Party/FreeRTOS/Source/CMSIS_RTOS/cmsis_os.c ****       return sema;
 1305              		.loc 1 775 35 discriminator 1 view .LVU292
 776:Middlewares/Third_Party/FreeRTOS/Source/CMSIS_RTOS/cmsis_os.c ****     }
 1306              		.loc 1 776 7 discriminator 1 view .LVU293
 776:Middlewares/Third_Party/FreeRTOS/Source/CMSIS_RTOS/cmsis_os.c ****     }
 1307              		.loc 1 776 14 is_stmt 0 discriminator 1 view .LVU294
 1308 0046 E2E7     		b	.L83
 1309              		.cfi_endproc
 1310              	.LFE130:
 1312              		.section	.text.osSemaphoreWait,"ax",%progbits
 1313              		.align	1
 1314              		.global	osSemaphoreWait
 1315              		.syntax unified
 1316              		.thumb
 1317              		.thumb_func
 1319              	osSemaphoreWait:
 1320              	.LVL96:
 1321              	.LFB131:
 814:Middlewares/Third_Party/FreeRTOS/Source/CMSIS_RTOS/cmsis_os.c **** 
 815:Middlewares/Third_Party/FreeRTOS/Source/CMSIS_RTOS/cmsis_os.c **** /**
 816:Middlewares/Third_Party/FreeRTOS/Source/CMSIS_RTOS/cmsis_os.c **** * @brief Wait until a Semaphore token becomes available
 817:Middlewares/Third_Party/FreeRTOS/Source/CMSIS_RTOS/cmsis_os.c **** * @param  semaphore_id  semaphore object referenced with \ref osSemaphore.
 818:Middlewares/Third_Party/FreeRTOS/Source/CMSIS_RTOS/cmsis_os.c **** * @param  millisec      timeout value or 0 in case of no time-out.
 819:Middlewares/Third_Party/FreeRTOS/Source/CMSIS_RTOS/cmsis_os.c **** * @retval  number of available tokens, or -1 in case of incorrect parameters.
 820:Middlewares/Third_Party/FreeRTOS/Source/CMSIS_RTOS/cmsis_os.c **** * @note   MUST REMAIN UNCHANGED: \b osSemaphoreWait shall be consistent in every CMSIS-RTOS.
 821:Middlewares/Third_Party/FreeRTOS/Source/CMSIS_RTOS/cmsis_os.c **** */
 822:Middlewares/Third_Party/FreeRTOS/Source/CMSIS_RTOS/cmsis_os.c **** int32_t osSemaphoreWait (osSemaphoreId semaphore_id, uint32_t millisec)
 823:Middlewares/Third_Party/FreeRTOS/Source/CMSIS_RTOS/cmsis_os.c **** {
 1322              		.loc 1 823 1 is_stmt 1 view -0
 1323              		.cfi_startproc
 1324              		@ args = 0, pretend = 0, frame = 8
 1325              		@ frame_needed = 0, uses_anonymous_args = 0
 1326              		.loc 1 823 1 is_stmt 0 view .LVU296
 1327 0000 70B5     		push	{r4, r5, r6, lr}
 1328              	.LCFI34:
 1329              		.cfi_def_cfa_offset 16
 1330              		.cfi_offset 4, -16
 1331              		.cfi_offset 5, -12
 1332              		.cfi_offset 6, -8
 1333              		.cfi_offset 14, -4
 1334 0002 82B0     		sub	sp, sp, #8
 1335              	.LCFI35:
 1336              		.cfi_def_cfa_offset 24
 824:Middlewares/Third_Party/FreeRTOS/Source/CMSIS_RTOS/cmsis_os.c ****   TickType_t ticks;
 1337              		.loc 1 824 3 is_stmt 1 view .LVU297
 825:Middlewares/Third_Party/FreeRTOS/Source/CMSIS_RTOS/cmsis_os.c ****   portBASE_TYPE taskWoken = pdFALSE;  
 1338              		.loc 1 825 3 view .LVU298
 1339              		.loc 1 825 17 is_stmt 0 view .LVU299
 1340 0004 0023     		movs	r3, #0
 1341 0006 0193     		str	r3, [sp, #4]
 826:Middlewares/Third_Party/FreeRTOS/Source/CMSIS_RTOS/cmsis_os.c ****   
 827:Middlewares/Third_Party/FreeRTOS/Source/CMSIS_RTOS/cmsis_os.c ****   
 828:Middlewares/Third_Party/FreeRTOS/Source/CMSIS_RTOS/cmsis_os.c ****   if (semaphore_id == NULL) {
ARM GAS  C:\Users\xixi\AppData\Local\Temp\ccei1Zb6.s 			page 43


 1342              		.loc 1 828 3 is_stmt 1 view .LVU300
 1343              		.loc 1 828 6 is_stmt 0 view .LVU301
 1344 0008 18B3     		cbz	r0, .L93
 1345 000a 0C46     		mov	r4, r1
 1346 000c 0646     		mov	r6, r0
 829:Middlewares/Third_Party/FreeRTOS/Source/CMSIS_RTOS/cmsis_os.c ****     return osErrorParameter;
 830:Middlewares/Third_Party/FreeRTOS/Source/CMSIS_RTOS/cmsis_os.c ****   }
 831:Middlewares/Third_Party/FreeRTOS/Source/CMSIS_RTOS/cmsis_os.c ****   
 832:Middlewares/Third_Party/FreeRTOS/Source/CMSIS_RTOS/cmsis_os.c ****   ticks = 0;
 1347              		.loc 1 832 3 is_stmt 1 view .LVU302
 1348              	.LVL97:
 833:Middlewares/Third_Party/FreeRTOS/Source/CMSIS_RTOS/cmsis_os.c ****   if (millisec == osWaitForever) {
 1349              		.loc 1 833 3 view .LVU303
 834:Middlewares/Third_Party/FreeRTOS/Source/CMSIS_RTOS/cmsis_os.c ****     ticks = portMAX_DELAY;
 835:Middlewares/Third_Party/FreeRTOS/Source/CMSIS_RTOS/cmsis_os.c ****   }
 836:Middlewares/Third_Party/FreeRTOS/Source/CMSIS_RTOS/cmsis_os.c ****   else if (millisec != 0) {
 837:Middlewares/Third_Party/FreeRTOS/Source/CMSIS_RTOS/cmsis_os.c ****     ticks = millisec / portTICK_PERIOD_MS;
 838:Middlewares/Third_Party/FreeRTOS/Source/CMSIS_RTOS/cmsis_os.c ****     if (ticks == 0) {
 839:Middlewares/Third_Party/FreeRTOS/Source/CMSIS_RTOS/cmsis_os.c ****       ticks = 1;
 840:Middlewares/Third_Party/FreeRTOS/Source/CMSIS_RTOS/cmsis_os.c ****     }
 841:Middlewares/Third_Party/FreeRTOS/Source/CMSIS_RTOS/cmsis_os.c ****   }
 842:Middlewares/Third_Party/FreeRTOS/Source/CMSIS_RTOS/cmsis_os.c ****   
 843:Middlewares/Third_Party/FreeRTOS/Source/CMSIS_RTOS/cmsis_os.c ****   if (inHandlerMode()) {
 1350              		.loc 1 843 3 view .LVU304
 1351              		.loc 1 843 7 is_stmt 0 view .LVU305
 1352 000e FFF7FEFF 		bl	inHandlerMode
 1353              	.LVL98:
 1354              		.loc 1 843 6 view .LVU306
 1355 0012 0546     		mov	r5, r0
 1356 0014 A0B1     		cbz	r0, .L92
 844:Middlewares/Third_Party/FreeRTOS/Source/CMSIS_RTOS/cmsis_os.c ****     if (xSemaphoreTakeFromISR(semaphore_id, &taskWoken) != pdTRUE) {
 1357              		.loc 1 844 5 is_stmt 1 view .LVU307
 1358              		.loc 1 844 9 is_stmt 0 view .LVU308
 1359 0016 01AA     		add	r2, sp, #4
 1360 0018 0021     		movs	r1, #0
 1361 001a 3046     		mov	r0, r6
 1362 001c FFF7FEFF 		bl	xQueueReceiveFromISR
 1363              	.LVL99:
 1364              		.loc 1 844 8 view .LVU309
 1365 0020 0128     		cmp	r0, #1
 1366 0022 18D1     		bne	.L94
 845:Middlewares/Third_Party/FreeRTOS/Source/CMSIS_RTOS/cmsis_os.c ****       return osErrorOS;
 846:Middlewares/Third_Party/FreeRTOS/Source/CMSIS_RTOS/cmsis_os.c ****     }
 847:Middlewares/Third_Party/FreeRTOS/Source/CMSIS_RTOS/cmsis_os.c **** 	portEND_SWITCHING_ISR(taskWoken);
 1367              		.loc 1 847 2 is_stmt 1 view .LVU310
 1368 0024 019D     		ldr	r5, [sp, #4]
 1369 0026 8DB1     		cbz	r5, .L90
 1370              		.loc 1 847 2 discriminator 1 view .LVU311
 1371 0028 4FF0E023 		mov	r3, #-536813568
 1372 002c 4FF08052 		mov	r2, #268435456
 1373 0030 C3F8042D 		str	r2, [r3, #3332]
 1374              		.loc 1 847 2 discriminator 1 view .LVU312
 1375              		.syntax unified
 1376              	@ 847 "Middlewares/Third_Party/FreeRTOS/Source/CMSIS_RTOS/cmsis_os.c" 1
 1377 0034 BFF34F8F 		dsb
 1378              	@ 0 "" 2
 1379              		.loc 1 847 2 discriminator 1 view .LVU313
ARM GAS  C:\Users\xixi\AppData\Local\Temp\ccei1Zb6.s 			page 44


 1380              	@ 847 "Middlewares/Third_Party/FreeRTOS/Source/CMSIS_RTOS/cmsis_os.c" 1
 1381 0038 BFF36F8F 		isb
 1382              	@ 0 "" 2
 848:Middlewares/Third_Party/FreeRTOS/Source/CMSIS_RTOS/cmsis_os.c ****   }  
 849:Middlewares/Third_Party/FreeRTOS/Source/CMSIS_RTOS/cmsis_os.c ****   else if (xSemaphoreTake(semaphore_id, ticks) != pdTRUE) {
 850:Middlewares/Third_Party/FreeRTOS/Source/CMSIS_RTOS/cmsis_os.c ****     return osErrorOS;
 851:Middlewares/Third_Party/FreeRTOS/Source/CMSIS_RTOS/cmsis_os.c ****   }
 852:Middlewares/Third_Party/FreeRTOS/Source/CMSIS_RTOS/cmsis_os.c ****   
 853:Middlewares/Third_Party/FreeRTOS/Source/CMSIS_RTOS/cmsis_os.c ****   return osOK;
 1383              		.loc 1 853 10 is_stmt 0 discriminator 1 view .LVU314
 1384              		.thumb
 1385              		.syntax unified
 1386 003c 0025     		movs	r5, #0
 1387 003e 05E0     		b	.L90
 1388              	.L92:
 849:Middlewares/Third_Party/FreeRTOS/Source/CMSIS_RTOS/cmsis_os.c ****     return osErrorOS;
 1389              		.loc 1 849 8 is_stmt 1 view .LVU315
 849:Middlewares/Third_Party/FreeRTOS/Source/CMSIS_RTOS/cmsis_os.c ****     return osErrorOS;
 1390              		.loc 1 849 12 is_stmt 0 view .LVU316
 1391 0040 2146     		mov	r1, r4
 1392 0042 3046     		mov	r0, r6
 1393 0044 FFF7FEFF 		bl	xQueueSemaphoreTake
 1394              	.LVL100:
 849:Middlewares/Third_Party/FreeRTOS/Source/CMSIS_RTOS/cmsis_os.c ****     return osErrorOS;
 1395              		.loc 1 849 11 view .LVU317
 1396 0048 0128     		cmp	r0, #1
 1397 004a 06D1     		bne	.L97
 1398              	.LVL101:
 1399              	.L90:
 854:Middlewares/Third_Party/FreeRTOS/Source/CMSIS_RTOS/cmsis_os.c **** }
 1400              		.loc 1 854 1 view .LVU318
 1401 004c 2846     		mov	r0, r5
 1402 004e 02B0     		add	sp, sp, #8
 1403              	.LCFI36:
 1404              		.cfi_remember_state
 1405              		.cfi_def_cfa_offset 16
 1406              		@ sp needed
 1407 0050 70BD     		pop	{r4, r5, r6, pc}
 1408              	.LVL102:
 1409              	.L93:
 1410              	.LCFI37:
 1411              		.cfi_restore_state
 829:Middlewares/Third_Party/FreeRTOS/Source/CMSIS_RTOS/cmsis_os.c ****   }
 1412              		.loc 1 829 12 view .LVU319
 1413 0052 8025     		movs	r5, #128
 1414 0054 FAE7     		b	.L90
 1415              	.LVL103:
 1416              	.L94:
 845:Middlewares/Third_Party/FreeRTOS/Source/CMSIS_RTOS/cmsis_os.c ****     }
 1417              		.loc 1 845 14 view .LVU320
 1418 0056 FF25     		movs	r5, #255
 1419 0058 F8E7     		b	.L90
 1420              	.L97:
 850:Middlewares/Third_Party/FreeRTOS/Source/CMSIS_RTOS/cmsis_os.c ****   }
 1421              		.loc 1 850 12 view .LVU321
 1422 005a FF25     		movs	r5, #255
 1423 005c F6E7     		b	.L90
ARM GAS  C:\Users\xixi\AppData\Local\Temp\ccei1Zb6.s 			page 45


 1424              		.cfi_endproc
 1425              	.LFE131:
 1427              		.section	.text.osSemaphoreRelease,"ax",%progbits
 1428              		.align	1
 1429              		.global	osSemaphoreRelease
 1430              		.syntax unified
 1431              		.thumb
 1432              		.thumb_func
 1434              	osSemaphoreRelease:
 1435              	.LVL104:
 1436              	.LFB132:
 855:Middlewares/Third_Party/FreeRTOS/Source/CMSIS_RTOS/cmsis_os.c **** 
 856:Middlewares/Third_Party/FreeRTOS/Source/CMSIS_RTOS/cmsis_os.c **** /**
 857:Middlewares/Third_Party/FreeRTOS/Source/CMSIS_RTOS/cmsis_os.c **** * @brief Release a Semaphore token
 858:Middlewares/Third_Party/FreeRTOS/Source/CMSIS_RTOS/cmsis_os.c **** * @param  semaphore_id  semaphore object referenced with \ref osSemaphore.
 859:Middlewares/Third_Party/FreeRTOS/Source/CMSIS_RTOS/cmsis_os.c **** * @retval  status code that indicates the execution status of the function.
 860:Middlewares/Third_Party/FreeRTOS/Source/CMSIS_RTOS/cmsis_os.c **** * @note   MUST REMAIN UNCHANGED: \b osSemaphoreRelease shall be consistent in every CMSIS-RTOS.
 861:Middlewares/Third_Party/FreeRTOS/Source/CMSIS_RTOS/cmsis_os.c **** */
 862:Middlewares/Third_Party/FreeRTOS/Source/CMSIS_RTOS/cmsis_os.c **** osStatus osSemaphoreRelease (osSemaphoreId semaphore_id)
 863:Middlewares/Third_Party/FreeRTOS/Source/CMSIS_RTOS/cmsis_os.c **** {
 1437              		.loc 1 863 1 is_stmt 1 view -0
 1438              		.cfi_startproc
 1439              		@ args = 0, pretend = 0, frame = 8
 1440              		@ frame_needed = 0, uses_anonymous_args = 0
 1441              		.loc 1 863 1 is_stmt 0 view .LVU323
 1442 0000 10B5     		push	{r4, lr}
 1443              	.LCFI38:
 1444              		.cfi_def_cfa_offset 8
 1445              		.cfi_offset 4, -8
 1446              		.cfi_offset 14, -4
 1447 0002 82B0     		sub	sp, sp, #8
 1448              	.LCFI39:
 1449              		.cfi_def_cfa_offset 16
 1450 0004 0446     		mov	r4, r0
 864:Middlewares/Third_Party/FreeRTOS/Source/CMSIS_RTOS/cmsis_os.c ****   osStatus result = osOK;
 1451              		.loc 1 864 3 is_stmt 1 view .LVU324
 1452              	.LVL105:
 865:Middlewares/Third_Party/FreeRTOS/Source/CMSIS_RTOS/cmsis_os.c ****   portBASE_TYPE taskWoken = pdFALSE;
 1453              		.loc 1 865 3 view .LVU325
 1454              		.loc 1 865 17 is_stmt 0 view .LVU326
 1455 0006 0023     		movs	r3, #0
 1456 0008 0193     		str	r3, [sp, #4]
 866:Middlewares/Third_Party/FreeRTOS/Source/CMSIS_RTOS/cmsis_os.c ****   
 867:Middlewares/Third_Party/FreeRTOS/Source/CMSIS_RTOS/cmsis_os.c ****   
 868:Middlewares/Third_Party/FreeRTOS/Source/CMSIS_RTOS/cmsis_os.c ****   if (inHandlerMode()) {
 1457              		.loc 1 868 3 is_stmt 1 view .LVU327
 1458              		.loc 1 868 7 is_stmt 0 view .LVU328
 1459 000a FFF7FEFF 		bl	inHandlerMode
 1460              	.LVL106:
 1461              		.loc 1 868 6 view .LVU329
 1462 000e 98B1     		cbz	r0, .L99
 869:Middlewares/Third_Party/FreeRTOS/Source/CMSIS_RTOS/cmsis_os.c ****     if (xSemaphoreGiveFromISR(semaphore_id, &taskWoken) != pdTRUE) {
 1463              		.loc 1 869 5 is_stmt 1 view .LVU330
 1464              		.loc 1 869 9 is_stmt 0 view .LVU331
 1465 0010 01A9     		add	r1, sp, #4
 1466 0012 2046     		mov	r0, r4
 1467 0014 FFF7FEFF 		bl	xQueueGiveFromISR
ARM GAS  C:\Users\xixi\AppData\Local\Temp\ccei1Zb6.s 			page 46


 1468              	.LVL107:
 1469              		.loc 1 869 8 view .LVU332
 1470 0018 0128     		cmp	r0, #1
 1471 001a 1AD1     		bne	.L101
 870:Middlewares/Third_Party/FreeRTOS/Source/CMSIS_RTOS/cmsis_os.c ****       return osErrorOS;
 871:Middlewares/Third_Party/FreeRTOS/Source/CMSIS_RTOS/cmsis_os.c ****     }
 872:Middlewares/Third_Party/FreeRTOS/Source/CMSIS_RTOS/cmsis_os.c ****     portEND_SWITCHING_ISR(taskWoken);
 1472              		.loc 1 872 5 is_stmt 1 view .LVU333
 1473 001c 019B     		ldr	r3, [sp, #4]
 1474 001e D3B1     		cbz	r3, .L102
 1475              		.loc 1 872 5 discriminator 1 view .LVU334
 1476 0020 4FF0E023 		mov	r3, #-536813568
 1477 0024 4FF08052 		mov	r2, #268435456
 1478 0028 C3F8042D 		str	r2, [r3, #3332]
 1479              		.loc 1 872 5 discriminator 1 view .LVU335
 1480              		.syntax unified
 1481              	@ 872 "Middlewares/Third_Party/FreeRTOS/Source/CMSIS_RTOS/cmsis_os.c" 1
 1482 002c BFF34F8F 		dsb
 1483              	@ 0 "" 2
 1484              		.loc 1 872 5 discriminator 1 view .LVU336
 1485              	@ 872 "Middlewares/Third_Party/FreeRTOS/Source/CMSIS_RTOS/cmsis_os.c" 1
 1486 0030 BFF36F8F 		isb
 1487              	@ 0 "" 2
 864:Middlewares/Third_Party/FreeRTOS/Source/CMSIS_RTOS/cmsis_os.c ****   portBASE_TYPE taskWoken = pdFALSE;
 1488              		.loc 1 864 12 is_stmt 0 discriminator 1 view .LVU337
 1489              		.thumb
 1490              		.syntax unified
 1491 0034 0020     		movs	r0, #0
 1492 0036 08E0     		b	.L98
 1493              	.L99:
 873:Middlewares/Third_Party/FreeRTOS/Source/CMSIS_RTOS/cmsis_os.c ****   }
 874:Middlewares/Third_Party/FreeRTOS/Source/CMSIS_RTOS/cmsis_os.c ****   else {
 875:Middlewares/Third_Party/FreeRTOS/Source/CMSIS_RTOS/cmsis_os.c ****     if (xSemaphoreGive(semaphore_id) != pdTRUE) {
 1494              		.loc 1 875 5 is_stmt 1 view .LVU338
 1495              		.loc 1 875 9 is_stmt 0 view .LVU339
 1496 0038 0023     		movs	r3, #0
 1497 003a 1A46     		mov	r2, r3
 1498 003c 1946     		mov	r1, r3
 1499 003e 2046     		mov	r0, r4
 1500 0040 FFF7FEFF 		bl	xQueueGenericSend
 1501              	.LVL108:
 1502              		.loc 1 875 8 view .LVU340
 1503 0044 0128     		cmp	r0, #1
 1504 0046 02D0     		beq	.L105
 876:Middlewares/Third_Party/FreeRTOS/Source/CMSIS_RTOS/cmsis_os.c ****       result = osErrorOS;
 1505              		.loc 1 876 14 view .LVU341
 1506 0048 FF20     		movs	r0, #255
 1507              	.LVL109:
 1508              	.L98:
 877:Middlewares/Third_Party/FreeRTOS/Source/CMSIS_RTOS/cmsis_os.c ****     }
 878:Middlewares/Third_Party/FreeRTOS/Source/CMSIS_RTOS/cmsis_os.c ****   }
 879:Middlewares/Third_Party/FreeRTOS/Source/CMSIS_RTOS/cmsis_os.c ****   
 880:Middlewares/Third_Party/FreeRTOS/Source/CMSIS_RTOS/cmsis_os.c ****   return result;
 881:Middlewares/Third_Party/FreeRTOS/Source/CMSIS_RTOS/cmsis_os.c **** }
 1509              		.loc 1 881 1 view .LVU342
 1510 004a 02B0     		add	sp, sp, #8
 1511              	.LCFI40:
ARM GAS  C:\Users\xixi\AppData\Local\Temp\ccei1Zb6.s 			page 47


 1512              		.cfi_remember_state
 1513              		.cfi_def_cfa_offset 8
 1514              		@ sp needed
 1515 004c 10BD     		pop	{r4, pc}
 1516              	.LVL110:
 1517              	.L105:
 1518              	.LCFI41:
 1519              		.cfi_restore_state
 864:Middlewares/Third_Party/FreeRTOS/Source/CMSIS_RTOS/cmsis_os.c ****   portBASE_TYPE taskWoken = pdFALSE;
 1520              		.loc 1 864 12 view .LVU343
 1521 004e 0020     		movs	r0, #0
 1522 0050 FBE7     		b	.L98
 1523              	.L101:
 870:Middlewares/Third_Party/FreeRTOS/Source/CMSIS_RTOS/cmsis_os.c ****     }
 1524              		.loc 1 870 14 view .LVU344
 1525 0052 FF20     		movs	r0, #255
 1526 0054 F9E7     		b	.L98
 1527              	.L102:
 864:Middlewares/Third_Party/FreeRTOS/Source/CMSIS_RTOS/cmsis_os.c ****   portBASE_TYPE taskWoken = pdFALSE;
 1528              		.loc 1 864 12 view .LVU345
 1529 0056 0020     		movs	r0, #0
 1530 0058 F7E7     		b	.L98
 1531              		.cfi_endproc
 1532              	.LFE132:
 1534              		.section	.text.osSemaphoreDelete,"ax",%progbits
 1535              		.align	1
 1536              		.global	osSemaphoreDelete
 1537              		.syntax unified
 1538              		.thumb
 1539              		.thumb_func
 1541              	osSemaphoreDelete:
 1542              	.LVL111:
 1543              	.LFB133:
 882:Middlewares/Third_Party/FreeRTOS/Source/CMSIS_RTOS/cmsis_os.c **** 
 883:Middlewares/Third_Party/FreeRTOS/Source/CMSIS_RTOS/cmsis_os.c **** /**
 884:Middlewares/Third_Party/FreeRTOS/Source/CMSIS_RTOS/cmsis_os.c **** * @brief Delete a Semaphore
 885:Middlewares/Third_Party/FreeRTOS/Source/CMSIS_RTOS/cmsis_os.c **** * @param  semaphore_id  semaphore object referenced with \ref osSemaphore.
 886:Middlewares/Third_Party/FreeRTOS/Source/CMSIS_RTOS/cmsis_os.c **** * @retval  status code that indicates the execution status of the function.
 887:Middlewares/Third_Party/FreeRTOS/Source/CMSIS_RTOS/cmsis_os.c **** * @note   MUST REMAIN UNCHANGED: \b osSemaphoreDelete shall be consistent in every CMSIS-RTOS.
 888:Middlewares/Third_Party/FreeRTOS/Source/CMSIS_RTOS/cmsis_os.c **** */
 889:Middlewares/Third_Party/FreeRTOS/Source/CMSIS_RTOS/cmsis_os.c **** osStatus osSemaphoreDelete (osSemaphoreId semaphore_id)
 890:Middlewares/Third_Party/FreeRTOS/Source/CMSIS_RTOS/cmsis_os.c **** {
 1544              		.loc 1 890 1 is_stmt 1 view -0
 1545              		.cfi_startproc
 1546              		@ args = 0, pretend = 0, frame = 0
 1547              		@ frame_needed = 0, uses_anonymous_args = 0
 1548              		.loc 1 890 1 is_stmt 0 view .LVU347
 1549 0000 10B5     		push	{r4, lr}
 1550              	.LCFI42:
 1551              		.cfi_def_cfa_offset 8
 1552              		.cfi_offset 4, -8
 1553              		.cfi_offset 14, -4
 1554 0002 0446     		mov	r4, r0
 891:Middlewares/Third_Party/FreeRTOS/Source/CMSIS_RTOS/cmsis_os.c ****   if (inHandlerMode()) {
 1555              		.loc 1 891 3 is_stmt 1 view .LVU348
 1556              		.loc 1 891 7 is_stmt 0 view .LVU349
 1557 0004 FFF7FEFF 		bl	inHandlerMode
ARM GAS  C:\Users\xixi\AppData\Local\Temp\ccei1Zb6.s 			page 48


 1558              	.LVL112:
 1559              		.loc 1 891 6 view .LVU350
 1560 0008 20B9     		cbnz	r0, .L108
 892:Middlewares/Third_Party/FreeRTOS/Source/CMSIS_RTOS/cmsis_os.c ****     return osErrorISR;
 893:Middlewares/Third_Party/FreeRTOS/Source/CMSIS_RTOS/cmsis_os.c ****   }
 894:Middlewares/Third_Party/FreeRTOS/Source/CMSIS_RTOS/cmsis_os.c **** 
 895:Middlewares/Third_Party/FreeRTOS/Source/CMSIS_RTOS/cmsis_os.c ****   vSemaphoreDelete(semaphore_id);
 1561              		.loc 1 895 3 is_stmt 1 view .LVU351
 1562 000a 2046     		mov	r0, r4
 1563 000c FFF7FEFF 		bl	vQueueDelete
 1564              	.LVL113:
 896:Middlewares/Third_Party/FreeRTOS/Source/CMSIS_RTOS/cmsis_os.c **** 
 897:Middlewares/Third_Party/FreeRTOS/Source/CMSIS_RTOS/cmsis_os.c ****   return osOK; 
 1565              		.loc 1 897 3 view .LVU352
 1566              		.loc 1 897 10 is_stmt 0 view .LVU353
 1567 0010 0020     		movs	r0, #0
 1568              	.L106:
 898:Middlewares/Third_Party/FreeRTOS/Source/CMSIS_RTOS/cmsis_os.c **** }
 1569              		.loc 1 898 1 view .LVU354
 1570 0012 10BD     		pop	{r4, pc}
 1571              	.LVL114:
 1572              	.L108:
 892:Middlewares/Third_Party/FreeRTOS/Source/CMSIS_RTOS/cmsis_os.c ****     return osErrorISR;
 1573              		.loc 1 892 12 view .LVU355
 1574 0014 8220     		movs	r0, #130
 1575 0016 FCE7     		b	.L106
 1576              		.cfi_endproc
 1577              	.LFE133:
 1579              		.section	.text.osPoolCreate,"ax",%progbits
 1580              		.align	1
 1581              		.global	osPoolCreate
 1582              		.syntax unified
 1583              		.thumb
 1584              		.thumb_func
 1586              	osPoolCreate:
 1587              	.LVL115:
 1588              	.LFB134:
 899:Middlewares/Third_Party/FreeRTOS/Source/CMSIS_RTOS/cmsis_os.c **** 
 900:Middlewares/Third_Party/FreeRTOS/Source/CMSIS_RTOS/cmsis_os.c **** #endif    /* Use Semaphores */
 901:Middlewares/Third_Party/FreeRTOS/Source/CMSIS_RTOS/cmsis_os.c **** 
 902:Middlewares/Third_Party/FreeRTOS/Source/CMSIS_RTOS/cmsis_os.c **** /*******************   Memory Pool Management Functions  ***********************/
 903:Middlewares/Third_Party/FreeRTOS/Source/CMSIS_RTOS/cmsis_os.c **** 
 904:Middlewares/Third_Party/FreeRTOS/Source/CMSIS_RTOS/cmsis_os.c **** #if (defined (osFeature_Pool)  &&  (osFeature_Pool != 0)) 
 905:Middlewares/Third_Party/FreeRTOS/Source/CMSIS_RTOS/cmsis_os.c **** 
 906:Middlewares/Third_Party/FreeRTOS/Source/CMSIS_RTOS/cmsis_os.c **** //TODO
 907:Middlewares/Third_Party/FreeRTOS/Source/CMSIS_RTOS/cmsis_os.c **** //This is a primitive and inefficient wrapper around the existing FreeRTOS memory management.
 908:Middlewares/Third_Party/FreeRTOS/Source/CMSIS_RTOS/cmsis_os.c **** //A better implementation will have to modify heap_x.c!
 909:Middlewares/Third_Party/FreeRTOS/Source/CMSIS_RTOS/cmsis_os.c **** 
 910:Middlewares/Third_Party/FreeRTOS/Source/CMSIS_RTOS/cmsis_os.c **** 
 911:Middlewares/Third_Party/FreeRTOS/Source/CMSIS_RTOS/cmsis_os.c **** typedef struct os_pool_cb {
 912:Middlewares/Third_Party/FreeRTOS/Source/CMSIS_RTOS/cmsis_os.c ****   void *pool;
 913:Middlewares/Third_Party/FreeRTOS/Source/CMSIS_RTOS/cmsis_os.c ****   uint8_t *markers;
 914:Middlewares/Third_Party/FreeRTOS/Source/CMSIS_RTOS/cmsis_os.c ****   uint32_t pool_sz;
 915:Middlewares/Third_Party/FreeRTOS/Source/CMSIS_RTOS/cmsis_os.c ****   uint32_t item_sz;
 916:Middlewares/Third_Party/FreeRTOS/Source/CMSIS_RTOS/cmsis_os.c ****   uint32_t currentIndex;
 917:Middlewares/Third_Party/FreeRTOS/Source/CMSIS_RTOS/cmsis_os.c **** } os_pool_cb_t;
 918:Middlewares/Third_Party/FreeRTOS/Source/CMSIS_RTOS/cmsis_os.c **** 
ARM GAS  C:\Users\xixi\AppData\Local\Temp\ccei1Zb6.s 			page 49


 919:Middlewares/Third_Party/FreeRTOS/Source/CMSIS_RTOS/cmsis_os.c **** 
 920:Middlewares/Third_Party/FreeRTOS/Source/CMSIS_RTOS/cmsis_os.c **** /**
 921:Middlewares/Third_Party/FreeRTOS/Source/CMSIS_RTOS/cmsis_os.c **** * @brief Create and Initialize a memory pool
 922:Middlewares/Third_Party/FreeRTOS/Source/CMSIS_RTOS/cmsis_os.c **** * @param  pool_def      memory pool definition referenced with \ref osPool.
 923:Middlewares/Third_Party/FreeRTOS/Source/CMSIS_RTOS/cmsis_os.c **** * @retval  memory pool ID for reference by other functions or NULL in case of error.
 924:Middlewares/Third_Party/FreeRTOS/Source/CMSIS_RTOS/cmsis_os.c **** * @note   MUST REMAIN UNCHANGED: \b osPoolCreate shall be consistent in every CMSIS-RTOS.
 925:Middlewares/Third_Party/FreeRTOS/Source/CMSIS_RTOS/cmsis_os.c **** */
 926:Middlewares/Third_Party/FreeRTOS/Source/CMSIS_RTOS/cmsis_os.c **** osPoolId osPoolCreate (const osPoolDef_t *pool_def)
 927:Middlewares/Third_Party/FreeRTOS/Source/CMSIS_RTOS/cmsis_os.c **** {
 1589              		.loc 1 927 1 is_stmt 1 view -0
 1590              		.cfi_startproc
 1591              		@ args = 0, pretend = 0, frame = 0
 1592              		@ frame_needed = 0, uses_anonymous_args = 0
 1593              		.loc 1 927 1 is_stmt 0 view .LVU357
 1594 0000 F8B5     		push	{r3, r4, r5, r6, r7, lr}
 1595              	.LCFI43:
 1596              		.cfi_def_cfa_offset 24
 1597              		.cfi_offset 3, -24
 1598              		.cfi_offset 4, -20
 1599              		.cfi_offset 5, -16
 1600              		.cfi_offset 6, -12
 1601              		.cfi_offset 7, -8
 1602              		.cfi_offset 14, -4
 1603 0002 0446     		mov	r4, r0
 928:Middlewares/Third_Party/FreeRTOS/Source/CMSIS_RTOS/cmsis_os.c **** #if (configSUPPORT_DYNAMIC_ALLOCATION == 1)
 929:Middlewares/Third_Party/FreeRTOS/Source/CMSIS_RTOS/cmsis_os.c ****   osPoolId thePool;
 1604              		.loc 1 929 3 is_stmt 1 view .LVU358
 930:Middlewares/Third_Party/FreeRTOS/Source/CMSIS_RTOS/cmsis_os.c ****   int itemSize = 4 * ((pool_def->item_sz + 3) / 4);
 1605              		.loc 1 930 3 view .LVU359
 1606              		.loc 1 930 32 is_stmt 0 view .LVU360
 1607 0004 4368     		ldr	r3, [r0, #4]
 1608              		.loc 1 930 42 view .LVU361
 1609 0006 0333     		adds	r3, r3, #3
 1610              		.loc 1 930 7 view .LVU362
 1611 0008 23F00306 		bic	r6, r3, #3
 1612              	.LVL116:
 931:Middlewares/Third_Party/FreeRTOS/Source/CMSIS_RTOS/cmsis_os.c ****   uint32_t i;
 1613              		.loc 1 931 3 is_stmt 1 view .LVU363
 932:Middlewares/Third_Party/FreeRTOS/Source/CMSIS_RTOS/cmsis_os.c ****   
 933:Middlewares/Third_Party/FreeRTOS/Source/CMSIS_RTOS/cmsis_os.c ****   /* First have to allocate memory for the pool control block. */
 934:Middlewares/Third_Party/FreeRTOS/Source/CMSIS_RTOS/cmsis_os.c ****  thePool = pvPortMalloc(sizeof(os_pool_cb_t));
 1614              		.loc 1 934 2 view .LVU364
 1615              		.loc 1 934 12 is_stmt 0 view .LVU365
 1616 000c 1420     		movs	r0, #20
 1617              	.LVL117:
 1618              		.loc 1 934 12 view .LVU366
 1619 000e FFF7FEFF 		bl	pvPortMalloc
 1620              	.LVL118:
 935:Middlewares/Third_Party/FreeRTOS/Source/CMSIS_RTOS/cmsis_os.c **** 
 936:Middlewares/Third_Party/FreeRTOS/Source/CMSIS_RTOS/cmsis_os.c ****   
 937:Middlewares/Third_Party/FreeRTOS/Source/CMSIS_RTOS/cmsis_os.c ****   if (thePool) {
 1621              		.loc 1 937 3 is_stmt 1 view .LVU367
 1622              		.loc 1 937 6 is_stmt 0 view .LVU368
 1623 0012 0546     		mov	r5, r0
 1624 0014 D8B1     		cbz	r0, .L110
 938:Middlewares/Third_Party/FreeRTOS/Source/CMSIS_RTOS/cmsis_os.c ****     thePool->pool_sz = pool_def->pool_sz;
 1625              		.loc 1 938 5 is_stmt 1 view .LVU369
ARM GAS  C:\Users\xixi\AppData\Local\Temp\ccei1Zb6.s 			page 50


 1626              		.loc 1 938 32 is_stmt 0 view .LVU370
 1627 0016 2368     		ldr	r3, [r4]
 1628              		.loc 1 938 22 view .LVU371
 1629 0018 8360     		str	r3, [r0, #8]
 939:Middlewares/Third_Party/FreeRTOS/Source/CMSIS_RTOS/cmsis_os.c ****     thePool->item_sz = itemSize;
 1630              		.loc 1 939 5 is_stmt 1 view .LVU372
 1631              		.loc 1 939 22 is_stmt 0 view .LVU373
 1632 001a C660     		str	r6, [r0, #12]
 940:Middlewares/Third_Party/FreeRTOS/Source/CMSIS_RTOS/cmsis_os.c ****     thePool->currentIndex = 0;
 1633              		.loc 1 940 5 is_stmt 1 view .LVU374
 1634              		.loc 1 940 27 is_stmt 0 view .LVU375
 1635 001c 0023     		movs	r3, #0
 1636 001e 0361     		str	r3, [r0, #16]
 941:Middlewares/Third_Party/FreeRTOS/Source/CMSIS_RTOS/cmsis_os.c ****     
 942:Middlewares/Third_Party/FreeRTOS/Source/CMSIS_RTOS/cmsis_os.c ****     /* Memory for markers */
 943:Middlewares/Third_Party/FreeRTOS/Source/CMSIS_RTOS/cmsis_os.c ****     thePool->markers = pvPortMalloc(pool_def->pool_sz);
 1637              		.loc 1 943 5 is_stmt 1 view .LVU376
 1638              		.loc 1 943 24 is_stmt 0 view .LVU377
 1639 0020 2068     		ldr	r0, [r4]
 1640              	.LVL119:
 1641              		.loc 1 943 24 view .LVU378
 1642 0022 FFF7FEFF 		bl	pvPortMalloc
 1643              	.LVL120:
 1644 0026 0746     		mov	r7, r0
 1645              		.loc 1 943 22 view .LVU379
 1646 0028 6860     		str	r0, [r5, #4]
 944:Middlewares/Third_Party/FreeRTOS/Source/CMSIS_RTOS/cmsis_os.c ****    
 945:Middlewares/Third_Party/FreeRTOS/Source/CMSIS_RTOS/cmsis_os.c ****     if (thePool->markers) {
 1647              		.loc 1 945 5 is_stmt 1 view .LVU380
 1648              		.loc 1 945 8 is_stmt 0 view .LVU381
 1649 002a D0B1     		cbz	r0, .L112
 946:Middlewares/Third_Party/FreeRTOS/Source/CMSIS_RTOS/cmsis_os.c ****       /* Now allocate the pool itself. */
 947:Middlewares/Third_Party/FreeRTOS/Source/CMSIS_RTOS/cmsis_os.c ****      thePool->pool = pvPortMalloc(pool_def->pool_sz * itemSize);
 1650              		.loc 1 947 6 is_stmt 1 view .LVU382
 1651              		.loc 1 947 43 is_stmt 0 view .LVU383
 1652 002c 2068     		ldr	r0, [r4]
 1653              		.loc 1 947 22 view .LVU384
 1654 002e 06FB00F0 		mul	r0, r6, r0
 1655 0032 FFF7FEFF 		bl	pvPortMalloc
 1656              	.LVL121:
 1657 0036 0646     		mov	r6, r0
 1658              	.LVL122:
 1659              		.loc 1 947 20 view .LVU385
 1660 0038 2860     		str	r0, [r5]
 948:Middlewares/Third_Party/FreeRTOS/Source/CMSIS_RTOS/cmsis_os.c ****       
 949:Middlewares/Third_Party/FreeRTOS/Source/CMSIS_RTOS/cmsis_os.c ****       if (thePool->pool) {
 1661              		.loc 1 949 7 is_stmt 1 view .LVU386
 1662              		.loc 1 949 10 is_stmt 0 view .LVU387
 1663 003a 50B1     		cbz	r0, .L119
 950:Middlewares/Third_Party/FreeRTOS/Source/CMSIS_RTOS/cmsis_os.c ****         for (i = 0; i < pool_def->pool_sz; i++) {
 1664              		.loc 1 950 16 view .LVU388
 1665 003c 0023     		movs	r3, #0
 1666 003e 03E0     		b	.L113
 1667              	.LVL123:
 1668              	.L115:
 951:Middlewares/Third_Party/FreeRTOS/Source/CMSIS_RTOS/cmsis_os.c ****           thePool->markers[i] = 0;
 1669              		.loc 1 951 11 is_stmt 1 discriminator 3 view .LVU389
ARM GAS  C:\Users\xixi\AppData\Local\Temp\ccei1Zb6.s 			page 51


 1670              		.loc 1 951 18 is_stmt 0 discriminator 3 view .LVU390
 1671 0040 6A68     		ldr	r2, [r5, #4]
 1672              		.loc 1 951 31 discriminator 3 view .LVU391
 1673 0042 0021     		movs	r1, #0
 1674 0044 D154     		strb	r1, [r2, r3]
 950:Middlewares/Third_Party/FreeRTOS/Source/CMSIS_RTOS/cmsis_os.c ****         for (i = 0; i < pool_def->pool_sz; i++) {
 1675              		.loc 1 950 44 is_stmt 1 discriminator 3 view .LVU392
 950:Middlewares/Third_Party/FreeRTOS/Source/CMSIS_RTOS/cmsis_os.c ****         for (i = 0; i < pool_def->pool_sz; i++) {
 1676              		.loc 1 950 45 is_stmt 0 discriminator 3 view .LVU393
 1677 0046 0133     		adds	r3, r3, #1
 1678              	.LVL124:
 1679              	.L113:
 950:Middlewares/Third_Party/FreeRTOS/Source/CMSIS_RTOS/cmsis_os.c ****         for (i = 0; i < pool_def->pool_sz; i++) {
 1680              		.loc 1 950 21 is_stmt 1 discriminator 1 view .LVU394
 950:Middlewares/Third_Party/FreeRTOS/Source/CMSIS_RTOS/cmsis_os.c ****         for (i = 0; i < pool_def->pool_sz; i++) {
 1681              		.loc 1 950 33 is_stmt 0 discriminator 1 view .LVU395
 1682 0048 2268     		ldr	r2, [r4]
 950:Middlewares/Third_Party/FreeRTOS/Source/CMSIS_RTOS/cmsis_os.c ****         for (i = 0; i < pool_def->pool_sz; i++) {
 1683              		.loc 1 950 9 discriminator 1 view .LVU396
 1684 004a 9A42     		cmp	r2, r3
 1685 004c F8D8     		bhi	.L115
 1686              	.LVL125:
 1687              	.L110:
 952:Middlewares/Third_Party/FreeRTOS/Source/CMSIS_RTOS/cmsis_os.c ****         }
 953:Middlewares/Third_Party/FreeRTOS/Source/CMSIS_RTOS/cmsis_os.c ****       }
 954:Middlewares/Third_Party/FreeRTOS/Source/CMSIS_RTOS/cmsis_os.c ****       else {
 955:Middlewares/Third_Party/FreeRTOS/Source/CMSIS_RTOS/cmsis_os.c ****         vPortFree(thePool->markers);
 956:Middlewares/Third_Party/FreeRTOS/Source/CMSIS_RTOS/cmsis_os.c ****         vPortFree(thePool);
 957:Middlewares/Third_Party/FreeRTOS/Source/CMSIS_RTOS/cmsis_os.c ****         thePool = NULL;
 958:Middlewares/Third_Party/FreeRTOS/Source/CMSIS_RTOS/cmsis_os.c ****       }
 959:Middlewares/Third_Party/FreeRTOS/Source/CMSIS_RTOS/cmsis_os.c ****     }
 960:Middlewares/Third_Party/FreeRTOS/Source/CMSIS_RTOS/cmsis_os.c ****     else {
 961:Middlewares/Third_Party/FreeRTOS/Source/CMSIS_RTOS/cmsis_os.c ****       vPortFree(thePool);
 962:Middlewares/Third_Party/FreeRTOS/Source/CMSIS_RTOS/cmsis_os.c ****       thePool = NULL;
 963:Middlewares/Third_Party/FreeRTOS/Source/CMSIS_RTOS/cmsis_os.c ****     }
 964:Middlewares/Third_Party/FreeRTOS/Source/CMSIS_RTOS/cmsis_os.c ****   }
 965:Middlewares/Third_Party/FreeRTOS/Source/CMSIS_RTOS/cmsis_os.c **** 
 966:Middlewares/Third_Party/FreeRTOS/Source/CMSIS_RTOS/cmsis_os.c ****   return thePool;
 967:Middlewares/Third_Party/FreeRTOS/Source/CMSIS_RTOS/cmsis_os.c ****  
 968:Middlewares/Third_Party/FreeRTOS/Source/CMSIS_RTOS/cmsis_os.c **** #else
 969:Middlewares/Third_Party/FreeRTOS/Source/CMSIS_RTOS/cmsis_os.c ****   return NULL;
 970:Middlewares/Third_Party/FreeRTOS/Source/CMSIS_RTOS/cmsis_os.c **** #endif
 971:Middlewares/Third_Party/FreeRTOS/Source/CMSIS_RTOS/cmsis_os.c **** }
 1688              		.loc 1 971 1 view .LVU397
 1689 004e 2846     		mov	r0, r5
 1690 0050 F8BD     		pop	{r3, r4, r5, r6, r7, pc}
 1691              	.LVL126:
 1692              	.L119:
 955:Middlewares/Third_Party/FreeRTOS/Source/CMSIS_RTOS/cmsis_os.c ****         vPortFree(thePool);
 1693              		.loc 1 955 9 is_stmt 1 view .LVU398
 1694 0052 6868     		ldr	r0, [r5, #4]
 1695 0054 FFF7FEFF 		bl	vPortFree
 1696              	.LVL127:
 956:Middlewares/Third_Party/FreeRTOS/Source/CMSIS_RTOS/cmsis_os.c ****         thePool = NULL;
 1697              		.loc 1 956 9 view .LVU399
 1698 0058 2846     		mov	r0, r5
 1699 005a FFF7FEFF 		bl	vPortFree
ARM GAS  C:\Users\xixi\AppData\Local\Temp\ccei1Zb6.s 			page 52


 1700              	.LVL128:
 957:Middlewares/Third_Party/FreeRTOS/Source/CMSIS_RTOS/cmsis_os.c ****       }
 1701              		.loc 1 957 9 view .LVU400
 957:Middlewares/Third_Party/FreeRTOS/Source/CMSIS_RTOS/cmsis_os.c ****       }
 1702              		.loc 1 957 17 is_stmt 0 view .LVU401
 1703 005e 3546     		mov	r5, r6
 1704 0060 F5E7     		b	.L110
 1705              	.LVL129:
 1706              	.L112:
 961:Middlewares/Third_Party/FreeRTOS/Source/CMSIS_RTOS/cmsis_os.c ****       thePool = NULL;
 1707              		.loc 1 961 7 is_stmt 1 view .LVU402
 1708 0062 2846     		mov	r0, r5
 1709 0064 FFF7FEFF 		bl	vPortFree
 1710              	.LVL130:
 962:Middlewares/Third_Party/FreeRTOS/Source/CMSIS_RTOS/cmsis_os.c ****     }
 1711              		.loc 1 962 7 view .LVU403
 962:Middlewares/Third_Party/FreeRTOS/Source/CMSIS_RTOS/cmsis_os.c ****     }
 1712              		.loc 1 962 15 is_stmt 0 view .LVU404
 1713 0068 3D46     		mov	r5, r7
 1714              	.LVL131:
 966:Middlewares/Third_Party/FreeRTOS/Source/CMSIS_RTOS/cmsis_os.c ****  
 1715              		.loc 1 966 3 is_stmt 1 view .LVU405
 966:Middlewares/Third_Party/FreeRTOS/Source/CMSIS_RTOS/cmsis_os.c ****  
 1716              		.loc 1 966 10 is_stmt 0 view .LVU406
 1717 006a F0E7     		b	.L110
 1718              		.cfi_endproc
 1719              	.LFE134:
 1721              		.section	.text.osPoolAlloc,"ax",%progbits
 1722              		.align	1
 1723              		.global	osPoolAlloc
 1724              		.syntax unified
 1725              		.thumb
 1726              		.thumb_func
 1728              	osPoolAlloc:
 1729              	.LVL132:
 1730              	.LFB135:
 972:Middlewares/Third_Party/FreeRTOS/Source/CMSIS_RTOS/cmsis_os.c **** 
 973:Middlewares/Third_Party/FreeRTOS/Source/CMSIS_RTOS/cmsis_os.c **** /**
 974:Middlewares/Third_Party/FreeRTOS/Source/CMSIS_RTOS/cmsis_os.c **** * @brief Allocate a memory block from a memory pool
 975:Middlewares/Third_Party/FreeRTOS/Source/CMSIS_RTOS/cmsis_os.c **** * @param pool_id       memory pool ID obtain referenced with \ref osPoolCreate.
 976:Middlewares/Third_Party/FreeRTOS/Source/CMSIS_RTOS/cmsis_os.c **** * @retval  address of the allocated memory block or NULL in case of no memory available.
 977:Middlewares/Third_Party/FreeRTOS/Source/CMSIS_RTOS/cmsis_os.c **** * @note   MUST REMAIN UNCHANGED: \b osPoolAlloc shall be consistent in every CMSIS-RTOS.
 978:Middlewares/Third_Party/FreeRTOS/Source/CMSIS_RTOS/cmsis_os.c **** */
 979:Middlewares/Third_Party/FreeRTOS/Source/CMSIS_RTOS/cmsis_os.c **** void *osPoolAlloc (osPoolId pool_id)
 980:Middlewares/Third_Party/FreeRTOS/Source/CMSIS_RTOS/cmsis_os.c **** {
 1731              		.loc 1 980 1 is_stmt 1 view -0
 1732              		.cfi_startproc
 1733              		@ args = 0, pretend = 0, frame = 0
 1734              		@ frame_needed = 0, uses_anonymous_args = 0
 1735              		.loc 1 980 1 is_stmt 0 view .LVU408
 1736 0000 70B5     		push	{r4, r5, r6, lr}
 1737              	.LCFI44:
 1738              		.cfi_def_cfa_offset 16
 1739              		.cfi_offset 4, -16
 1740              		.cfi_offset 5, -12
 1741              		.cfi_offset 6, -8
 1742              		.cfi_offset 14, -4
ARM GAS  C:\Users\xixi\AppData\Local\Temp\ccei1Zb6.s 			page 53


 1743 0002 0446     		mov	r4, r0
 981:Middlewares/Third_Party/FreeRTOS/Source/CMSIS_RTOS/cmsis_os.c ****   int dummy = 0;
 1744              		.loc 1 981 3 is_stmt 1 view .LVU409
 1745              	.LVL133:
 982:Middlewares/Third_Party/FreeRTOS/Source/CMSIS_RTOS/cmsis_os.c ****   void *p = NULL;
 1746              		.loc 1 982 3 view .LVU410
 983:Middlewares/Third_Party/FreeRTOS/Source/CMSIS_RTOS/cmsis_os.c ****   uint32_t i;
 1747              		.loc 1 983 3 view .LVU411
 984:Middlewares/Third_Party/FreeRTOS/Source/CMSIS_RTOS/cmsis_os.c ****   uint32_t index;
 1748              		.loc 1 984 3 view .LVU412
 985:Middlewares/Third_Party/FreeRTOS/Source/CMSIS_RTOS/cmsis_os.c ****   
 986:Middlewares/Third_Party/FreeRTOS/Source/CMSIS_RTOS/cmsis_os.c ****   if (inHandlerMode()) {
 1749              		.loc 1 986 3 view .LVU413
 1750              		.loc 1 986 7 is_stmt 0 view .LVU414
 1751 0004 FFF7FEFF 		bl	inHandlerMode
 1752              	.LVL134:
 1753              		.loc 1 986 6 view .LVU415
 1754 0008 58B1     		cbz	r0, .L121
 987:Middlewares/Third_Party/FreeRTOS/Source/CMSIS_RTOS/cmsis_os.c ****     dummy = portSET_INTERRUPT_MASK_FROM_ISR();
 1755              		.loc 1 987 5 is_stmt 1 view .LVU416
 1756              	.LBB10:
 1757              	.LBI10:
 1758              		.file 3 "Middlewares/Third_Party/FreeRTOS/Source/portable/GCC/ARM_CM4F/portmacro.h"
   1:Middlewares/Third_Party/FreeRTOS/Source/portable/GCC/ARM_CM4F/portmacro.h **** /*
   2:Middlewares/Third_Party/FreeRTOS/Source/portable/GCC/ARM_CM4F/portmacro.h ****  * FreeRTOS Kernel V10.0.1
   3:Middlewares/Third_Party/FreeRTOS/Source/portable/GCC/ARM_CM4F/portmacro.h ****  * Copyright (C) 2017 Amazon.com, Inc. or its affiliates.  All Rights Reserved.
   4:Middlewares/Third_Party/FreeRTOS/Source/portable/GCC/ARM_CM4F/portmacro.h ****  *
   5:Middlewares/Third_Party/FreeRTOS/Source/portable/GCC/ARM_CM4F/portmacro.h ****  * Permission is hereby granted, free of charge, to any person obtaining a copy of
   6:Middlewares/Third_Party/FreeRTOS/Source/portable/GCC/ARM_CM4F/portmacro.h ****  * this software and associated documentation files (the "Software"), to deal in
   7:Middlewares/Third_Party/FreeRTOS/Source/portable/GCC/ARM_CM4F/portmacro.h ****  * the Software without restriction, including without limitation the rights to
   8:Middlewares/Third_Party/FreeRTOS/Source/portable/GCC/ARM_CM4F/portmacro.h ****  * use, copy, modify, merge, publish, distribute, sublicense, and/or sell copies of
   9:Middlewares/Third_Party/FreeRTOS/Source/portable/GCC/ARM_CM4F/portmacro.h ****  * the Software, and to permit persons to whom the Software is furnished to do so,
  10:Middlewares/Third_Party/FreeRTOS/Source/portable/GCC/ARM_CM4F/portmacro.h ****  * subject to the following conditions:
  11:Middlewares/Third_Party/FreeRTOS/Source/portable/GCC/ARM_CM4F/portmacro.h ****  *
  12:Middlewares/Third_Party/FreeRTOS/Source/portable/GCC/ARM_CM4F/portmacro.h ****  * The above copyright notice and this permission notice shall be included in all
  13:Middlewares/Third_Party/FreeRTOS/Source/portable/GCC/ARM_CM4F/portmacro.h ****  * copies or substantial portions of the Software.
  14:Middlewares/Third_Party/FreeRTOS/Source/portable/GCC/ARM_CM4F/portmacro.h ****  *
  15:Middlewares/Third_Party/FreeRTOS/Source/portable/GCC/ARM_CM4F/portmacro.h ****  * THE SOFTWARE IS PROVIDED "AS IS", WITHOUT WARRANTY OF ANY KIND, EXPRESS OR
  16:Middlewares/Third_Party/FreeRTOS/Source/portable/GCC/ARM_CM4F/portmacro.h ****  * IMPLIED, INCLUDING BUT NOT LIMITED TO THE WARRANTIES OF MERCHANTABILITY, FITNESS
  17:Middlewares/Third_Party/FreeRTOS/Source/portable/GCC/ARM_CM4F/portmacro.h ****  * FOR A PARTICULAR PURPOSE AND NONINFRINGEMENT. IN NO EVENT SHALL THE AUTHORS OR
  18:Middlewares/Third_Party/FreeRTOS/Source/portable/GCC/ARM_CM4F/portmacro.h ****  * COPYRIGHT HOLDERS BE LIABLE FOR ANY CLAIM, DAMAGES OR OTHER LIABILITY, WHETHER
  19:Middlewares/Third_Party/FreeRTOS/Source/portable/GCC/ARM_CM4F/portmacro.h ****  * IN AN ACTION OF CONTRACT, TORT OR OTHERWISE, ARISING FROM, OUT OF OR IN
  20:Middlewares/Third_Party/FreeRTOS/Source/portable/GCC/ARM_CM4F/portmacro.h ****  * CONNECTION WITH THE SOFTWARE OR THE USE OR OTHER DEALINGS IN THE SOFTWARE.
  21:Middlewares/Third_Party/FreeRTOS/Source/portable/GCC/ARM_CM4F/portmacro.h ****  *
  22:Middlewares/Third_Party/FreeRTOS/Source/portable/GCC/ARM_CM4F/portmacro.h ****  * http://www.FreeRTOS.org
  23:Middlewares/Third_Party/FreeRTOS/Source/portable/GCC/ARM_CM4F/portmacro.h ****  * http://aws.amazon.com/freertos
  24:Middlewares/Third_Party/FreeRTOS/Source/portable/GCC/ARM_CM4F/portmacro.h ****  *
  25:Middlewares/Third_Party/FreeRTOS/Source/portable/GCC/ARM_CM4F/portmacro.h ****  * 1 tab == 4 spaces!
  26:Middlewares/Third_Party/FreeRTOS/Source/portable/GCC/ARM_CM4F/portmacro.h ****  */
  27:Middlewares/Third_Party/FreeRTOS/Source/portable/GCC/ARM_CM4F/portmacro.h **** 
  28:Middlewares/Third_Party/FreeRTOS/Source/portable/GCC/ARM_CM4F/portmacro.h **** 
  29:Middlewares/Third_Party/FreeRTOS/Source/portable/GCC/ARM_CM4F/portmacro.h **** #ifndef PORTMACRO_H
  30:Middlewares/Third_Party/FreeRTOS/Source/portable/GCC/ARM_CM4F/portmacro.h **** #define PORTMACRO_H
  31:Middlewares/Third_Party/FreeRTOS/Source/portable/GCC/ARM_CM4F/portmacro.h **** 
  32:Middlewares/Third_Party/FreeRTOS/Source/portable/GCC/ARM_CM4F/portmacro.h **** #ifdef __cplusplus
  33:Middlewares/Third_Party/FreeRTOS/Source/portable/GCC/ARM_CM4F/portmacro.h **** extern "C" {
  34:Middlewares/Third_Party/FreeRTOS/Source/portable/GCC/ARM_CM4F/portmacro.h **** #endif
ARM GAS  C:\Users\xixi\AppData\Local\Temp\ccei1Zb6.s 			page 54


  35:Middlewares/Third_Party/FreeRTOS/Source/portable/GCC/ARM_CM4F/portmacro.h **** 
  36:Middlewares/Third_Party/FreeRTOS/Source/portable/GCC/ARM_CM4F/portmacro.h **** /*-----------------------------------------------------------
  37:Middlewares/Third_Party/FreeRTOS/Source/portable/GCC/ARM_CM4F/portmacro.h ****  * Port specific definitions.
  38:Middlewares/Third_Party/FreeRTOS/Source/portable/GCC/ARM_CM4F/portmacro.h ****  *
  39:Middlewares/Third_Party/FreeRTOS/Source/portable/GCC/ARM_CM4F/portmacro.h ****  * The settings in this file configure FreeRTOS correctly for the
  40:Middlewares/Third_Party/FreeRTOS/Source/portable/GCC/ARM_CM4F/portmacro.h ****  * given hardware and compiler.
  41:Middlewares/Third_Party/FreeRTOS/Source/portable/GCC/ARM_CM4F/portmacro.h ****  *
  42:Middlewares/Third_Party/FreeRTOS/Source/portable/GCC/ARM_CM4F/portmacro.h ****  * These settings should not be altered.
  43:Middlewares/Third_Party/FreeRTOS/Source/portable/GCC/ARM_CM4F/portmacro.h ****  *-----------------------------------------------------------
  44:Middlewares/Third_Party/FreeRTOS/Source/portable/GCC/ARM_CM4F/portmacro.h ****  */
  45:Middlewares/Third_Party/FreeRTOS/Source/portable/GCC/ARM_CM4F/portmacro.h **** 
  46:Middlewares/Third_Party/FreeRTOS/Source/portable/GCC/ARM_CM4F/portmacro.h **** /* Type definitions. */
  47:Middlewares/Third_Party/FreeRTOS/Source/portable/GCC/ARM_CM4F/portmacro.h **** #define portCHAR		char
  48:Middlewares/Third_Party/FreeRTOS/Source/portable/GCC/ARM_CM4F/portmacro.h **** #define portFLOAT		float
  49:Middlewares/Third_Party/FreeRTOS/Source/portable/GCC/ARM_CM4F/portmacro.h **** #define portDOUBLE		double
  50:Middlewares/Third_Party/FreeRTOS/Source/portable/GCC/ARM_CM4F/portmacro.h **** #define portLONG		long
  51:Middlewares/Third_Party/FreeRTOS/Source/portable/GCC/ARM_CM4F/portmacro.h **** #define portSHORT		short
  52:Middlewares/Third_Party/FreeRTOS/Source/portable/GCC/ARM_CM4F/portmacro.h **** #define portSTACK_TYPE	uint32_t
  53:Middlewares/Third_Party/FreeRTOS/Source/portable/GCC/ARM_CM4F/portmacro.h **** #define portBASE_TYPE	long
  54:Middlewares/Third_Party/FreeRTOS/Source/portable/GCC/ARM_CM4F/portmacro.h **** 
  55:Middlewares/Third_Party/FreeRTOS/Source/portable/GCC/ARM_CM4F/portmacro.h **** typedef portSTACK_TYPE StackType_t;
  56:Middlewares/Third_Party/FreeRTOS/Source/portable/GCC/ARM_CM4F/portmacro.h **** typedef long BaseType_t;
  57:Middlewares/Third_Party/FreeRTOS/Source/portable/GCC/ARM_CM4F/portmacro.h **** typedef unsigned long UBaseType_t;
  58:Middlewares/Third_Party/FreeRTOS/Source/portable/GCC/ARM_CM4F/portmacro.h **** 
  59:Middlewares/Third_Party/FreeRTOS/Source/portable/GCC/ARM_CM4F/portmacro.h **** #if( configUSE_16_BIT_TICKS == 1 )
  60:Middlewares/Third_Party/FreeRTOS/Source/portable/GCC/ARM_CM4F/portmacro.h **** 	typedef uint16_t TickType_t;
  61:Middlewares/Third_Party/FreeRTOS/Source/portable/GCC/ARM_CM4F/portmacro.h **** 	#define portMAX_DELAY ( TickType_t ) 0xffff
  62:Middlewares/Third_Party/FreeRTOS/Source/portable/GCC/ARM_CM4F/portmacro.h **** #else
  63:Middlewares/Third_Party/FreeRTOS/Source/portable/GCC/ARM_CM4F/portmacro.h **** 	typedef uint32_t TickType_t;
  64:Middlewares/Third_Party/FreeRTOS/Source/portable/GCC/ARM_CM4F/portmacro.h **** 	#define portMAX_DELAY ( TickType_t ) 0xffffffffUL
  65:Middlewares/Third_Party/FreeRTOS/Source/portable/GCC/ARM_CM4F/portmacro.h **** 
  66:Middlewares/Third_Party/FreeRTOS/Source/portable/GCC/ARM_CM4F/portmacro.h **** 	/* 32-bit tick type on a 32-bit architecture, so reads of the tick count do
  67:Middlewares/Third_Party/FreeRTOS/Source/portable/GCC/ARM_CM4F/portmacro.h **** 	not need to be guarded with a critical section. */
  68:Middlewares/Third_Party/FreeRTOS/Source/portable/GCC/ARM_CM4F/portmacro.h **** 	#define portTICK_TYPE_IS_ATOMIC 1
  69:Middlewares/Third_Party/FreeRTOS/Source/portable/GCC/ARM_CM4F/portmacro.h **** #endif
  70:Middlewares/Third_Party/FreeRTOS/Source/portable/GCC/ARM_CM4F/portmacro.h **** /*-----------------------------------------------------------*/
  71:Middlewares/Third_Party/FreeRTOS/Source/portable/GCC/ARM_CM4F/portmacro.h **** 
  72:Middlewares/Third_Party/FreeRTOS/Source/portable/GCC/ARM_CM4F/portmacro.h **** /* Architecture specifics. */
  73:Middlewares/Third_Party/FreeRTOS/Source/portable/GCC/ARM_CM4F/portmacro.h **** #define portSTACK_GROWTH			( -1 )
  74:Middlewares/Third_Party/FreeRTOS/Source/portable/GCC/ARM_CM4F/portmacro.h **** #define portTICK_PERIOD_MS			( ( TickType_t ) 1000 / configTICK_RATE_HZ )
  75:Middlewares/Third_Party/FreeRTOS/Source/portable/GCC/ARM_CM4F/portmacro.h **** #define portBYTE_ALIGNMENT			8
  76:Middlewares/Third_Party/FreeRTOS/Source/portable/GCC/ARM_CM4F/portmacro.h **** /*-----------------------------------------------------------*/
  77:Middlewares/Third_Party/FreeRTOS/Source/portable/GCC/ARM_CM4F/portmacro.h **** 
  78:Middlewares/Third_Party/FreeRTOS/Source/portable/GCC/ARM_CM4F/portmacro.h **** /* Scheduler utilities. */
  79:Middlewares/Third_Party/FreeRTOS/Source/portable/GCC/ARM_CM4F/portmacro.h **** #define portYIELD() 															\
  80:Middlewares/Third_Party/FreeRTOS/Source/portable/GCC/ARM_CM4F/portmacro.h **** {																				\
  81:Middlewares/Third_Party/FreeRTOS/Source/portable/GCC/ARM_CM4F/portmacro.h **** 	/* Set a PendSV to request a context switch. */								\
  82:Middlewares/Third_Party/FreeRTOS/Source/portable/GCC/ARM_CM4F/portmacro.h **** 	portNVIC_INT_CTRL_REG = portNVIC_PENDSVSET_BIT;								\
  83:Middlewares/Third_Party/FreeRTOS/Source/portable/GCC/ARM_CM4F/portmacro.h **** 																				\
  84:Middlewares/Third_Party/FreeRTOS/Source/portable/GCC/ARM_CM4F/portmacro.h **** 	/* Barriers are normally not required but do ensure the code is completely	\
  85:Middlewares/Third_Party/FreeRTOS/Source/portable/GCC/ARM_CM4F/portmacro.h **** 	within the specified behaviour for the architecture. */						\
  86:Middlewares/Third_Party/FreeRTOS/Source/portable/GCC/ARM_CM4F/portmacro.h **** 	__asm volatile( "dsb" ::: "memory" );										\
  87:Middlewares/Third_Party/FreeRTOS/Source/portable/GCC/ARM_CM4F/portmacro.h **** 	__asm volatile( "isb" );													\
  88:Middlewares/Third_Party/FreeRTOS/Source/portable/GCC/ARM_CM4F/portmacro.h **** }
  89:Middlewares/Third_Party/FreeRTOS/Source/portable/GCC/ARM_CM4F/portmacro.h **** 
  90:Middlewares/Third_Party/FreeRTOS/Source/portable/GCC/ARM_CM4F/portmacro.h **** #define portNVIC_INT_CTRL_REG		( * ( ( volatile uint32_t * ) 0xe000ed04 ) )
  91:Middlewares/Third_Party/FreeRTOS/Source/portable/GCC/ARM_CM4F/portmacro.h **** #define portNVIC_PENDSVSET_BIT		( 1UL << 28UL )
ARM GAS  C:\Users\xixi\AppData\Local\Temp\ccei1Zb6.s 			page 55


  92:Middlewares/Third_Party/FreeRTOS/Source/portable/GCC/ARM_CM4F/portmacro.h **** #define portEND_SWITCHING_ISR( xSwitchRequired ) if( xSwitchRequired != pdFALSE ) portYIELD()
  93:Middlewares/Third_Party/FreeRTOS/Source/portable/GCC/ARM_CM4F/portmacro.h **** #define portYIELD_FROM_ISR( x ) portEND_SWITCHING_ISR( x )
  94:Middlewares/Third_Party/FreeRTOS/Source/portable/GCC/ARM_CM4F/portmacro.h **** /*-----------------------------------------------------------*/
  95:Middlewares/Third_Party/FreeRTOS/Source/portable/GCC/ARM_CM4F/portmacro.h **** 
  96:Middlewares/Third_Party/FreeRTOS/Source/portable/GCC/ARM_CM4F/portmacro.h **** /* Critical section management. */
  97:Middlewares/Third_Party/FreeRTOS/Source/portable/GCC/ARM_CM4F/portmacro.h **** extern void vPortEnterCritical( void );
  98:Middlewares/Third_Party/FreeRTOS/Source/portable/GCC/ARM_CM4F/portmacro.h **** extern void vPortExitCritical( void );
  99:Middlewares/Third_Party/FreeRTOS/Source/portable/GCC/ARM_CM4F/portmacro.h **** #define portSET_INTERRUPT_MASK_FROM_ISR()		ulPortRaiseBASEPRI()
 100:Middlewares/Third_Party/FreeRTOS/Source/portable/GCC/ARM_CM4F/portmacro.h **** #define portCLEAR_INTERRUPT_MASK_FROM_ISR(x)	vPortSetBASEPRI(x)
 101:Middlewares/Third_Party/FreeRTOS/Source/portable/GCC/ARM_CM4F/portmacro.h **** #define portDISABLE_INTERRUPTS()				vPortRaiseBASEPRI()
 102:Middlewares/Third_Party/FreeRTOS/Source/portable/GCC/ARM_CM4F/portmacro.h **** #define portENABLE_INTERRUPTS()					vPortSetBASEPRI(0)
 103:Middlewares/Third_Party/FreeRTOS/Source/portable/GCC/ARM_CM4F/portmacro.h **** #define portENTER_CRITICAL()					vPortEnterCritical()
 104:Middlewares/Third_Party/FreeRTOS/Source/portable/GCC/ARM_CM4F/portmacro.h **** #define portEXIT_CRITICAL()						vPortExitCritical()
 105:Middlewares/Third_Party/FreeRTOS/Source/portable/GCC/ARM_CM4F/portmacro.h **** 
 106:Middlewares/Third_Party/FreeRTOS/Source/portable/GCC/ARM_CM4F/portmacro.h **** /*-----------------------------------------------------------*/
 107:Middlewares/Third_Party/FreeRTOS/Source/portable/GCC/ARM_CM4F/portmacro.h **** 
 108:Middlewares/Third_Party/FreeRTOS/Source/portable/GCC/ARM_CM4F/portmacro.h **** /* Task function macros as described on the FreeRTOS.org WEB site.  These are
 109:Middlewares/Third_Party/FreeRTOS/Source/portable/GCC/ARM_CM4F/portmacro.h **** not necessary for to use this port.  They are defined so the common demo files
 110:Middlewares/Third_Party/FreeRTOS/Source/portable/GCC/ARM_CM4F/portmacro.h **** (which build with all the ports) will build. */
 111:Middlewares/Third_Party/FreeRTOS/Source/portable/GCC/ARM_CM4F/portmacro.h **** #define portTASK_FUNCTION_PROTO( vFunction, pvParameters ) void vFunction( void *pvParameters )
 112:Middlewares/Third_Party/FreeRTOS/Source/portable/GCC/ARM_CM4F/portmacro.h **** #define portTASK_FUNCTION( vFunction, pvParameters ) void vFunction( void *pvParameters )
 113:Middlewares/Third_Party/FreeRTOS/Source/portable/GCC/ARM_CM4F/portmacro.h **** /*-----------------------------------------------------------*/
 114:Middlewares/Third_Party/FreeRTOS/Source/portable/GCC/ARM_CM4F/portmacro.h **** 
 115:Middlewares/Third_Party/FreeRTOS/Source/portable/GCC/ARM_CM4F/portmacro.h **** /* Tickless idle/low power functionality. */
 116:Middlewares/Third_Party/FreeRTOS/Source/portable/GCC/ARM_CM4F/portmacro.h **** #ifndef portSUPPRESS_TICKS_AND_SLEEP
 117:Middlewares/Third_Party/FreeRTOS/Source/portable/GCC/ARM_CM4F/portmacro.h **** 	extern void vPortSuppressTicksAndSleep( TickType_t xExpectedIdleTime );
 118:Middlewares/Third_Party/FreeRTOS/Source/portable/GCC/ARM_CM4F/portmacro.h **** 	#define portSUPPRESS_TICKS_AND_SLEEP( xExpectedIdleTime ) vPortSuppressTicksAndSleep( xExpectedIdl
 119:Middlewares/Third_Party/FreeRTOS/Source/portable/GCC/ARM_CM4F/portmacro.h **** #endif
 120:Middlewares/Third_Party/FreeRTOS/Source/portable/GCC/ARM_CM4F/portmacro.h **** /*-----------------------------------------------------------*/
 121:Middlewares/Third_Party/FreeRTOS/Source/portable/GCC/ARM_CM4F/portmacro.h **** 
 122:Middlewares/Third_Party/FreeRTOS/Source/portable/GCC/ARM_CM4F/portmacro.h **** /* Architecture specific optimisations. */
 123:Middlewares/Third_Party/FreeRTOS/Source/portable/GCC/ARM_CM4F/portmacro.h **** #ifndef configUSE_PORT_OPTIMISED_TASK_SELECTION
 124:Middlewares/Third_Party/FreeRTOS/Source/portable/GCC/ARM_CM4F/portmacro.h **** 	#define configUSE_PORT_OPTIMISED_TASK_SELECTION 1
 125:Middlewares/Third_Party/FreeRTOS/Source/portable/GCC/ARM_CM4F/portmacro.h **** #endif
 126:Middlewares/Third_Party/FreeRTOS/Source/portable/GCC/ARM_CM4F/portmacro.h **** 
 127:Middlewares/Third_Party/FreeRTOS/Source/portable/GCC/ARM_CM4F/portmacro.h **** #if configUSE_PORT_OPTIMISED_TASK_SELECTION == 1
 128:Middlewares/Third_Party/FreeRTOS/Source/portable/GCC/ARM_CM4F/portmacro.h **** 
 129:Middlewares/Third_Party/FreeRTOS/Source/portable/GCC/ARM_CM4F/portmacro.h **** 	/* Generic helper function. */
 130:Middlewares/Third_Party/FreeRTOS/Source/portable/GCC/ARM_CM4F/portmacro.h **** 	__attribute__( ( always_inline ) ) static inline uint8_t ucPortCountLeadingZeros( uint32_t ulBitma
 131:Middlewares/Third_Party/FreeRTOS/Source/portable/GCC/ARM_CM4F/portmacro.h **** 	{
 132:Middlewares/Third_Party/FreeRTOS/Source/portable/GCC/ARM_CM4F/portmacro.h **** 	uint8_t ucReturn;
 133:Middlewares/Third_Party/FreeRTOS/Source/portable/GCC/ARM_CM4F/portmacro.h **** 
 134:Middlewares/Third_Party/FreeRTOS/Source/portable/GCC/ARM_CM4F/portmacro.h **** 		__asm volatile ( "clz %0, %1" : "=r" ( ucReturn ) : "r" ( ulBitmap ) : "memory" );
 135:Middlewares/Third_Party/FreeRTOS/Source/portable/GCC/ARM_CM4F/portmacro.h **** 		return ucReturn;
 136:Middlewares/Third_Party/FreeRTOS/Source/portable/GCC/ARM_CM4F/portmacro.h **** 	}
 137:Middlewares/Third_Party/FreeRTOS/Source/portable/GCC/ARM_CM4F/portmacro.h **** 
 138:Middlewares/Third_Party/FreeRTOS/Source/portable/GCC/ARM_CM4F/portmacro.h **** 	/* Check the configuration. */
 139:Middlewares/Third_Party/FreeRTOS/Source/portable/GCC/ARM_CM4F/portmacro.h **** 	#if( configMAX_PRIORITIES > 32 )
 140:Middlewares/Third_Party/FreeRTOS/Source/portable/GCC/ARM_CM4F/portmacro.h **** 		#error configUSE_PORT_OPTIMISED_TASK_SELECTION can only be set to 1 when configMAX_PRIORITIES is 
 141:Middlewares/Third_Party/FreeRTOS/Source/portable/GCC/ARM_CM4F/portmacro.h **** 	#endif
 142:Middlewares/Third_Party/FreeRTOS/Source/portable/GCC/ARM_CM4F/portmacro.h **** 
 143:Middlewares/Third_Party/FreeRTOS/Source/portable/GCC/ARM_CM4F/portmacro.h **** 	/* Store/clear the ready priorities in a bit map. */
 144:Middlewares/Third_Party/FreeRTOS/Source/portable/GCC/ARM_CM4F/portmacro.h **** 	#define portRECORD_READY_PRIORITY( uxPriority, uxReadyPriorities ) ( uxReadyPriorities ) |= ( 1UL 
 145:Middlewares/Third_Party/FreeRTOS/Source/portable/GCC/ARM_CM4F/portmacro.h **** 	#define portRESET_READY_PRIORITY( uxPriority, uxReadyPriorities ) ( uxReadyPriorities ) &= ~( 1UL 
 146:Middlewares/Third_Party/FreeRTOS/Source/portable/GCC/ARM_CM4F/portmacro.h **** 
 147:Middlewares/Third_Party/FreeRTOS/Source/portable/GCC/ARM_CM4F/portmacro.h **** 	/*-----------------------------------------------------------*/
 148:Middlewares/Third_Party/FreeRTOS/Source/portable/GCC/ARM_CM4F/portmacro.h **** 
ARM GAS  C:\Users\xixi\AppData\Local\Temp\ccei1Zb6.s 			page 56


 149:Middlewares/Third_Party/FreeRTOS/Source/portable/GCC/ARM_CM4F/portmacro.h **** 	#define portGET_HIGHEST_PRIORITY( uxTopPriority, uxReadyPriorities ) uxTopPriority = ( 31UL - ( ui
 150:Middlewares/Third_Party/FreeRTOS/Source/portable/GCC/ARM_CM4F/portmacro.h **** 
 151:Middlewares/Third_Party/FreeRTOS/Source/portable/GCC/ARM_CM4F/portmacro.h **** #endif /* configUSE_PORT_OPTIMISED_TASK_SELECTION */
 152:Middlewares/Third_Party/FreeRTOS/Source/portable/GCC/ARM_CM4F/portmacro.h **** 
 153:Middlewares/Third_Party/FreeRTOS/Source/portable/GCC/ARM_CM4F/portmacro.h **** /*-----------------------------------------------------------*/
 154:Middlewares/Third_Party/FreeRTOS/Source/portable/GCC/ARM_CM4F/portmacro.h **** 
 155:Middlewares/Third_Party/FreeRTOS/Source/portable/GCC/ARM_CM4F/portmacro.h **** #ifdef configASSERT
 156:Middlewares/Third_Party/FreeRTOS/Source/portable/GCC/ARM_CM4F/portmacro.h **** 	void vPortValidateInterruptPriority( void );
 157:Middlewares/Third_Party/FreeRTOS/Source/portable/GCC/ARM_CM4F/portmacro.h **** 	#define portASSERT_IF_INTERRUPT_PRIORITY_INVALID() 	vPortValidateInterruptPriority()
 158:Middlewares/Third_Party/FreeRTOS/Source/portable/GCC/ARM_CM4F/portmacro.h **** #endif
 159:Middlewares/Third_Party/FreeRTOS/Source/portable/GCC/ARM_CM4F/portmacro.h **** 
 160:Middlewares/Third_Party/FreeRTOS/Source/portable/GCC/ARM_CM4F/portmacro.h **** /* portNOP() is not required by this port. */
 161:Middlewares/Third_Party/FreeRTOS/Source/portable/GCC/ARM_CM4F/portmacro.h **** #define portNOP()
 162:Middlewares/Third_Party/FreeRTOS/Source/portable/GCC/ARM_CM4F/portmacro.h **** 
 163:Middlewares/Third_Party/FreeRTOS/Source/portable/GCC/ARM_CM4F/portmacro.h **** #define portINLINE	__inline
 164:Middlewares/Third_Party/FreeRTOS/Source/portable/GCC/ARM_CM4F/portmacro.h **** 
 165:Middlewares/Third_Party/FreeRTOS/Source/portable/GCC/ARM_CM4F/portmacro.h **** #ifndef portFORCE_INLINE
 166:Middlewares/Third_Party/FreeRTOS/Source/portable/GCC/ARM_CM4F/portmacro.h **** 	#define portFORCE_INLINE inline __attribute__(( always_inline))
 167:Middlewares/Third_Party/FreeRTOS/Source/portable/GCC/ARM_CM4F/portmacro.h **** #endif
 168:Middlewares/Third_Party/FreeRTOS/Source/portable/GCC/ARM_CM4F/portmacro.h **** 
 169:Middlewares/Third_Party/FreeRTOS/Source/portable/GCC/ARM_CM4F/portmacro.h **** portFORCE_INLINE static BaseType_t xPortIsInsideInterrupt( void )
 170:Middlewares/Third_Party/FreeRTOS/Source/portable/GCC/ARM_CM4F/portmacro.h **** {
 171:Middlewares/Third_Party/FreeRTOS/Source/portable/GCC/ARM_CM4F/portmacro.h **** uint32_t ulCurrentInterrupt;
 172:Middlewares/Third_Party/FreeRTOS/Source/portable/GCC/ARM_CM4F/portmacro.h **** BaseType_t xReturn;
 173:Middlewares/Third_Party/FreeRTOS/Source/portable/GCC/ARM_CM4F/portmacro.h **** 
 174:Middlewares/Third_Party/FreeRTOS/Source/portable/GCC/ARM_CM4F/portmacro.h **** 	/* Obtain the number of the currently executing interrupt. */
 175:Middlewares/Third_Party/FreeRTOS/Source/portable/GCC/ARM_CM4F/portmacro.h **** 	__asm volatile( "mrs %0, ipsr" : "=r"( ulCurrentInterrupt ) :: "memory" );
 176:Middlewares/Third_Party/FreeRTOS/Source/portable/GCC/ARM_CM4F/portmacro.h **** 
 177:Middlewares/Third_Party/FreeRTOS/Source/portable/GCC/ARM_CM4F/portmacro.h **** 	if( ulCurrentInterrupt == 0 )
 178:Middlewares/Third_Party/FreeRTOS/Source/portable/GCC/ARM_CM4F/portmacro.h **** 	{
 179:Middlewares/Third_Party/FreeRTOS/Source/portable/GCC/ARM_CM4F/portmacro.h **** 		xReturn = pdFALSE;
 180:Middlewares/Third_Party/FreeRTOS/Source/portable/GCC/ARM_CM4F/portmacro.h **** 	}
 181:Middlewares/Third_Party/FreeRTOS/Source/portable/GCC/ARM_CM4F/portmacro.h **** 	else
 182:Middlewares/Third_Party/FreeRTOS/Source/portable/GCC/ARM_CM4F/portmacro.h **** 	{
 183:Middlewares/Third_Party/FreeRTOS/Source/portable/GCC/ARM_CM4F/portmacro.h **** 		xReturn = pdTRUE;
 184:Middlewares/Third_Party/FreeRTOS/Source/portable/GCC/ARM_CM4F/portmacro.h **** 	}
 185:Middlewares/Third_Party/FreeRTOS/Source/portable/GCC/ARM_CM4F/portmacro.h **** 
 186:Middlewares/Third_Party/FreeRTOS/Source/portable/GCC/ARM_CM4F/portmacro.h **** 	return xReturn;
 187:Middlewares/Third_Party/FreeRTOS/Source/portable/GCC/ARM_CM4F/portmacro.h **** }
 188:Middlewares/Third_Party/FreeRTOS/Source/portable/GCC/ARM_CM4F/portmacro.h **** 
 189:Middlewares/Third_Party/FreeRTOS/Source/portable/GCC/ARM_CM4F/portmacro.h **** /*-----------------------------------------------------------*/
 190:Middlewares/Third_Party/FreeRTOS/Source/portable/GCC/ARM_CM4F/portmacro.h **** 
 191:Middlewares/Third_Party/FreeRTOS/Source/portable/GCC/ARM_CM4F/portmacro.h **** portFORCE_INLINE static void vPortRaiseBASEPRI( void )
 192:Middlewares/Third_Party/FreeRTOS/Source/portable/GCC/ARM_CM4F/portmacro.h **** {
 193:Middlewares/Third_Party/FreeRTOS/Source/portable/GCC/ARM_CM4F/portmacro.h **** uint32_t ulNewBASEPRI;
 194:Middlewares/Third_Party/FreeRTOS/Source/portable/GCC/ARM_CM4F/portmacro.h **** 
 195:Middlewares/Third_Party/FreeRTOS/Source/portable/GCC/ARM_CM4F/portmacro.h **** 	__asm volatile
 196:Middlewares/Third_Party/FreeRTOS/Source/portable/GCC/ARM_CM4F/portmacro.h **** 	(
 197:Middlewares/Third_Party/FreeRTOS/Source/portable/GCC/ARM_CM4F/portmacro.h **** 		"	mov %0, %1												\n"	\
 198:Middlewares/Third_Party/FreeRTOS/Source/portable/GCC/ARM_CM4F/portmacro.h **** 		"	msr basepri, %0											\n" \
 199:Middlewares/Third_Party/FreeRTOS/Source/portable/GCC/ARM_CM4F/portmacro.h **** 		"	isb														\n" \
 200:Middlewares/Third_Party/FreeRTOS/Source/portable/GCC/ARM_CM4F/portmacro.h **** 		"	dsb														\n" \
 201:Middlewares/Third_Party/FreeRTOS/Source/portable/GCC/ARM_CM4F/portmacro.h **** 		:"=r" (ulNewBASEPRI) : "i" ( configMAX_SYSCALL_INTERRUPT_PRIORITY ) : "memory"
 202:Middlewares/Third_Party/FreeRTOS/Source/portable/GCC/ARM_CM4F/portmacro.h **** 	);
 203:Middlewares/Third_Party/FreeRTOS/Source/portable/GCC/ARM_CM4F/portmacro.h **** }
 204:Middlewares/Third_Party/FreeRTOS/Source/portable/GCC/ARM_CM4F/portmacro.h **** 
 205:Middlewares/Third_Party/FreeRTOS/Source/portable/GCC/ARM_CM4F/portmacro.h **** /*-----------------------------------------------------------*/
ARM GAS  C:\Users\xixi\AppData\Local\Temp\ccei1Zb6.s 			page 57


 206:Middlewares/Third_Party/FreeRTOS/Source/portable/GCC/ARM_CM4F/portmacro.h **** 
 207:Middlewares/Third_Party/FreeRTOS/Source/portable/GCC/ARM_CM4F/portmacro.h **** portFORCE_INLINE static uint32_t ulPortRaiseBASEPRI( void )
 1759              		.loc 3 207 34 view .LVU417
 1760              	.LBB11:
 208:Middlewares/Third_Party/FreeRTOS/Source/portable/GCC/ARM_CM4F/portmacro.h **** {
 209:Middlewares/Third_Party/FreeRTOS/Source/portable/GCC/ARM_CM4F/portmacro.h **** uint32_t ulOriginalBASEPRI, ulNewBASEPRI;
 1761              		.loc 3 209 1 view .LVU418
 210:Middlewares/Third_Party/FreeRTOS/Source/portable/GCC/ARM_CM4F/portmacro.h **** 
 211:Middlewares/Third_Party/FreeRTOS/Source/portable/GCC/ARM_CM4F/portmacro.h **** 	__asm volatile
 1762              		.loc 3 211 2 view .LVU419
 1763              		.syntax unified
 1764              	@ 211 "Middlewares/Third_Party/FreeRTOS/Source/portable/GCC/ARM_CM4F/portmacro.h" 1
 1765 000a EFF31185 			mrs r5, basepri											
 1766 000e 4FF05003 		mov r3, #80												
 1767 0012 83F31188 		msr basepri, r3											
 1768 0016 BFF36F8F 		isb														
 1769 001a BFF34F8F 		dsb														
 1770              	
 1771              	@ 0 "" 2
 1772              	.LVL135:
 212:Middlewares/Third_Party/FreeRTOS/Source/portable/GCC/ARM_CM4F/portmacro.h **** 	(
 213:Middlewares/Third_Party/FreeRTOS/Source/portable/GCC/ARM_CM4F/portmacro.h **** 		"	mrs %0, basepri											\n" \
 214:Middlewares/Third_Party/FreeRTOS/Source/portable/GCC/ARM_CM4F/portmacro.h **** 		"	mov %1, %2												\n"	\
 215:Middlewares/Third_Party/FreeRTOS/Source/portable/GCC/ARM_CM4F/portmacro.h **** 		"	msr basepri, %1											\n" \
 216:Middlewares/Third_Party/FreeRTOS/Source/portable/GCC/ARM_CM4F/portmacro.h **** 		"	isb														\n" \
 217:Middlewares/Third_Party/FreeRTOS/Source/portable/GCC/ARM_CM4F/portmacro.h **** 		"	dsb														\n" \
 218:Middlewares/Third_Party/FreeRTOS/Source/portable/GCC/ARM_CM4F/portmacro.h **** 		:"=r" (ulOriginalBASEPRI), "=r" (ulNewBASEPRI) : "i" ( configMAX_SYSCALL_INTERRUPT_PRIORITY ) : "
 219:Middlewares/Third_Party/FreeRTOS/Source/portable/GCC/ARM_CM4F/portmacro.h **** 	);
 220:Middlewares/Third_Party/FreeRTOS/Source/portable/GCC/ARM_CM4F/portmacro.h **** 
 221:Middlewares/Third_Party/FreeRTOS/Source/portable/GCC/ARM_CM4F/portmacro.h **** 	/* This return will not be reached but is necessary to prevent compiler
 222:Middlewares/Third_Party/FreeRTOS/Source/portable/GCC/ARM_CM4F/portmacro.h **** 	warnings. */
 223:Middlewares/Third_Party/FreeRTOS/Source/portable/GCC/ARM_CM4F/portmacro.h **** 	return ulOriginalBASEPRI;
 1773              		.loc 3 223 2 view .LVU420
 1774              		.thumb
 1775              		.syntax unified
 1776              	.L122:
 1777              		.loc 3 223 2 is_stmt 0 view .LVU421
 1778              	.LBE11:
 1779              	.LBE10:
 988:Middlewares/Third_Party/FreeRTOS/Source/CMSIS_RTOS/cmsis_os.c ****   }
 989:Middlewares/Third_Party/FreeRTOS/Source/CMSIS_RTOS/cmsis_os.c ****   else {
 990:Middlewares/Third_Party/FreeRTOS/Source/CMSIS_RTOS/cmsis_os.c ****     vPortEnterCritical();
 991:Middlewares/Third_Party/FreeRTOS/Source/CMSIS_RTOS/cmsis_os.c ****   }
 992:Middlewares/Third_Party/FreeRTOS/Source/CMSIS_RTOS/cmsis_os.c ****   
 993:Middlewares/Third_Party/FreeRTOS/Source/CMSIS_RTOS/cmsis_os.c ****   for (i = 0; i < pool_id->pool_sz; i++) {
 1780              		.loc 1 993 3 is_stmt 1 view .LVU422
 1781              		.loc 1 993 10 is_stmt 0 view .LVU423
 1782 001e 0022     		movs	r2, #0
 1783              		.loc 1 993 3 view .LVU424
 1784 0020 08E0     		b	.L123
 1785              	.LVL136:
 1786              	.L121:
 1787              		.loc 1 993 3 view .LVU425
 1788 0022 0546     		mov	r5, r0
 990:Middlewares/Third_Party/FreeRTOS/Source/CMSIS_RTOS/cmsis_os.c ****   }
 1789              		.loc 1 990 5 is_stmt 1 view .LVU426
 1790 0024 FFF7FEFF 		bl	vPortEnterCritical
ARM GAS  C:\Users\xixi\AppData\Local\Temp\ccei1Zb6.s 			page 58


 1791              	.LVL137:
 1792 0028 F9E7     		b	.L122
 1793              	.LVL138:
 1794              	.L124:
 994:Middlewares/Third_Party/FreeRTOS/Source/CMSIS_RTOS/cmsis_os.c ****     index = pool_id->currentIndex + i;
 995:Middlewares/Third_Party/FreeRTOS/Source/CMSIS_RTOS/cmsis_os.c ****     if (index >= pool_id->pool_sz) {
 996:Middlewares/Third_Party/FreeRTOS/Source/CMSIS_RTOS/cmsis_os.c ****       index = 0;
 997:Middlewares/Third_Party/FreeRTOS/Source/CMSIS_RTOS/cmsis_os.c ****     }
 998:Middlewares/Third_Party/FreeRTOS/Source/CMSIS_RTOS/cmsis_os.c ****     
 999:Middlewares/Third_Party/FreeRTOS/Source/CMSIS_RTOS/cmsis_os.c ****     if (pool_id->markers[index] == 0) {
 1795              		.loc 1 999 5 view .LVU427
 1796              		.loc 1 999 16 is_stmt 0 view .LVU428
 1797 002a 6168     		ldr	r1, [r4, #4]
 1798              		.loc 1 999 25 view .LVU429
 1799 002c C818     		adds	r0, r1, r3
 1800 002e C95C     		ldrb	r1, [r1, r3]	@ zero_extendqisi2
 1801              		.loc 1 999 8 view .LVU430
 1802 0030 49B1     		cbz	r1, .L132
 993:Middlewares/Third_Party/FreeRTOS/Source/CMSIS_RTOS/cmsis_os.c ****     index = pool_id->currentIndex + i;
 1803              		.loc 1 993 37 is_stmt 1 discriminator 2 view .LVU431
 993:Middlewares/Third_Party/FreeRTOS/Source/CMSIS_RTOS/cmsis_os.c ****     index = pool_id->currentIndex + i;
 1804              		.loc 1 993 38 is_stmt 0 discriminator 2 view .LVU432
 1805 0032 0132     		adds	r2, r2, #1
 1806              	.LVL139:
 1807              	.L123:
 993:Middlewares/Third_Party/FreeRTOS/Source/CMSIS_RTOS/cmsis_os.c ****     index = pool_id->currentIndex + i;
 1808              		.loc 1 993 15 is_stmt 1 discriminator 1 view .LVU433
 993:Middlewares/Third_Party/FreeRTOS/Source/CMSIS_RTOS/cmsis_os.c ****     index = pool_id->currentIndex + i;
 1809              		.loc 1 993 26 is_stmt 0 discriminator 1 view .LVU434
 1810 0034 A168     		ldr	r1, [r4, #8]
 993:Middlewares/Third_Party/FreeRTOS/Source/CMSIS_RTOS/cmsis_os.c ****     index = pool_id->currentIndex + i;
 1811              		.loc 1 993 3 discriminator 1 view .LVU435
 1812 0036 9142     		cmp	r1, r2
 1813 0038 0DD9     		bls	.L133
 994:Middlewares/Third_Party/FreeRTOS/Source/CMSIS_RTOS/cmsis_os.c ****     index = pool_id->currentIndex + i;
 1814              		.loc 1 994 5 is_stmt 1 view .LVU436
 994:Middlewares/Third_Party/FreeRTOS/Source/CMSIS_RTOS/cmsis_os.c ****     index = pool_id->currentIndex + i;
 1815              		.loc 1 994 20 is_stmt 0 view .LVU437
 1816 003a 2369     		ldr	r3, [r4, #16]
 994:Middlewares/Third_Party/FreeRTOS/Source/CMSIS_RTOS/cmsis_os.c ****     index = pool_id->currentIndex + i;
 1817              		.loc 1 994 11 view .LVU438
 1818 003c 1344     		add	r3, r3, r2
 1819              	.LVL140:
 995:Middlewares/Third_Party/FreeRTOS/Source/CMSIS_RTOS/cmsis_os.c ****       index = 0;
 1820              		.loc 1 995 5 is_stmt 1 view .LVU439
 995:Middlewares/Third_Party/FreeRTOS/Source/CMSIS_RTOS/cmsis_os.c ****       index = 0;
 1821              		.loc 1 995 8 is_stmt 0 view .LVU440
 1822 003e 9942     		cmp	r1, r3
 1823 0040 F3D8     		bhi	.L124
 996:Middlewares/Third_Party/FreeRTOS/Source/CMSIS_RTOS/cmsis_os.c ****     }
 1824              		.loc 1 996 13 view .LVU441
 1825 0042 0023     		movs	r3, #0
 1826              	.LVL141:
 996:Middlewares/Third_Party/FreeRTOS/Source/CMSIS_RTOS/cmsis_os.c ****     }
 1827              		.loc 1 996 13 view .LVU442
 1828 0044 F1E7     		b	.L124
 1829              	.LVL142:
ARM GAS  C:\Users\xixi\AppData\Local\Temp\ccei1Zb6.s 			page 59


 1830              	.L132:
1000:Middlewares/Third_Party/FreeRTOS/Source/CMSIS_RTOS/cmsis_os.c ****       pool_id->markers[index] = 1;
 1831              		.loc 1 1000 7 is_stmt 1 view .LVU443
 1832              		.loc 1 1000 31 is_stmt 0 view .LVU444
 1833 0046 0122     		movs	r2, #1
 1834              	.LVL143:
 1835              		.loc 1 1000 31 view .LVU445
 1836 0048 0270     		strb	r2, [r0]
1001:Middlewares/Third_Party/FreeRTOS/Source/CMSIS_RTOS/cmsis_os.c ****       p = (void *)((uint32_t)(pool_id->pool) + (index * pool_id->item_sz));
 1837              		.loc 1 1001 7 is_stmt 1 view .LVU446
 1838              		.loc 1 1001 38 is_stmt 0 view .LVU447
 1839 004a 2668     		ldr	r6, [r4]
 1840              		.loc 1 1001 64 view .LVU448
 1841 004c E268     		ldr	r2, [r4, #12]
 1842              		.loc 1 1001 46 view .LVU449
 1843 004e 03FB0266 		mla	r6, r3, r2, r6
 1844              	.LVL144:
1002:Middlewares/Third_Party/FreeRTOS/Source/CMSIS_RTOS/cmsis_os.c ****       pool_id->currentIndex = index;
 1845              		.loc 1 1002 7 is_stmt 1 view .LVU450
 1846              		.loc 1 1002 29 is_stmt 0 view .LVU451
 1847 0052 2361     		str	r3, [r4, #16]
1003:Middlewares/Third_Party/FreeRTOS/Source/CMSIS_RTOS/cmsis_os.c ****       break;
 1848              		.loc 1 1003 7 is_stmt 1 view .LVU452
 1849 0054 00E0     		b	.L126
 1850              	.LVL145:
 1851              	.L133:
 982:Middlewares/Third_Party/FreeRTOS/Source/CMSIS_RTOS/cmsis_os.c ****   uint32_t i;
 1852              		.loc 1 982 9 is_stmt 0 view .LVU453
 1853 0056 0026     		movs	r6, #0
 1854              	.LVL146:
 1855              	.L126:
1004:Middlewares/Third_Party/FreeRTOS/Source/CMSIS_RTOS/cmsis_os.c ****     }
1005:Middlewares/Third_Party/FreeRTOS/Source/CMSIS_RTOS/cmsis_os.c ****   }
1006:Middlewares/Third_Party/FreeRTOS/Source/CMSIS_RTOS/cmsis_os.c ****   
1007:Middlewares/Third_Party/FreeRTOS/Source/CMSIS_RTOS/cmsis_os.c ****   if (inHandlerMode()) {
 1856              		.loc 1 1007 3 is_stmt 1 view .LVU454
 1857              		.loc 1 1007 7 is_stmt 0 view .LVU455
 1858 0058 FFF7FEFF 		bl	inHandlerMode
 1859              	.LVL147:
 1860              		.loc 1 1007 6 view .LVU456
 1861 005c 18B1     		cbz	r0, .L128
1008:Middlewares/Third_Party/FreeRTOS/Source/CMSIS_RTOS/cmsis_os.c ****     portCLEAR_INTERRUPT_MASK_FROM_ISR(dummy);
 1862              		.loc 1 1008 5 is_stmt 1 view .LVU457
 1863              	.LVL148:
 1864              	.LBB12:
 1865              	.LBI12:
 224:Middlewares/Third_Party/FreeRTOS/Source/portable/GCC/ARM_CM4F/portmacro.h **** }
 225:Middlewares/Third_Party/FreeRTOS/Source/portable/GCC/ARM_CM4F/portmacro.h **** /*-----------------------------------------------------------*/
 226:Middlewares/Third_Party/FreeRTOS/Source/portable/GCC/ARM_CM4F/portmacro.h **** 
 227:Middlewares/Third_Party/FreeRTOS/Source/portable/GCC/ARM_CM4F/portmacro.h **** portFORCE_INLINE static void vPortSetBASEPRI( uint32_t ulNewMaskValue )
 1866              		.loc 3 227 30 view .LVU458
 1867              	.LBB13:
 228:Middlewares/Third_Party/FreeRTOS/Source/portable/GCC/ARM_CM4F/portmacro.h **** {
 229:Middlewares/Third_Party/FreeRTOS/Source/portable/GCC/ARM_CM4F/portmacro.h **** 	__asm volatile
 1868              		.loc 3 229 2 view .LVU459
 1869              		.syntax unified
 1870              	@ 229 "Middlewares/Third_Party/FreeRTOS/Source/portable/GCC/ARM_CM4F/portmacro.h" 1
ARM GAS  C:\Users\xixi\AppData\Local\Temp\ccei1Zb6.s 			page 60


 1871 005e 85F31188 			msr basepri, r5	
 1872              	@ 0 "" 2
 1873              	.LVL149:
 1874              		.thumb
 1875              		.syntax unified
 1876              	.L120:
 1877              		.loc 3 229 2 is_stmt 0 view .LVU460
 1878              	.LBE13:
 1879              	.LBE12:
1009:Middlewares/Third_Party/FreeRTOS/Source/CMSIS_RTOS/cmsis_os.c ****   }
1010:Middlewares/Third_Party/FreeRTOS/Source/CMSIS_RTOS/cmsis_os.c ****   else {
1011:Middlewares/Third_Party/FreeRTOS/Source/CMSIS_RTOS/cmsis_os.c ****     vPortExitCritical();
1012:Middlewares/Third_Party/FreeRTOS/Source/CMSIS_RTOS/cmsis_os.c ****   }
1013:Middlewares/Third_Party/FreeRTOS/Source/CMSIS_RTOS/cmsis_os.c ****   
1014:Middlewares/Third_Party/FreeRTOS/Source/CMSIS_RTOS/cmsis_os.c ****   return p;
1015:Middlewares/Third_Party/FreeRTOS/Source/CMSIS_RTOS/cmsis_os.c **** }
 1880              		.loc 1 1015 1 view .LVU461
 1881 0062 3046     		mov	r0, r6
 1882 0064 70BD     		pop	{r4, r5, r6, pc}
 1883              	.LVL150:
 1884              	.L128:
1011:Middlewares/Third_Party/FreeRTOS/Source/CMSIS_RTOS/cmsis_os.c ****   }
 1885              		.loc 1 1011 5 is_stmt 1 view .LVU462
 1886 0066 FFF7FEFF 		bl	vPortExitCritical
 1887              	.LVL151:
1014:Middlewares/Third_Party/FreeRTOS/Source/CMSIS_RTOS/cmsis_os.c **** }
 1888              		.loc 1 1014 3 view .LVU463
1014:Middlewares/Third_Party/FreeRTOS/Source/CMSIS_RTOS/cmsis_os.c **** }
 1889              		.loc 1 1014 10 is_stmt 0 view .LVU464
 1890 006a FAE7     		b	.L120
 1891              		.cfi_endproc
 1892              	.LFE135:
 1894              		.section	.text.osPoolCAlloc,"ax",%progbits
 1895              		.align	1
 1896              		.global	osPoolCAlloc
 1897              		.syntax unified
 1898              		.thumb
 1899              		.thumb_func
 1901              	osPoolCAlloc:
 1902              	.LVL152:
 1903              	.LFB136:
1016:Middlewares/Third_Party/FreeRTOS/Source/CMSIS_RTOS/cmsis_os.c **** 
1017:Middlewares/Third_Party/FreeRTOS/Source/CMSIS_RTOS/cmsis_os.c **** /**
1018:Middlewares/Third_Party/FreeRTOS/Source/CMSIS_RTOS/cmsis_os.c **** * @brief Allocate a memory block from a memory pool and set memory block to zero
1019:Middlewares/Third_Party/FreeRTOS/Source/CMSIS_RTOS/cmsis_os.c **** * @param  pool_id       memory pool ID obtain referenced with \ref osPoolCreate.
1020:Middlewares/Third_Party/FreeRTOS/Source/CMSIS_RTOS/cmsis_os.c **** * @retval  address of the allocated memory block or NULL in case of no memory available.
1021:Middlewares/Third_Party/FreeRTOS/Source/CMSIS_RTOS/cmsis_os.c **** * @note   MUST REMAIN UNCHANGED: \b osPoolCAlloc shall be consistent in every CMSIS-RTOS.
1022:Middlewares/Third_Party/FreeRTOS/Source/CMSIS_RTOS/cmsis_os.c **** */
1023:Middlewares/Third_Party/FreeRTOS/Source/CMSIS_RTOS/cmsis_os.c **** void *osPoolCAlloc (osPoolId pool_id)
1024:Middlewares/Third_Party/FreeRTOS/Source/CMSIS_RTOS/cmsis_os.c **** {
 1904              		.loc 1 1024 1 is_stmt 1 view -0
 1905              		.cfi_startproc
 1906              		@ args = 0, pretend = 0, frame = 0
 1907              		@ frame_needed = 0, uses_anonymous_args = 0
 1908              		.loc 1 1024 1 is_stmt 0 view .LVU466
 1909 0000 08B5     		push	{r3, lr}
 1910              	.LCFI45:
ARM GAS  C:\Users\xixi\AppData\Local\Temp\ccei1Zb6.s 			page 61


 1911              		.cfi_def_cfa_offset 8
 1912              		.cfi_offset 3, -8
 1913              		.cfi_offset 14, -4
1025:Middlewares/Third_Party/FreeRTOS/Source/CMSIS_RTOS/cmsis_os.c ****   void *p = osPoolAlloc(pool_id);
 1914              		.loc 1 1025 3 is_stmt 1 view .LVU467
 1915              		.loc 1 1025 13 is_stmt 0 view .LVU468
 1916 0002 FFF7FEFF 		bl	osPoolAlloc
 1917              	.LVL153:
1026:Middlewares/Third_Party/FreeRTOS/Source/CMSIS_RTOS/cmsis_os.c ****   
1027:Middlewares/Third_Party/FreeRTOS/Source/CMSIS_RTOS/cmsis_os.c ****   if (p != NULL)
 1918              		.loc 1 1027 3 is_stmt 1 view .LVU469
 1919              		.loc 1 1027 6 is_stmt 0 view .LVU470
 1920 0006 08B1     		cbz	r0, .L134
1028:Middlewares/Third_Party/FreeRTOS/Source/CMSIS_RTOS/cmsis_os.c ****   {
1029:Middlewares/Third_Party/FreeRTOS/Source/CMSIS_RTOS/cmsis_os.c ****     memset(p, 0, sizeof(pool_id->pool_sz));
 1921              		.loc 1 1029 5 is_stmt 1 view .LVU471
 1922 0008 0023     		movs	r3, #0
 1923 000a 0360     		str	r3, [r0]	@ unaligned
1030:Middlewares/Third_Party/FreeRTOS/Source/CMSIS_RTOS/cmsis_os.c ****   }
1031:Middlewares/Third_Party/FreeRTOS/Source/CMSIS_RTOS/cmsis_os.c ****   
1032:Middlewares/Third_Party/FreeRTOS/Source/CMSIS_RTOS/cmsis_os.c ****   return p;
 1924              		.loc 1 1032 3 view .LVU472
 1925              	.L134:
1033:Middlewares/Third_Party/FreeRTOS/Source/CMSIS_RTOS/cmsis_os.c **** }
 1926              		.loc 1 1033 1 is_stmt 0 view .LVU473
 1927 000c 08BD     		pop	{r3, pc}
 1928              		.cfi_endproc
 1929              	.LFE136:
 1931              		.section	.text.osPoolFree,"ax",%progbits
 1932              		.align	1
 1933              		.global	osPoolFree
 1934              		.syntax unified
 1935              		.thumb
 1936              		.thumb_func
 1938              	osPoolFree:
 1939              	.LVL154:
 1940              	.LFB137:
1034:Middlewares/Third_Party/FreeRTOS/Source/CMSIS_RTOS/cmsis_os.c **** 
1035:Middlewares/Third_Party/FreeRTOS/Source/CMSIS_RTOS/cmsis_os.c **** /**
1036:Middlewares/Third_Party/FreeRTOS/Source/CMSIS_RTOS/cmsis_os.c **** * @brief Return an allocated memory block back to a specific memory pool
1037:Middlewares/Third_Party/FreeRTOS/Source/CMSIS_RTOS/cmsis_os.c **** * @param  pool_id       memory pool ID obtain referenced with \ref osPoolCreate.
1038:Middlewares/Third_Party/FreeRTOS/Source/CMSIS_RTOS/cmsis_os.c **** * @param  block         address of the allocated memory block that is returned to the memory pool.
1039:Middlewares/Third_Party/FreeRTOS/Source/CMSIS_RTOS/cmsis_os.c **** * @retval  status code that indicates the execution status of the function.
1040:Middlewares/Third_Party/FreeRTOS/Source/CMSIS_RTOS/cmsis_os.c **** * @note   MUST REMAIN UNCHANGED: \b osPoolFree shall be consistent in every CMSIS-RTOS.
1041:Middlewares/Third_Party/FreeRTOS/Source/CMSIS_RTOS/cmsis_os.c **** */
1042:Middlewares/Third_Party/FreeRTOS/Source/CMSIS_RTOS/cmsis_os.c **** osStatus osPoolFree (osPoolId pool_id, void *block)
1043:Middlewares/Third_Party/FreeRTOS/Source/CMSIS_RTOS/cmsis_os.c **** {
 1941              		.loc 1 1043 1 is_stmt 1 view -0
 1942              		.cfi_startproc
 1943              		@ args = 0, pretend = 0, frame = 0
 1944              		@ frame_needed = 0, uses_anonymous_args = 0
 1945              		@ link register save eliminated.
1044:Middlewares/Third_Party/FreeRTOS/Source/CMSIS_RTOS/cmsis_os.c ****   uint32_t index;
 1946              		.loc 1 1044 3 view .LVU475
1045:Middlewares/Third_Party/FreeRTOS/Source/CMSIS_RTOS/cmsis_os.c ****   
1046:Middlewares/Third_Party/FreeRTOS/Source/CMSIS_RTOS/cmsis_os.c ****   if (pool_id == NULL) {
 1947              		.loc 1 1046 3 view .LVU476
ARM GAS  C:\Users\xixi\AppData\Local\Temp\ccei1Zb6.s 			page 62


 1948              		.loc 1 1046 6 is_stmt 0 view .LVU477
 1949 0000 0346     		mov	r3, r0
 1950 0002 98B1     		cbz	r0, .L139
1047:Middlewares/Third_Party/FreeRTOS/Source/CMSIS_RTOS/cmsis_os.c ****     return osErrorParameter;
1048:Middlewares/Third_Party/FreeRTOS/Source/CMSIS_RTOS/cmsis_os.c ****   }
1049:Middlewares/Third_Party/FreeRTOS/Source/CMSIS_RTOS/cmsis_os.c ****   
1050:Middlewares/Third_Party/FreeRTOS/Source/CMSIS_RTOS/cmsis_os.c ****   if (block == NULL) {
 1951              		.loc 1 1050 3 is_stmt 1 view .LVU478
 1952              		.loc 1 1050 6 is_stmt 0 view .LVU479
 1953 0004 A1B1     		cbz	r1, .L140
1051:Middlewares/Third_Party/FreeRTOS/Source/CMSIS_RTOS/cmsis_os.c ****     return osErrorParameter;
1052:Middlewares/Third_Party/FreeRTOS/Source/CMSIS_RTOS/cmsis_os.c ****   }
1053:Middlewares/Third_Party/FreeRTOS/Source/CMSIS_RTOS/cmsis_os.c ****   
1054:Middlewares/Third_Party/FreeRTOS/Source/CMSIS_RTOS/cmsis_os.c ****   if (block < pool_id->pool) {
 1954              		.loc 1 1054 3 is_stmt 1 view .LVU480
 1955              		.loc 1 1054 22 is_stmt 0 view .LVU481
 1956 0006 0268     		ldr	r2, [r0]
 1957              		.loc 1 1054 6 view .LVU482
 1958 0008 8A42     		cmp	r2, r1
 1959 000a 13D8     		bhi	.L141
1055:Middlewares/Third_Party/FreeRTOS/Source/CMSIS_RTOS/cmsis_os.c ****     return osErrorParameter;
1056:Middlewares/Third_Party/FreeRTOS/Source/CMSIS_RTOS/cmsis_os.c ****   }
1057:Middlewares/Third_Party/FreeRTOS/Source/CMSIS_RTOS/cmsis_os.c ****   
1058:Middlewares/Third_Party/FreeRTOS/Source/CMSIS_RTOS/cmsis_os.c ****   index = (uint32_t)block - (uint32_t)(pool_id->pool);
 1960              		.loc 1 1058 3 is_stmt 1 view .LVU483
 1961              		.loc 1 1058 9 is_stmt 0 view .LVU484
 1962 000c 891A     		subs	r1, r1, r2
 1963              	.LVL155:
1059:Middlewares/Third_Party/FreeRTOS/Source/CMSIS_RTOS/cmsis_os.c ****   if (index % pool_id->item_sz) {
 1964              		.loc 1 1059 3 is_stmt 1 view .LVU485
 1965              		.loc 1 1059 22 is_stmt 0 view .LVU486
 1966 000e C268     		ldr	r2, [r0, #12]
 1967              		.loc 1 1059 13 view .LVU487
 1968 0010 B1FBF2F0 		udiv	r0, r1, r2
 1969              	.LVL156:
 1970              		.loc 1 1059 13 view .LVU488
 1971 0014 02FB1010 		mls	r0, r2, r0, r1
 1972              		.loc 1 1059 6 view .LVU489
 1973 0018 70B9     		cbnz	r0, .L142
1060:Middlewares/Third_Party/FreeRTOS/Source/CMSIS_RTOS/cmsis_os.c ****     return osErrorParameter;
1061:Middlewares/Third_Party/FreeRTOS/Source/CMSIS_RTOS/cmsis_os.c ****   }
1062:Middlewares/Third_Party/FreeRTOS/Source/CMSIS_RTOS/cmsis_os.c ****   index = index / pool_id->item_sz;
 1974              		.loc 1 1062 3 is_stmt 1 view .LVU490
 1975              		.loc 1 1062 9 is_stmt 0 view .LVU491
 1976 001a B1FBF2F1 		udiv	r1, r1, r2
 1977              	.LVL157:
1063:Middlewares/Third_Party/FreeRTOS/Source/CMSIS_RTOS/cmsis_os.c ****   if (index >= pool_id->pool_sz) {
 1978              		.loc 1 1063 3 is_stmt 1 view .LVU492
 1979              		.loc 1 1063 23 is_stmt 0 view .LVU493
 1980 001e 9A68     		ldr	r2, [r3, #8]
 1981              		.loc 1 1063 6 view .LVU494
 1982 0020 8A42     		cmp	r2, r1
 1983 0022 0BD9     		bls	.L143
1064:Middlewares/Third_Party/FreeRTOS/Source/CMSIS_RTOS/cmsis_os.c ****     return osErrorParameter;
1065:Middlewares/Third_Party/FreeRTOS/Source/CMSIS_RTOS/cmsis_os.c ****   }
1066:Middlewares/Third_Party/FreeRTOS/Source/CMSIS_RTOS/cmsis_os.c ****   
1067:Middlewares/Third_Party/FreeRTOS/Source/CMSIS_RTOS/cmsis_os.c ****   pool_id->markers[index] = 0;
ARM GAS  C:\Users\xixi\AppData\Local\Temp\ccei1Zb6.s 			page 63


 1984              		.loc 1 1067 3 is_stmt 1 view .LVU495
 1985              		.loc 1 1067 10 is_stmt 0 view .LVU496
 1986 0024 5B68     		ldr	r3, [r3, #4]
 1987              	.LVL158:
 1988              		.loc 1 1067 27 view .LVU497
 1989 0026 0022     		movs	r2, #0
 1990 0028 5A54     		strb	r2, [r3, r1]
1068:Middlewares/Third_Party/FreeRTOS/Source/CMSIS_RTOS/cmsis_os.c ****   
1069:Middlewares/Third_Party/FreeRTOS/Source/CMSIS_RTOS/cmsis_os.c ****   return osOK;
 1991              		.loc 1 1069 3 is_stmt 1 view .LVU498
 1992              		.loc 1 1069 10 is_stmt 0 view .LVU499
 1993 002a 7047     		bx	lr
 1994              	.LVL159:
 1995              	.L139:
1047:Middlewares/Third_Party/FreeRTOS/Source/CMSIS_RTOS/cmsis_os.c ****   }
 1996              		.loc 1 1047 12 view .LVU500
 1997 002c 8020     		movs	r0, #128
 1998              	.LVL160:
1047:Middlewares/Third_Party/FreeRTOS/Source/CMSIS_RTOS/cmsis_os.c ****   }
 1999              		.loc 1 1047 12 view .LVU501
 2000 002e 7047     		bx	lr
 2001              	.LVL161:
 2002              	.L140:
1051:Middlewares/Third_Party/FreeRTOS/Source/CMSIS_RTOS/cmsis_os.c ****   }
 2003              		.loc 1 1051 12 view .LVU502
 2004 0030 8020     		movs	r0, #128
 2005              	.LVL162:
1051:Middlewares/Third_Party/FreeRTOS/Source/CMSIS_RTOS/cmsis_os.c ****   }
 2006              		.loc 1 1051 12 view .LVU503
 2007 0032 7047     		bx	lr
 2008              	.LVL163:
 2009              	.L141:
1055:Middlewares/Third_Party/FreeRTOS/Source/CMSIS_RTOS/cmsis_os.c ****   }
 2010              		.loc 1 1055 12 view .LVU504
 2011 0034 8020     		movs	r0, #128
 2012              	.LVL164:
1055:Middlewares/Third_Party/FreeRTOS/Source/CMSIS_RTOS/cmsis_os.c ****   }
 2013              		.loc 1 1055 12 view .LVU505
 2014 0036 7047     		bx	lr
 2015              	.LVL165:
 2016              	.L142:
1060:Middlewares/Third_Party/FreeRTOS/Source/CMSIS_RTOS/cmsis_os.c ****   }
 2017              		.loc 1 1060 12 view .LVU506
 2018 0038 8020     		movs	r0, #128
 2019 003a 7047     		bx	lr
 2020              	.L143:
1064:Middlewares/Third_Party/FreeRTOS/Source/CMSIS_RTOS/cmsis_os.c ****   }
 2021              		.loc 1 1064 12 view .LVU507
 2022 003c 8020     		movs	r0, #128
1070:Middlewares/Third_Party/FreeRTOS/Source/CMSIS_RTOS/cmsis_os.c **** }
 2023              		.loc 1 1070 1 view .LVU508
 2024 003e 7047     		bx	lr
 2025              		.cfi_endproc
 2026              	.LFE137:
 2028              		.section	.text.osMessageCreate,"ax",%progbits
 2029              		.align	1
 2030              		.global	osMessageCreate
ARM GAS  C:\Users\xixi\AppData\Local\Temp\ccei1Zb6.s 			page 64


 2031              		.syntax unified
 2032              		.thumb
 2033              		.thumb_func
 2035              	osMessageCreate:
 2036              	.LVL166:
 2037              	.LFB138:
1071:Middlewares/Third_Party/FreeRTOS/Source/CMSIS_RTOS/cmsis_os.c **** 
1072:Middlewares/Third_Party/FreeRTOS/Source/CMSIS_RTOS/cmsis_os.c **** 
1073:Middlewares/Third_Party/FreeRTOS/Source/CMSIS_RTOS/cmsis_os.c **** #endif   /* Use Memory Pool Management */
1074:Middlewares/Third_Party/FreeRTOS/Source/CMSIS_RTOS/cmsis_os.c **** 
1075:Middlewares/Third_Party/FreeRTOS/Source/CMSIS_RTOS/cmsis_os.c **** /*******************   Message Queue Management Functions  *********************/
1076:Middlewares/Third_Party/FreeRTOS/Source/CMSIS_RTOS/cmsis_os.c **** 
1077:Middlewares/Third_Party/FreeRTOS/Source/CMSIS_RTOS/cmsis_os.c **** #if (defined (osFeature_MessageQ)  &&  (osFeature_MessageQ != 0)) /* Use Message Queues */
1078:Middlewares/Third_Party/FreeRTOS/Source/CMSIS_RTOS/cmsis_os.c **** 
1079:Middlewares/Third_Party/FreeRTOS/Source/CMSIS_RTOS/cmsis_os.c **** /**
1080:Middlewares/Third_Party/FreeRTOS/Source/CMSIS_RTOS/cmsis_os.c **** * @brief Create and Initialize a Message Queue
1081:Middlewares/Third_Party/FreeRTOS/Source/CMSIS_RTOS/cmsis_os.c **** * @param queue_def     queue definition referenced with \ref osMessageQ.
1082:Middlewares/Third_Party/FreeRTOS/Source/CMSIS_RTOS/cmsis_os.c **** * @param  thread_id     thread ID (obtained by \ref osThreadCreate or \ref osThreadGetId) or NULL.
1083:Middlewares/Third_Party/FreeRTOS/Source/CMSIS_RTOS/cmsis_os.c **** * @retval  message queue ID for reference by other functions or NULL in case of error.
1084:Middlewares/Third_Party/FreeRTOS/Source/CMSIS_RTOS/cmsis_os.c **** * @note   MUST REMAIN UNCHANGED: \b osMessageCreate shall be consistent in every CMSIS-RTOS.
1085:Middlewares/Third_Party/FreeRTOS/Source/CMSIS_RTOS/cmsis_os.c **** */
1086:Middlewares/Third_Party/FreeRTOS/Source/CMSIS_RTOS/cmsis_os.c **** osMessageQId osMessageCreate (const osMessageQDef_t *queue_def, osThreadId thread_id)
1087:Middlewares/Third_Party/FreeRTOS/Source/CMSIS_RTOS/cmsis_os.c **** {
 2038              		.loc 1 1087 1 is_stmt 1 view -0
 2039              		.cfi_startproc
 2040              		@ args = 0, pretend = 0, frame = 0
 2041              		@ frame_needed = 0, uses_anonymous_args = 0
 2042              		.loc 1 1087 1 is_stmt 0 view .LVU510
 2043 0000 00B5     		push	{lr}
 2044              	.LCFI46:
 2045              		.cfi_def_cfa_offset 4
 2046              		.cfi_offset 14, -4
 2047 0002 83B0     		sub	sp, sp, #12
 2048              	.LCFI47:
 2049              		.cfi_def_cfa_offset 16
1088:Middlewares/Third_Party/FreeRTOS/Source/CMSIS_RTOS/cmsis_os.c ****   (void) thread_id;
 2050              		.loc 1 1088 3 is_stmt 1 view .LVU511
1089:Middlewares/Third_Party/FreeRTOS/Source/CMSIS_RTOS/cmsis_os.c ****   
1090:Middlewares/Third_Party/FreeRTOS/Source/CMSIS_RTOS/cmsis_os.c **** #if( configSUPPORT_STATIC_ALLOCATION == 1 ) && ( configSUPPORT_DYNAMIC_ALLOCATION == 1 )
1091:Middlewares/Third_Party/FreeRTOS/Source/CMSIS_RTOS/cmsis_os.c **** 
1092:Middlewares/Third_Party/FreeRTOS/Source/CMSIS_RTOS/cmsis_os.c ****   if ((queue_def->buffer != NULL) && (queue_def->controlblock != NULL)) {
 2051              		.loc 1 1092 3 view .LVU512
 2052              		.loc 1 1092 17 is_stmt 0 view .LVU513
 2053 0004 8268     		ldr	r2, [r0, #8]
 2054              		.loc 1 1092 6 view .LVU514
 2055 0006 42B1     		cbz	r2, .L145
 2056              		.loc 1 1092 48 discriminator 1 view .LVU515
 2057 0008 C368     		ldr	r3, [r0, #12]
 2058              		.loc 1 1092 35 discriminator 1 view .LVU516
 2059 000a 33B1     		cbz	r3, .L145
1093:Middlewares/Third_Party/FreeRTOS/Source/CMSIS_RTOS/cmsis_os.c ****     return xQueueCreateStatic(queue_def->queue_sz, queue_def->item_sz, queue_def->buffer, queue_def
 2060              		.loc 1 1093 5 is_stmt 1 view .LVU517
 2061              		.loc 1 1093 12 is_stmt 0 view .LVU518
 2062 000c 0021     		movs	r1, #0
 2063              	.LVL167:
 2064              		.loc 1 1093 12 view .LVU519
 2065 000e 0091     		str	r1, [sp]
ARM GAS  C:\Users\xixi\AppData\Local\Temp\ccei1Zb6.s 			page 65


 2066 0010 4168     		ldr	r1, [r0, #4]
 2067 0012 0068     		ldr	r0, [r0]
 2068              	.LVL168:
 2069              		.loc 1 1093 12 view .LVU520
 2070 0014 FFF7FEFF 		bl	xQueueGenericCreateStatic
 2071              	.LVL169:
 2072 0018 04E0     		b	.L144
 2073              	.LVL170:
 2074              	.L145:
1094:Middlewares/Third_Party/FreeRTOS/Source/CMSIS_RTOS/cmsis_os.c ****   }
1095:Middlewares/Third_Party/FreeRTOS/Source/CMSIS_RTOS/cmsis_os.c ****   else {
1096:Middlewares/Third_Party/FreeRTOS/Source/CMSIS_RTOS/cmsis_os.c ****     return xQueueCreate(queue_def->queue_sz, queue_def->item_sz);
 2075              		.loc 1 1096 5 is_stmt 1 view .LVU521
 2076              		.loc 1 1096 12 is_stmt 0 view .LVU522
 2077 001a 0022     		movs	r2, #0
 2078 001c 4168     		ldr	r1, [r0, #4]
 2079              	.LVL171:
 2080              		.loc 1 1096 12 view .LVU523
 2081 001e 0068     		ldr	r0, [r0]
 2082              	.LVL172:
 2083              		.loc 1 1096 12 view .LVU524
 2084 0020 FFF7FEFF 		bl	xQueueGenericCreate
 2085              	.LVL173:
 2086              	.L144:
1097:Middlewares/Third_Party/FreeRTOS/Source/CMSIS_RTOS/cmsis_os.c ****   }
1098:Middlewares/Third_Party/FreeRTOS/Source/CMSIS_RTOS/cmsis_os.c **** #elif ( configSUPPORT_STATIC_ALLOCATION == 1 )
1099:Middlewares/Third_Party/FreeRTOS/Source/CMSIS_RTOS/cmsis_os.c ****   return xQueueCreateStatic(queue_def->queue_sz, queue_def->item_sz, queue_def->buffer, queue_def->
1100:Middlewares/Third_Party/FreeRTOS/Source/CMSIS_RTOS/cmsis_os.c **** #else  
1101:Middlewares/Third_Party/FreeRTOS/Source/CMSIS_RTOS/cmsis_os.c ****   return xQueueCreate(queue_def->queue_sz, queue_def->item_sz);
1102:Middlewares/Third_Party/FreeRTOS/Source/CMSIS_RTOS/cmsis_os.c **** #endif
1103:Middlewares/Third_Party/FreeRTOS/Source/CMSIS_RTOS/cmsis_os.c **** }
 2087              		.loc 1 1103 1 view .LVU525
 2088 0024 03B0     		add	sp, sp, #12
 2089              	.LCFI48:
 2090              		.cfi_def_cfa_offset 4
 2091              		@ sp needed
 2092 0026 5DF804FB 		ldr	pc, [sp], #4
 2093              		.cfi_endproc
 2094              	.LFE138:
 2096              		.section	.text.osMessagePut,"ax",%progbits
 2097              		.align	1
 2098              		.global	osMessagePut
 2099              		.syntax unified
 2100              		.thumb
 2101              		.thumb_func
 2103              	osMessagePut:
 2104              	.LVL174:
 2105              	.LFB139:
1104:Middlewares/Third_Party/FreeRTOS/Source/CMSIS_RTOS/cmsis_os.c **** 
1105:Middlewares/Third_Party/FreeRTOS/Source/CMSIS_RTOS/cmsis_os.c **** /**
1106:Middlewares/Third_Party/FreeRTOS/Source/CMSIS_RTOS/cmsis_os.c **** * @brief Put a Message to a Queue.
1107:Middlewares/Third_Party/FreeRTOS/Source/CMSIS_RTOS/cmsis_os.c **** * @param  queue_id  message queue ID obtained with \ref osMessageCreate.
1108:Middlewares/Third_Party/FreeRTOS/Source/CMSIS_RTOS/cmsis_os.c **** * @param  info      message information.
1109:Middlewares/Third_Party/FreeRTOS/Source/CMSIS_RTOS/cmsis_os.c **** * @param  millisec  timeout value or 0 in case of no time-out.
1110:Middlewares/Third_Party/FreeRTOS/Source/CMSIS_RTOS/cmsis_os.c **** * @retval status code that indicates the execution status of the function.
1111:Middlewares/Third_Party/FreeRTOS/Source/CMSIS_RTOS/cmsis_os.c **** * @note   MUST REMAIN UNCHANGED: \b osMessagePut shall be consistent in every CMSIS-RTOS.
1112:Middlewares/Third_Party/FreeRTOS/Source/CMSIS_RTOS/cmsis_os.c **** */
ARM GAS  C:\Users\xixi\AppData\Local\Temp\ccei1Zb6.s 			page 66


1113:Middlewares/Third_Party/FreeRTOS/Source/CMSIS_RTOS/cmsis_os.c **** osStatus osMessagePut (osMessageQId queue_id, uint32_t info, uint32_t millisec)
1114:Middlewares/Third_Party/FreeRTOS/Source/CMSIS_RTOS/cmsis_os.c **** {
 2106              		.loc 1 1114 1 is_stmt 1 view -0
 2107              		.cfi_startproc
 2108              		@ args = 0, pretend = 0, frame = 16
 2109              		@ frame_needed = 0, uses_anonymous_args = 0
 2110              		.loc 1 1114 1 is_stmt 0 view .LVU527
 2111 0000 30B5     		push	{r4, r5, lr}
 2112              	.LCFI49:
 2113              		.cfi_def_cfa_offset 12
 2114              		.cfi_offset 4, -12
 2115              		.cfi_offset 5, -8
 2116              		.cfi_offset 14, -4
 2117 0002 85B0     		sub	sp, sp, #20
 2118              	.LCFI50:
 2119              		.cfi_def_cfa_offset 32
 2120 0004 0446     		mov	r4, r0
 2121 0006 0191     		str	r1, [sp, #4]
1115:Middlewares/Third_Party/FreeRTOS/Source/CMSIS_RTOS/cmsis_os.c ****   portBASE_TYPE taskWoken = pdFALSE;
 2122              		.loc 1 1115 3 is_stmt 1 view .LVU528
 2123              		.loc 1 1115 17 is_stmt 0 view .LVU529
 2124 0008 0023     		movs	r3, #0
 2125 000a 0393     		str	r3, [sp, #12]
1116:Middlewares/Third_Party/FreeRTOS/Source/CMSIS_RTOS/cmsis_os.c ****   TickType_t ticks;
 2126              		.loc 1 1116 3 is_stmt 1 view .LVU530
1117:Middlewares/Third_Party/FreeRTOS/Source/CMSIS_RTOS/cmsis_os.c ****   
1118:Middlewares/Third_Party/FreeRTOS/Source/CMSIS_RTOS/cmsis_os.c ****   ticks = millisec / portTICK_PERIOD_MS;
 2127              		.loc 1 1118 3 view .LVU531
 2128              	.LVL175:
1119:Middlewares/Third_Party/FreeRTOS/Source/CMSIS_RTOS/cmsis_os.c ****   if (ticks == 0) {
 2129              		.loc 1 1119 3 view .LVU532
 2130              		.loc 1 1119 6 is_stmt 0 view .LVU533
 2131 000c 1546     		mov	r5, r2
 2132 000e 02B9     		cbnz	r2, .L149
1120:Middlewares/Third_Party/FreeRTOS/Source/CMSIS_RTOS/cmsis_os.c ****     ticks = 1;
 2133              		.loc 1 1120 11 view .LVU534
 2134 0010 0125     		movs	r5, #1
 2135              	.L149:
 2136              	.LVL176:
1121:Middlewares/Third_Party/FreeRTOS/Source/CMSIS_RTOS/cmsis_os.c ****   }
1122:Middlewares/Third_Party/FreeRTOS/Source/CMSIS_RTOS/cmsis_os.c ****   
1123:Middlewares/Third_Party/FreeRTOS/Source/CMSIS_RTOS/cmsis_os.c ****   if (inHandlerMode()) {
 2137              		.loc 1 1123 3 is_stmt 1 view .LVU535
 2138              		.loc 1 1123 7 is_stmt 0 view .LVU536
 2139 0012 FFF7FEFF 		bl	inHandlerMode
 2140              	.LVL177:
 2141              		.loc 1 1123 6 view .LVU537
 2142 0016 A8B1     		cbz	r0, .L150
1124:Middlewares/Third_Party/FreeRTOS/Source/CMSIS_RTOS/cmsis_os.c ****     if (xQueueSendFromISR(queue_id, &info, &taskWoken) != pdTRUE) {
 2143              		.loc 1 1124 5 is_stmt 1 view .LVU538
 2144              		.loc 1 1124 9 is_stmt 0 view .LVU539
 2145 0018 0023     		movs	r3, #0
 2146 001a 03AA     		add	r2, sp, #12
 2147 001c 01A9     		add	r1, sp, #4
 2148 001e 2046     		mov	r0, r4
 2149 0020 FFF7FEFF 		bl	xQueueGenericSendFromISR
 2150              	.LVL178:
ARM GAS  C:\Users\xixi\AppData\Local\Temp\ccei1Zb6.s 			page 67


 2151              		.loc 1 1124 8 view .LVU540
 2152 0024 0128     		cmp	r0, #1
 2153 0026 18D1     		bne	.L153
1125:Middlewares/Third_Party/FreeRTOS/Source/CMSIS_RTOS/cmsis_os.c ****       return osErrorOS;
1126:Middlewares/Third_Party/FreeRTOS/Source/CMSIS_RTOS/cmsis_os.c ****     }
1127:Middlewares/Third_Party/FreeRTOS/Source/CMSIS_RTOS/cmsis_os.c ****     portEND_SWITCHING_ISR(taskWoken);
 2154              		.loc 1 1127 5 is_stmt 1 view .LVU541
 2155 0028 039B     		ldr	r3, [sp, #12]
 2156 002a C3B1     		cbz	r3, .L154
 2157              		.loc 1 1127 5 discriminator 1 view .LVU542
 2158 002c 4FF0E023 		mov	r3, #-536813568
 2159 0030 4FF08052 		mov	r2, #268435456
 2160 0034 C3F8042D 		str	r2, [r3, #3332]
 2161              		.loc 1 1127 5 discriminator 1 view .LVU543
 2162              		.syntax unified
 2163              	@ 1127 "Middlewares/Third_Party/FreeRTOS/Source/CMSIS_RTOS/cmsis_os.c" 1
 2164 0038 BFF34F8F 		dsb
 2165              	@ 0 "" 2
 2166              		.loc 1 1127 5 discriminator 1 view .LVU544
 2167              	@ 1127 "Middlewares/Third_Party/FreeRTOS/Source/CMSIS_RTOS/cmsis_os.c" 1
 2168 003c BFF36F8F 		isb
 2169              	@ 0 "" 2
1128:Middlewares/Third_Party/FreeRTOS/Source/CMSIS_RTOS/cmsis_os.c ****   }
1129:Middlewares/Third_Party/FreeRTOS/Source/CMSIS_RTOS/cmsis_os.c ****   else {
1130:Middlewares/Third_Party/FreeRTOS/Source/CMSIS_RTOS/cmsis_os.c ****     if (xQueueSend(queue_id, &info, ticks) != pdTRUE) {
1131:Middlewares/Third_Party/FreeRTOS/Source/CMSIS_RTOS/cmsis_os.c ****       return osErrorOS;
1132:Middlewares/Third_Party/FreeRTOS/Source/CMSIS_RTOS/cmsis_os.c ****     }
1133:Middlewares/Third_Party/FreeRTOS/Source/CMSIS_RTOS/cmsis_os.c ****   }
1134:Middlewares/Third_Party/FreeRTOS/Source/CMSIS_RTOS/cmsis_os.c ****   
1135:Middlewares/Third_Party/FreeRTOS/Source/CMSIS_RTOS/cmsis_os.c ****   return osOK;
 2170              		.loc 1 1135 10 is_stmt 0 discriminator 1 view .LVU545
 2171              		.thumb
 2172              		.syntax unified
 2173 0040 0020     		movs	r0, #0
 2174 0042 08E0     		b	.L148
 2175              	.L150:
1130:Middlewares/Third_Party/FreeRTOS/Source/CMSIS_RTOS/cmsis_os.c ****       return osErrorOS;
 2176              		.loc 1 1130 5 is_stmt 1 view .LVU546
1130:Middlewares/Third_Party/FreeRTOS/Source/CMSIS_RTOS/cmsis_os.c ****       return osErrorOS;
 2177              		.loc 1 1130 9 is_stmt 0 view .LVU547
 2178 0044 0023     		movs	r3, #0
 2179 0046 2A46     		mov	r2, r5
 2180 0048 01A9     		add	r1, sp, #4
 2181 004a 2046     		mov	r0, r4
 2182 004c FFF7FEFF 		bl	xQueueGenericSend
 2183              	.LVL179:
1130:Middlewares/Third_Party/FreeRTOS/Source/CMSIS_RTOS/cmsis_os.c ****       return osErrorOS;
 2184              		.loc 1 1130 8 view .LVU548
 2185 0050 0128     		cmp	r0, #1
 2186 0052 06D1     		bne	.L155
 2187              		.loc 1 1135 10 view .LVU549
 2188 0054 0020     		movs	r0, #0
 2189              	.L148:
1136:Middlewares/Third_Party/FreeRTOS/Source/CMSIS_RTOS/cmsis_os.c **** }
 2190              		.loc 1 1136 1 view .LVU550
 2191 0056 05B0     		add	sp, sp, #20
 2192              	.LCFI51:
ARM GAS  C:\Users\xixi\AppData\Local\Temp\ccei1Zb6.s 			page 68


 2193              		.cfi_remember_state
 2194              		.cfi_def_cfa_offset 12
 2195              		@ sp needed
 2196 0058 30BD     		pop	{r4, r5, pc}
 2197              	.LVL180:
 2198              	.L153:
 2199              	.LCFI52:
 2200              		.cfi_restore_state
1125:Middlewares/Third_Party/FreeRTOS/Source/CMSIS_RTOS/cmsis_os.c ****     }
 2201              		.loc 1 1125 14 view .LVU551
 2202 005a FF20     		movs	r0, #255
 2203 005c FBE7     		b	.L148
 2204              	.L154:
1135:Middlewares/Third_Party/FreeRTOS/Source/CMSIS_RTOS/cmsis_os.c **** }
 2205              		.loc 1 1135 10 view .LVU552
 2206 005e 0020     		movs	r0, #0
 2207 0060 F9E7     		b	.L148
 2208              	.L155:
1131:Middlewares/Third_Party/FreeRTOS/Source/CMSIS_RTOS/cmsis_os.c ****     }
 2209              		.loc 1 1131 14 view .LVU553
 2210 0062 FF20     		movs	r0, #255
 2211 0064 F7E7     		b	.L148
 2212              		.cfi_endproc
 2213              	.LFE139:
 2215              		.section	.text.osMessageGet,"ax",%progbits
 2216              		.align	1
 2217              		.global	osMessageGet
 2218              		.syntax unified
 2219              		.thumb
 2220              		.thumb_func
 2222              	osMessageGet:
 2223              	.LVL181:
 2224              	.LFB140:
1137:Middlewares/Third_Party/FreeRTOS/Source/CMSIS_RTOS/cmsis_os.c **** 
1138:Middlewares/Third_Party/FreeRTOS/Source/CMSIS_RTOS/cmsis_os.c **** /**
1139:Middlewares/Third_Party/FreeRTOS/Source/CMSIS_RTOS/cmsis_os.c **** * @brief Get a Message or Wait for a Message from a Queue.
1140:Middlewares/Third_Party/FreeRTOS/Source/CMSIS_RTOS/cmsis_os.c **** * @param  queue_id  message queue ID obtained with \ref osMessageCreate.
1141:Middlewares/Third_Party/FreeRTOS/Source/CMSIS_RTOS/cmsis_os.c **** * @param  millisec  timeout value or 0 in case of no time-out.
1142:Middlewares/Third_Party/FreeRTOS/Source/CMSIS_RTOS/cmsis_os.c **** * @retval event information that includes status code.
1143:Middlewares/Third_Party/FreeRTOS/Source/CMSIS_RTOS/cmsis_os.c **** * @note   MUST REMAIN UNCHANGED: \b osMessageGet shall be consistent in every CMSIS-RTOS.
1144:Middlewares/Third_Party/FreeRTOS/Source/CMSIS_RTOS/cmsis_os.c **** */
1145:Middlewares/Third_Party/FreeRTOS/Source/CMSIS_RTOS/cmsis_os.c **** osEvent osMessageGet (osMessageQId queue_id, uint32_t millisec)
1146:Middlewares/Third_Party/FreeRTOS/Source/CMSIS_RTOS/cmsis_os.c **** {
 2225              		.loc 1 1146 1 is_stmt 1 view -0
 2226              		.cfi_startproc
 2227              		@ args = 0, pretend = 0, frame = 16
 2228              		@ frame_needed = 0, uses_anonymous_args = 0
 2229              		.loc 1 1146 1 is_stmt 0 view .LVU555
 2230 0000 70B5     		push	{r4, r5, r6, lr}
 2231              	.LCFI53:
 2232              		.cfi_def_cfa_offset 16
 2233              		.cfi_offset 4, -16
 2234              		.cfi_offset 5, -12
 2235              		.cfi_offset 6, -8
 2236              		.cfi_offset 14, -4
 2237 0002 84B0     		sub	sp, sp, #16
 2238              	.LCFI54:
ARM GAS  C:\Users\xixi\AppData\Local\Temp\ccei1Zb6.s 			page 69


 2239              		.cfi_def_cfa_offset 32
 2240 0004 0446     		mov	r4, r0
1147:Middlewares/Third_Party/FreeRTOS/Source/CMSIS_RTOS/cmsis_os.c ****   portBASE_TYPE taskWoken;
 2241              		.loc 1 1147 3 is_stmt 1 view .LVU556
1148:Middlewares/Third_Party/FreeRTOS/Source/CMSIS_RTOS/cmsis_os.c ****   TickType_t ticks;
 2242              		.loc 1 1148 3 view .LVU557
1149:Middlewares/Third_Party/FreeRTOS/Source/CMSIS_RTOS/cmsis_os.c ****   osEvent event;
 2243              		.loc 1 1149 3 view .LVU558
1150:Middlewares/Third_Party/FreeRTOS/Source/CMSIS_RTOS/cmsis_os.c ****   
1151:Middlewares/Third_Party/FreeRTOS/Source/CMSIS_RTOS/cmsis_os.c ****   event.def.message_id = queue_id;
 2244              		.loc 1 1151 3 view .LVU559
 2245              		.loc 1 1151 24 is_stmt 0 view .LVU560
 2246 0006 0291     		str	r1, [sp, #8]
1152:Middlewares/Third_Party/FreeRTOS/Source/CMSIS_RTOS/cmsis_os.c ****   event.value.v = 0;
 2247              		.loc 1 1152 3 is_stmt 1 view .LVU561
 2248              		.loc 1 1152 17 is_stmt 0 view .LVU562
 2249 0008 0023     		movs	r3, #0
 2250 000a 0193     		str	r3, [sp, #4]
1153:Middlewares/Third_Party/FreeRTOS/Source/CMSIS_RTOS/cmsis_os.c ****   
1154:Middlewares/Third_Party/FreeRTOS/Source/CMSIS_RTOS/cmsis_os.c ****   if (queue_id == NULL) {
 2251              		.loc 1 1154 3 is_stmt 1 view .LVU563
 2252              		.loc 1 1154 6 is_stmt 0 view .LVU564
 2253 000c E1B1     		cbz	r1, .L168
 2254 000e 0D46     		mov	r5, r1
 2255 0010 1646     		mov	r6, r2
1155:Middlewares/Third_Party/FreeRTOS/Source/CMSIS_RTOS/cmsis_os.c ****     event.status = osErrorParameter;
1156:Middlewares/Third_Party/FreeRTOS/Source/CMSIS_RTOS/cmsis_os.c ****     return event;
1157:Middlewares/Third_Party/FreeRTOS/Source/CMSIS_RTOS/cmsis_os.c ****   }
1158:Middlewares/Third_Party/FreeRTOS/Source/CMSIS_RTOS/cmsis_os.c ****   
1159:Middlewares/Third_Party/FreeRTOS/Source/CMSIS_RTOS/cmsis_os.c ****   taskWoken = pdFALSE;
 2256              		.loc 1 1159 3 is_stmt 1 view .LVU565
 2257              		.loc 1 1159 13 is_stmt 0 view .LVU566
 2258 0012 0023     		movs	r3, #0
 2259 0014 0393     		str	r3, [sp, #12]
1160:Middlewares/Third_Party/FreeRTOS/Source/CMSIS_RTOS/cmsis_os.c ****   
1161:Middlewares/Third_Party/FreeRTOS/Source/CMSIS_RTOS/cmsis_os.c ****   ticks = 0;
 2260              		.loc 1 1161 3 is_stmt 1 view .LVU567
 2261              	.LVL182:
1162:Middlewares/Third_Party/FreeRTOS/Source/CMSIS_RTOS/cmsis_os.c ****   if (millisec == osWaitForever) {
 2262              		.loc 1 1162 3 view .LVU568
1163:Middlewares/Third_Party/FreeRTOS/Source/CMSIS_RTOS/cmsis_os.c ****     ticks = portMAX_DELAY;
1164:Middlewares/Third_Party/FreeRTOS/Source/CMSIS_RTOS/cmsis_os.c ****   }
1165:Middlewares/Third_Party/FreeRTOS/Source/CMSIS_RTOS/cmsis_os.c ****   else if (millisec != 0) {
1166:Middlewares/Third_Party/FreeRTOS/Source/CMSIS_RTOS/cmsis_os.c ****     ticks = millisec / portTICK_PERIOD_MS;
1167:Middlewares/Third_Party/FreeRTOS/Source/CMSIS_RTOS/cmsis_os.c ****     if (ticks == 0) {
1168:Middlewares/Third_Party/FreeRTOS/Source/CMSIS_RTOS/cmsis_os.c ****       ticks = 1;
1169:Middlewares/Third_Party/FreeRTOS/Source/CMSIS_RTOS/cmsis_os.c ****     }
1170:Middlewares/Third_Party/FreeRTOS/Source/CMSIS_RTOS/cmsis_os.c ****   }
1171:Middlewares/Third_Party/FreeRTOS/Source/CMSIS_RTOS/cmsis_os.c ****   
1172:Middlewares/Third_Party/FreeRTOS/Source/CMSIS_RTOS/cmsis_os.c ****   if (inHandlerMode()) {
 2263              		.loc 1 1172 3 view .LVU569
 2264              		.loc 1 1172 7 is_stmt 0 view .LVU570
 2265 0016 FFF7FEFF 		bl	inHandlerMode
 2266              	.LVL183:
 2267              		.loc 1 1172 6 view .LVU571
 2268 001a 00B3     		cbz	r0, .L160
1173:Middlewares/Third_Party/FreeRTOS/Source/CMSIS_RTOS/cmsis_os.c ****     if (xQueueReceiveFromISR(queue_id, &event.value.v, &taskWoken) == pdTRUE) {
ARM GAS  C:\Users\xixi\AppData\Local\Temp\ccei1Zb6.s 			page 70


 2269              		.loc 1 1173 5 is_stmt 1 view .LVU572
 2270              		.loc 1 1173 9 is_stmt 0 view .LVU573
 2271 001c 03AA     		add	r2, sp, #12
 2272 001e 01A9     		add	r1, sp, #4
 2273 0020 2846     		mov	r0, r5
 2274 0022 FFF7FEFF 		bl	xQueueReceiveFromISR
 2275              	.LVL184:
 2276              		.loc 1 1173 8 view .LVU574
 2277 0026 0128     		cmp	r0, #1
 2278 0028 16D0     		beq	.L169
1174:Middlewares/Third_Party/FreeRTOS/Source/CMSIS_RTOS/cmsis_os.c ****       /* We have mail */
1175:Middlewares/Third_Party/FreeRTOS/Source/CMSIS_RTOS/cmsis_os.c ****       event.status = osEventMessage;
1176:Middlewares/Third_Party/FreeRTOS/Source/CMSIS_RTOS/cmsis_os.c ****     }
1177:Middlewares/Third_Party/FreeRTOS/Source/CMSIS_RTOS/cmsis_os.c ****     else {
1178:Middlewares/Third_Party/FreeRTOS/Source/CMSIS_RTOS/cmsis_os.c ****       event.status = osOK;
 2279              		.loc 1 1178 7 is_stmt 1 view .LVU575
 2280              		.loc 1 1178 20 is_stmt 0 view .LVU576
 2281 002a 0023     		movs	r3, #0
 2282 002c 0093     		str	r3, [sp]
 2283              	.L162:
1179:Middlewares/Third_Party/FreeRTOS/Source/CMSIS_RTOS/cmsis_os.c ****     }
1180:Middlewares/Third_Party/FreeRTOS/Source/CMSIS_RTOS/cmsis_os.c ****     portEND_SWITCHING_ISR(taskWoken);
 2284              		.loc 1 1180 5 is_stmt 1 view .LVU577
 2285 002e 039B     		ldr	r3, [sp, #12]
 2286 0030 FBB1     		cbz	r3, .L163
 2287              		.loc 1 1180 5 discriminator 1 view .LVU578
 2288 0032 4FF0E023 		mov	r3, #-536813568
 2289 0036 4FF08052 		mov	r2, #268435456
 2290 003a C3F8042D 		str	r2, [r3, #3332]
 2291              		.loc 1 1180 5 discriminator 1 view .LVU579
 2292              		.syntax unified
 2293              	@ 1180 "Middlewares/Third_Party/FreeRTOS/Source/CMSIS_RTOS/cmsis_os.c" 1
 2294 003e BFF34F8F 		dsb
 2295              	@ 0 "" 2
 2296              		.loc 1 1180 5 discriminator 1 view .LVU580
 2297              	@ 1180 "Middlewares/Third_Party/FreeRTOS/Source/CMSIS_RTOS/cmsis_os.c" 1
 2298 0042 BFF36F8F 		isb
 2299              	@ 0 "" 2
 2300              		.thumb
 2301              		.syntax unified
 2302 0046 14E0     		b	.L163
 2303              	.LVL185:
 2304              	.L168:
1155:Middlewares/Third_Party/FreeRTOS/Source/CMSIS_RTOS/cmsis_os.c ****     return event;
 2305              		.loc 1 1155 5 view .LVU581
1155:Middlewares/Third_Party/FreeRTOS/Source/CMSIS_RTOS/cmsis_os.c ****     return event;
 2306              		.loc 1 1155 18 is_stmt 0 view .LVU582
 2307 0048 8023     		movs	r3, #128
 2308 004a 0093     		str	r3, [sp]
1156:Middlewares/Third_Party/FreeRTOS/Source/CMSIS_RTOS/cmsis_os.c ****   }
 2309              		.loc 1 1156 5 is_stmt 1 view .LVU583
1156:Middlewares/Third_Party/FreeRTOS/Source/CMSIS_RTOS/cmsis_os.c ****   }
 2310              		.loc 1 1156 12 is_stmt 0 view .LVU584
 2311 004c 6B46     		mov	r3, sp
 2312 004e 93E80700 		ldm	r3, {r0, r1, r2}
 2313              	.LVL186:
1156:Middlewares/Third_Party/FreeRTOS/Source/CMSIS_RTOS/cmsis_os.c ****   }
ARM GAS  C:\Users\xixi\AppData\Local\Temp\ccei1Zb6.s 			page 71


 2314              		.loc 1 1156 12 view .LVU585
 2315 0052 84E80700 		stm	r4, {r0, r1, r2}
 2316 0056 11E0     		b	.L157
 2317              	.LVL187:
 2318              	.L169:
1175:Middlewares/Third_Party/FreeRTOS/Source/CMSIS_RTOS/cmsis_os.c ****     }
 2319              		.loc 1 1175 7 is_stmt 1 view .LVU586
1175:Middlewares/Third_Party/FreeRTOS/Source/CMSIS_RTOS/cmsis_os.c ****     }
 2320              		.loc 1 1175 20 is_stmt 0 view .LVU587
 2321 0058 1023     		movs	r3, #16
 2322 005a 0093     		str	r3, [sp]
 2323 005c E7E7     		b	.L162
 2324              	.L160:
1181:Middlewares/Third_Party/FreeRTOS/Source/CMSIS_RTOS/cmsis_os.c ****   }
1182:Middlewares/Third_Party/FreeRTOS/Source/CMSIS_RTOS/cmsis_os.c ****   else {
1183:Middlewares/Third_Party/FreeRTOS/Source/CMSIS_RTOS/cmsis_os.c ****     if (xQueueReceive(queue_id, &event.value.v, ticks) == pdTRUE) {
 2325              		.loc 1 1183 5 is_stmt 1 view .LVU588
 2326              		.loc 1 1183 9 is_stmt 0 view .LVU589
 2327 005e 3246     		mov	r2, r6
 2328 0060 01A9     		add	r1, sp, #4
 2329 0062 2846     		mov	r0, r5
 2330 0064 FFF7FEFF 		bl	xQueueReceive
 2331              	.LVL188:
 2332              		.loc 1 1183 8 view .LVU590
 2333 0068 0128     		cmp	r0, #1
 2334 006a 0AD0     		beq	.L170
1184:Middlewares/Third_Party/FreeRTOS/Source/CMSIS_RTOS/cmsis_os.c ****       /* We have mail */
1185:Middlewares/Third_Party/FreeRTOS/Source/CMSIS_RTOS/cmsis_os.c ****       event.status = osEventMessage;
1186:Middlewares/Third_Party/FreeRTOS/Source/CMSIS_RTOS/cmsis_os.c ****     }
1187:Middlewares/Third_Party/FreeRTOS/Source/CMSIS_RTOS/cmsis_os.c ****     else {
1188:Middlewares/Third_Party/FreeRTOS/Source/CMSIS_RTOS/cmsis_os.c ****       event.status = (ticks == 0) ? osOK : osEventTimeout;
 2335              		.loc 1 1188 7 is_stmt 1 view .LVU591
 2336              		.loc 1 1188 42 is_stmt 0 view .LVU592
 2337 006c 06B1     		cbz	r6, .L165
 2338 006e 4026     		movs	r6, #64
 2339              	.LVL189:
 2340              	.L165:
 2341              		.loc 1 1188 20 discriminator 4 view .LVU593
 2342 0070 0096     		str	r6, [sp]
 2343              	.L163:
1189:Middlewares/Third_Party/FreeRTOS/Source/CMSIS_RTOS/cmsis_os.c ****     }
1190:Middlewares/Third_Party/FreeRTOS/Source/CMSIS_RTOS/cmsis_os.c ****   }
1191:Middlewares/Third_Party/FreeRTOS/Source/CMSIS_RTOS/cmsis_os.c ****   
1192:Middlewares/Third_Party/FreeRTOS/Source/CMSIS_RTOS/cmsis_os.c ****   return event;
 2344              		.loc 1 1192 3 is_stmt 1 view .LVU594
 2345              		.loc 1 1192 10 is_stmt 0 view .LVU595
 2346 0072 6B46     		mov	r3, sp
 2347 0074 93E80700 		ldm	r3, {r0, r1, r2}
 2348 0078 84E80700 		stm	r4, {r0, r1, r2}
 2349              	.LVL190:
 2350              	.L157:
1193:Middlewares/Third_Party/FreeRTOS/Source/CMSIS_RTOS/cmsis_os.c **** }
 2351              		.loc 1 1193 1 view .LVU596
 2352 007c 2046     		mov	r0, r4
 2353 007e 04B0     		add	sp, sp, #16
 2354              	.LCFI55:
 2355              		.cfi_remember_state
ARM GAS  C:\Users\xixi\AppData\Local\Temp\ccei1Zb6.s 			page 72


 2356              		.cfi_def_cfa_offset 16
 2357              		@ sp needed
 2358 0080 70BD     		pop	{r4, r5, r6, pc}
 2359              	.LVL191:
 2360              	.L170:
 2361              	.LCFI56:
 2362              		.cfi_restore_state
1185:Middlewares/Third_Party/FreeRTOS/Source/CMSIS_RTOS/cmsis_os.c ****     }
 2363              		.loc 1 1185 7 is_stmt 1 view .LVU597
1185:Middlewares/Third_Party/FreeRTOS/Source/CMSIS_RTOS/cmsis_os.c ****     }
 2364              		.loc 1 1185 20 is_stmt 0 view .LVU598
 2365 0082 1023     		movs	r3, #16
 2366 0084 0093     		str	r3, [sp]
 2367 0086 F4E7     		b	.L163
 2368              		.cfi_endproc
 2369              	.LFE140:
 2371              		.section	.text.osMailCreate,"ax",%progbits
 2372              		.align	1
 2373              		.global	osMailCreate
 2374              		.syntax unified
 2375              		.thumb
 2376              		.thumb_func
 2378              	osMailCreate:
 2379              	.LVL192:
 2380              	.LFB141:
1194:Middlewares/Third_Party/FreeRTOS/Source/CMSIS_RTOS/cmsis_os.c **** 
1195:Middlewares/Third_Party/FreeRTOS/Source/CMSIS_RTOS/cmsis_os.c **** #endif     /* Use Message Queues */
1196:Middlewares/Third_Party/FreeRTOS/Source/CMSIS_RTOS/cmsis_os.c **** 
1197:Middlewares/Third_Party/FreeRTOS/Source/CMSIS_RTOS/cmsis_os.c **** /********************   Mail Queue Management Functions  ***********************/
1198:Middlewares/Third_Party/FreeRTOS/Source/CMSIS_RTOS/cmsis_os.c **** #if (defined (osFeature_MailQ)  &&  (osFeature_MailQ != 0))  /* Use Mail Queues */
1199:Middlewares/Third_Party/FreeRTOS/Source/CMSIS_RTOS/cmsis_os.c **** 
1200:Middlewares/Third_Party/FreeRTOS/Source/CMSIS_RTOS/cmsis_os.c **** 
1201:Middlewares/Third_Party/FreeRTOS/Source/CMSIS_RTOS/cmsis_os.c **** typedef struct os_mailQ_cb {
1202:Middlewares/Third_Party/FreeRTOS/Source/CMSIS_RTOS/cmsis_os.c ****   const osMailQDef_t *queue_def;
1203:Middlewares/Third_Party/FreeRTOS/Source/CMSIS_RTOS/cmsis_os.c ****   QueueHandle_t handle;
1204:Middlewares/Third_Party/FreeRTOS/Source/CMSIS_RTOS/cmsis_os.c ****   osPoolId pool;
1205:Middlewares/Third_Party/FreeRTOS/Source/CMSIS_RTOS/cmsis_os.c **** } os_mailQ_cb_t;
1206:Middlewares/Third_Party/FreeRTOS/Source/CMSIS_RTOS/cmsis_os.c **** 
1207:Middlewares/Third_Party/FreeRTOS/Source/CMSIS_RTOS/cmsis_os.c **** /**
1208:Middlewares/Third_Party/FreeRTOS/Source/CMSIS_RTOS/cmsis_os.c **** * @brief Create and Initialize mail queue
1209:Middlewares/Third_Party/FreeRTOS/Source/CMSIS_RTOS/cmsis_os.c **** * @param  queue_def     reference to the mail queue definition obtain with \ref osMailQ
1210:Middlewares/Third_Party/FreeRTOS/Source/CMSIS_RTOS/cmsis_os.c **** * @param   thread_id     thread ID (obtained by \ref osThreadCreate or \ref osThreadGetId) or NULL.
1211:Middlewares/Third_Party/FreeRTOS/Source/CMSIS_RTOS/cmsis_os.c **** * @retval mail queue ID for reference by other functions or NULL in case of error.
1212:Middlewares/Third_Party/FreeRTOS/Source/CMSIS_RTOS/cmsis_os.c **** * @note   MUST REMAIN UNCHANGED: \b osMailCreate shall be consistent in every CMSIS-RTOS.
1213:Middlewares/Third_Party/FreeRTOS/Source/CMSIS_RTOS/cmsis_os.c **** */
1214:Middlewares/Third_Party/FreeRTOS/Source/CMSIS_RTOS/cmsis_os.c **** osMailQId osMailCreate (const osMailQDef_t *queue_def, osThreadId thread_id)
1215:Middlewares/Third_Party/FreeRTOS/Source/CMSIS_RTOS/cmsis_os.c **** {
 2381              		.loc 1 1215 1 is_stmt 1 view -0
 2382              		.cfi_startproc
 2383              		@ args = 0, pretend = 0, frame = 16
 2384              		@ frame_needed = 0, uses_anonymous_args = 0
 2385              		.loc 1 1215 1 is_stmt 0 view .LVU600
 2386 0000 70B5     		push	{r4, r5, r6, lr}
 2387              	.LCFI57:
 2388              		.cfi_def_cfa_offset 16
 2389              		.cfi_offset 4, -16
 2390              		.cfi_offset 5, -12
ARM GAS  C:\Users\xixi\AppData\Local\Temp\ccei1Zb6.s 			page 73


 2391              		.cfi_offset 6, -8
 2392              		.cfi_offset 14, -4
 2393 0002 84B0     		sub	sp, sp, #16
 2394              	.LCFI58:
 2395              		.cfi_def_cfa_offset 32
 2396 0004 0446     		mov	r4, r0
1216:Middlewares/Third_Party/FreeRTOS/Source/CMSIS_RTOS/cmsis_os.c **** #if (configSUPPORT_DYNAMIC_ALLOCATION == 1)
1217:Middlewares/Third_Party/FreeRTOS/Source/CMSIS_RTOS/cmsis_os.c ****   (void) thread_id;
 2397              		.loc 1 1217 3 is_stmt 1 view .LVU601
1218:Middlewares/Third_Party/FreeRTOS/Source/CMSIS_RTOS/cmsis_os.c ****   
1219:Middlewares/Third_Party/FreeRTOS/Source/CMSIS_RTOS/cmsis_os.c ****   osPoolDef_t pool_def = {queue_def->queue_sz, queue_def->item_sz, NULL};
 2398              		.loc 1 1219 3 view .LVU602
 2399              		.loc 1 1219 36 is_stmt 0 view .LVU603
 2400 0006 0368     		ldr	r3, [r0]
 2401              		.loc 1 1219 15 view .LVU604
 2402 0008 0193     		str	r3, [sp, #4]
 2403              		.loc 1 1219 57 view .LVU605
 2404 000a 4368     		ldr	r3, [r0, #4]
 2405              		.loc 1 1219 15 view .LVU606
 2406 000c 0293     		str	r3, [sp, #8]
 2407 000e 0023     		movs	r3, #0
 2408 0010 0393     		str	r3, [sp, #12]
1220:Middlewares/Third_Party/FreeRTOS/Source/CMSIS_RTOS/cmsis_os.c ****   
1221:Middlewares/Third_Party/FreeRTOS/Source/CMSIS_RTOS/cmsis_os.c ****   /* Create a mail queue control block */
1222:Middlewares/Third_Party/FreeRTOS/Source/CMSIS_RTOS/cmsis_os.c **** 
1223:Middlewares/Third_Party/FreeRTOS/Source/CMSIS_RTOS/cmsis_os.c ****   *(queue_def->cb) = pvPortMalloc(sizeof(struct os_mailQ_cb));
 2409              		.loc 1 1223 3 is_stmt 1 view .LVU607
 2410              		.loc 1 1223 14 is_stmt 0 view .LVU608
 2411 0012 8568     		ldr	r5, [r0, #8]
 2412              		.loc 1 1223 22 view .LVU609
 2413 0014 0C20     		movs	r0, #12
 2414              	.LVL193:
 2415              		.loc 1 1223 22 view .LVU610
 2416 0016 FFF7FEFF 		bl	pvPortMalloc
 2417              	.LVL194:
 2418              		.loc 1 1223 20 view .LVU611
 2419 001a 2860     		str	r0, [r5]
1224:Middlewares/Third_Party/FreeRTOS/Source/CMSIS_RTOS/cmsis_os.c **** 
1225:Middlewares/Third_Party/FreeRTOS/Source/CMSIS_RTOS/cmsis_os.c ****   if (*(queue_def->cb) == NULL) {
 2420              		.loc 1 1225 3 is_stmt 1 view .LVU612
 2421              		.loc 1 1225 18 is_stmt 0 view .LVU613
 2422 001c A368     		ldr	r3, [r4, #8]
 2423              		.loc 1 1225 7 view .LVU614
 2424 001e 1D68     		ldr	r5, [r3]
 2425              		.loc 1 1225 6 view .LVU615
 2426 0020 A5B1     		cbz	r5, .L171
1226:Middlewares/Third_Party/FreeRTOS/Source/CMSIS_RTOS/cmsis_os.c ****     return NULL;
1227:Middlewares/Third_Party/FreeRTOS/Source/CMSIS_RTOS/cmsis_os.c ****   }
1228:Middlewares/Third_Party/FreeRTOS/Source/CMSIS_RTOS/cmsis_os.c ****   (*(queue_def->cb))->queue_def = queue_def;
 2427              		.loc 1 1228 3 is_stmt 1 view .LVU616
 2428              		.loc 1 1228 33 is_stmt 0 view .LVU617
 2429 0022 2C60     		str	r4, [r5]
1229:Middlewares/Third_Party/FreeRTOS/Source/CMSIS_RTOS/cmsis_os.c ****   
1230:Middlewares/Third_Party/FreeRTOS/Source/CMSIS_RTOS/cmsis_os.c ****   /* Create a queue in FreeRTOS */
1231:Middlewares/Third_Party/FreeRTOS/Source/CMSIS_RTOS/cmsis_os.c ****   (*(queue_def->cb))->handle = xQueueCreate(queue_def->queue_sz, sizeof(void *));
 2430              		.loc 1 1231 3 is_stmt 1 view .LVU618
 2431              		.loc 1 1231 15 is_stmt 0 view .LVU619
ARM GAS  C:\Users\xixi\AppData\Local\Temp\ccei1Zb6.s 			page 74


 2432 0024 A368     		ldr	r3, [r4, #8]
 2433              		.loc 1 1231 4 view .LVU620
 2434 0026 1D68     		ldr	r5, [r3]
 2435              		.loc 1 1231 32 view .LVU621
 2436 0028 0022     		movs	r2, #0
 2437 002a 0421     		movs	r1, #4
 2438 002c 2068     		ldr	r0, [r4]
 2439 002e FFF7FEFF 		bl	xQueueGenericCreate
 2440              	.LVL195:
 2441              		.loc 1 1231 30 view .LVU622
 2442 0032 6860     		str	r0, [r5, #4]
1232:Middlewares/Third_Party/FreeRTOS/Source/CMSIS_RTOS/cmsis_os.c **** 
1233:Middlewares/Third_Party/FreeRTOS/Source/CMSIS_RTOS/cmsis_os.c **** 
1234:Middlewares/Third_Party/FreeRTOS/Source/CMSIS_RTOS/cmsis_os.c ****   if ((*(queue_def->cb))->handle == NULL) {
 2443              		.loc 1 1234 3 is_stmt 1 view .LVU623
 2444              		.loc 1 1234 19 is_stmt 0 view .LVU624
 2445 0034 A368     		ldr	r3, [r4, #8]
 2446              		.loc 1 1234 8 view .LVU625
 2447 0036 1E68     		ldr	r6, [r3]
 2448              		.loc 1 1234 25 view .LVU626
 2449 0038 7568     		ldr	r5, [r6, #4]
 2450              		.loc 1 1234 6 view .LVU627
 2451 003a 55B1     		cbz	r5, .L175
1235:Middlewares/Third_Party/FreeRTOS/Source/CMSIS_RTOS/cmsis_os.c ****     vPortFree(*(queue_def->cb));
1236:Middlewares/Third_Party/FreeRTOS/Source/CMSIS_RTOS/cmsis_os.c ****     return NULL;
1237:Middlewares/Third_Party/FreeRTOS/Source/CMSIS_RTOS/cmsis_os.c ****   }
1238:Middlewares/Third_Party/FreeRTOS/Source/CMSIS_RTOS/cmsis_os.c ****   
1239:Middlewares/Third_Party/FreeRTOS/Source/CMSIS_RTOS/cmsis_os.c ****   /* Create a mail pool */
1240:Middlewares/Third_Party/FreeRTOS/Source/CMSIS_RTOS/cmsis_os.c ****   (*(queue_def->cb))->pool = osPoolCreate(&pool_def);
 2452              		.loc 1 1240 3 is_stmt 1 view .LVU628
 2453              		.loc 1 1240 30 is_stmt 0 view .LVU629
 2454 003c 01A8     		add	r0, sp, #4
 2455 003e FFF7FEFF 		bl	osPoolCreate
 2456              	.LVL196:
 2457              		.loc 1 1240 28 view .LVU630
 2458 0042 B060     		str	r0, [r6, #8]
1241:Middlewares/Third_Party/FreeRTOS/Source/CMSIS_RTOS/cmsis_os.c ****   if ((*(queue_def->cb))->pool == NULL) {
 2459              		.loc 1 1241 3 is_stmt 1 view .LVU631
 2460              		.loc 1 1241 19 is_stmt 0 view .LVU632
 2461 0044 A368     		ldr	r3, [r4, #8]
 2462              		.loc 1 1241 8 view .LVU633
 2463 0046 1D68     		ldr	r5, [r3]
 2464              		.loc 1 1241 25 view .LVU634
 2465 0048 AC68     		ldr	r4, [r5, #8]
 2466              	.LVL197:
 2467              		.loc 1 1241 6 view .LVU635
 2468 004a 34B1     		cbz	r4, .L176
 2469              	.L171:
1242:Middlewares/Third_Party/FreeRTOS/Source/CMSIS_RTOS/cmsis_os.c ****     //TODO: Delete queue. How to do it in FreeRTOS?
1243:Middlewares/Third_Party/FreeRTOS/Source/CMSIS_RTOS/cmsis_os.c ****     vPortFree(*(queue_def->cb));
1244:Middlewares/Third_Party/FreeRTOS/Source/CMSIS_RTOS/cmsis_os.c ****     return NULL;
1245:Middlewares/Third_Party/FreeRTOS/Source/CMSIS_RTOS/cmsis_os.c ****   }
1246:Middlewares/Third_Party/FreeRTOS/Source/CMSIS_RTOS/cmsis_os.c ****   
1247:Middlewares/Third_Party/FreeRTOS/Source/CMSIS_RTOS/cmsis_os.c ****   return *(queue_def->cb);
1248:Middlewares/Third_Party/FreeRTOS/Source/CMSIS_RTOS/cmsis_os.c **** #else
1249:Middlewares/Third_Party/FreeRTOS/Source/CMSIS_RTOS/cmsis_os.c ****   return NULL;
1250:Middlewares/Third_Party/FreeRTOS/Source/CMSIS_RTOS/cmsis_os.c **** #endif
ARM GAS  C:\Users\xixi\AppData\Local\Temp\ccei1Zb6.s 			page 75


1251:Middlewares/Third_Party/FreeRTOS/Source/CMSIS_RTOS/cmsis_os.c **** }
 2470              		.loc 1 1251 1 view .LVU636
 2471 004c 2846     		mov	r0, r5
 2472 004e 04B0     		add	sp, sp, #16
 2473              	.LCFI59:
 2474              		.cfi_remember_state
 2475              		.cfi_def_cfa_offset 16
 2476              		@ sp needed
 2477 0050 70BD     		pop	{r4, r5, r6, pc}
 2478              	.LVL198:
 2479              	.L175:
 2480              	.LCFI60:
 2481              		.cfi_restore_state
1235:Middlewares/Third_Party/FreeRTOS/Source/CMSIS_RTOS/cmsis_os.c ****     return NULL;
 2482              		.loc 1 1235 5 is_stmt 1 view .LVU637
 2483 0052 3046     		mov	r0, r6
 2484 0054 FFF7FEFF 		bl	vPortFree
 2485              	.LVL199:
1236:Middlewares/Third_Party/FreeRTOS/Source/CMSIS_RTOS/cmsis_os.c ****   }
 2486              		.loc 1 1236 5 view .LVU638
1236:Middlewares/Third_Party/FreeRTOS/Source/CMSIS_RTOS/cmsis_os.c ****   }
 2487              		.loc 1 1236 12 is_stmt 0 view .LVU639
 2488 0058 F8E7     		b	.L171
 2489              	.LVL200:
 2490              	.L176:
1243:Middlewares/Third_Party/FreeRTOS/Source/CMSIS_RTOS/cmsis_os.c ****     return NULL;
 2491              		.loc 1 1243 5 is_stmt 1 view .LVU640
 2492 005a 2846     		mov	r0, r5
 2493 005c FFF7FEFF 		bl	vPortFree
 2494              	.LVL201:
1244:Middlewares/Third_Party/FreeRTOS/Source/CMSIS_RTOS/cmsis_os.c ****   }
 2495              		.loc 1 1244 5 view .LVU641
1244:Middlewares/Third_Party/FreeRTOS/Source/CMSIS_RTOS/cmsis_os.c ****   }
 2496              		.loc 1 1244 12 is_stmt 0 view .LVU642
 2497 0060 2546     		mov	r5, r4
 2498 0062 F3E7     		b	.L171
 2499              		.cfi_endproc
 2500              	.LFE141:
 2502              		.section	.text.osMailAlloc,"ax",%progbits
 2503              		.align	1
 2504              		.global	osMailAlloc
 2505              		.syntax unified
 2506              		.thumb
 2507              		.thumb_func
 2509              	osMailAlloc:
 2510              	.LVL202:
 2511              	.LFB142:
1252:Middlewares/Third_Party/FreeRTOS/Source/CMSIS_RTOS/cmsis_os.c **** 
1253:Middlewares/Third_Party/FreeRTOS/Source/CMSIS_RTOS/cmsis_os.c **** /**
1254:Middlewares/Third_Party/FreeRTOS/Source/CMSIS_RTOS/cmsis_os.c **** * @brief Allocate a memory block from a mail
1255:Middlewares/Third_Party/FreeRTOS/Source/CMSIS_RTOS/cmsis_os.c **** * @param  queue_id      mail queue ID obtained with \ref osMailCreate.
1256:Middlewares/Third_Party/FreeRTOS/Source/CMSIS_RTOS/cmsis_os.c **** * @param  millisec      timeout value or 0 in case of no time-out.
1257:Middlewares/Third_Party/FreeRTOS/Source/CMSIS_RTOS/cmsis_os.c **** * @retval pointer to memory block that can be filled with mail or NULL in case error.
1258:Middlewares/Third_Party/FreeRTOS/Source/CMSIS_RTOS/cmsis_os.c **** * @note   MUST REMAIN UNCHANGED: \b osMailAlloc shall be consistent in every CMSIS-RTOS.
1259:Middlewares/Third_Party/FreeRTOS/Source/CMSIS_RTOS/cmsis_os.c **** */
1260:Middlewares/Third_Party/FreeRTOS/Source/CMSIS_RTOS/cmsis_os.c **** void *osMailAlloc (osMailQId queue_id, uint32_t millisec)
1261:Middlewares/Third_Party/FreeRTOS/Source/CMSIS_RTOS/cmsis_os.c **** {
ARM GAS  C:\Users\xixi\AppData\Local\Temp\ccei1Zb6.s 			page 76


 2512              		.loc 1 1261 1 is_stmt 1 view -0
 2513              		.cfi_startproc
 2514              		@ args = 0, pretend = 0, frame = 0
 2515              		@ frame_needed = 0, uses_anonymous_args = 0
 2516              		.loc 1 1261 1 is_stmt 0 view .LVU644
 2517 0000 08B5     		push	{r3, lr}
 2518              	.LCFI61:
 2519              		.cfi_def_cfa_offset 8
 2520              		.cfi_offset 3, -8
 2521              		.cfi_offset 14, -4
1262:Middlewares/Third_Party/FreeRTOS/Source/CMSIS_RTOS/cmsis_os.c ****   (void) millisec;
 2522              		.loc 1 1262 3 is_stmt 1 view .LVU645
1263:Middlewares/Third_Party/FreeRTOS/Source/CMSIS_RTOS/cmsis_os.c ****   void *p;
 2523              		.loc 1 1263 3 view .LVU646
1264:Middlewares/Third_Party/FreeRTOS/Source/CMSIS_RTOS/cmsis_os.c ****   
1265:Middlewares/Third_Party/FreeRTOS/Source/CMSIS_RTOS/cmsis_os.c ****   
1266:Middlewares/Third_Party/FreeRTOS/Source/CMSIS_RTOS/cmsis_os.c ****   if (queue_id == NULL) {
 2524              		.loc 1 1266 3 view .LVU647
 2525              		.loc 1 1266 6 is_stmt 0 view .LVU648
 2526 0002 10B1     		cbz	r0, .L177
1267:Middlewares/Third_Party/FreeRTOS/Source/CMSIS_RTOS/cmsis_os.c ****     return NULL;
1268:Middlewares/Third_Party/FreeRTOS/Source/CMSIS_RTOS/cmsis_os.c ****   }
1269:Middlewares/Third_Party/FreeRTOS/Source/CMSIS_RTOS/cmsis_os.c ****   
1270:Middlewares/Third_Party/FreeRTOS/Source/CMSIS_RTOS/cmsis_os.c ****   p = osPoolAlloc(queue_id->pool);
 2527              		.loc 1 1270 3 is_stmt 1 view .LVU649
 2528              		.loc 1 1270 7 is_stmt 0 view .LVU650
 2529 0004 8068     		ldr	r0, [r0, #8]
 2530              	.LVL203:
 2531              		.loc 1 1270 7 view .LVU651
 2532 0006 FFF7FEFF 		bl	osPoolAlloc
 2533              	.LVL204:
1271:Middlewares/Third_Party/FreeRTOS/Source/CMSIS_RTOS/cmsis_os.c ****   
1272:Middlewares/Third_Party/FreeRTOS/Source/CMSIS_RTOS/cmsis_os.c ****   return p;
 2534              		.loc 1 1272 3 is_stmt 1 view .LVU652
 2535              	.L177:
1273:Middlewares/Third_Party/FreeRTOS/Source/CMSIS_RTOS/cmsis_os.c **** }
 2536              		.loc 1 1273 1 is_stmt 0 view .LVU653
 2537 000a 08BD     		pop	{r3, pc}
 2538              		.cfi_endproc
 2539              	.LFE142:
 2541              		.section	.text.osMailCAlloc,"ax",%progbits
 2542              		.align	1
 2543              		.global	osMailCAlloc
 2544              		.syntax unified
 2545              		.thumb
 2546              		.thumb_func
 2548              	osMailCAlloc:
 2549              	.LVL205:
 2550              	.LFB143:
1274:Middlewares/Third_Party/FreeRTOS/Source/CMSIS_RTOS/cmsis_os.c **** 
1275:Middlewares/Third_Party/FreeRTOS/Source/CMSIS_RTOS/cmsis_os.c **** /**
1276:Middlewares/Third_Party/FreeRTOS/Source/CMSIS_RTOS/cmsis_os.c **** * @brief Allocate a memory block from a mail and set memory block to zero
1277:Middlewares/Third_Party/FreeRTOS/Source/CMSIS_RTOS/cmsis_os.c **** * @param  queue_id      mail queue ID obtained with \ref osMailCreate.
1278:Middlewares/Third_Party/FreeRTOS/Source/CMSIS_RTOS/cmsis_os.c **** * @param  millisec      timeout value or 0 in case of no time-out.
1279:Middlewares/Third_Party/FreeRTOS/Source/CMSIS_RTOS/cmsis_os.c **** * @retval pointer to memory block that can be filled with mail or NULL in case error.
1280:Middlewares/Third_Party/FreeRTOS/Source/CMSIS_RTOS/cmsis_os.c **** * @note   MUST REMAIN UNCHANGED: \b osMailCAlloc shall be consistent in every CMSIS-RTOS.
1281:Middlewares/Third_Party/FreeRTOS/Source/CMSIS_RTOS/cmsis_os.c **** */
ARM GAS  C:\Users\xixi\AppData\Local\Temp\ccei1Zb6.s 			page 77


1282:Middlewares/Third_Party/FreeRTOS/Source/CMSIS_RTOS/cmsis_os.c **** void *osMailCAlloc (osMailQId queue_id, uint32_t millisec)
1283:Middlewares/Third_Party/FreeRTOS/Source/CMSIS_RTOS/cmsis_os.c **** {
 2551              		.loc 1 1283 1 is_stmt 1 view -0
 2552              		.cfi_startproc
 2553              		@ args = 0, pretend = 0, frame = 0
 2554              		@ frame_needed = 0, uses_anonymous_args = 0
 2555              		.loc 1 1283 1 is_stmt 0 view .LVU655
 2556 0000 10B5     		push	{r4, lr}
 2557              	.LCFI62:
 2558              		.cfi_def_cfa_offset 8
 2559              		.cfi_offset 4, -8
 2560              		.cfi_offset 14, -4
 2561 0002 0446     		mov	r4, r0
1284:Middlewares/Third_Party/FreeRTOS/Source/CMSIS_RTOS/cmsis_os.c ****   uint32_t i;
 2562              		.loc 1 1284 3 is_stmt 1 view .LVU656
1285:Middlewares/Third_Party/FreeRTOS/Source/CMSIS_RTOS/cmsis_os.c ****   void *p = osMailAlloc(queue_id, millisec);
 2563              		.loc 1 1285 3 view .LVU657
 2564              		.loc 1 1285 13 is_stmt 0 view .LVU658
 2565 0004 FFF7FEFF 		bl	osMailAlloc
 2566              	.LVL206:
1286:Middlewares/Third_Party/FreeRTOS/Source/CMSIS_RTOS/cmsis_os.c ****   
1287:Middlewares/Third_Party/FreeRTOS/Source/CMSIS_RTOS/cmsis_os.c ****   if (p) {
 2567              		.loc 1 1287 3 is_stmt 1 view .LVU659
 2568              		.loc 1 1287 6 is_stmt 0 view .LVU660
 2569 0008 0146     		mov	r1, r0
 2570 000a 40B1     		cbz	r0, .L181
1288:Middlewares/Third_Party/FreeRTOS/Source/CMSIS_RTOS/cmsis_os.c ****     for (i = 0; i < queue_id->queue_def->item_sz; i++) {
 2571              		.loc 1 1288 12 view .LVU661
 2572 000c 0023     		movs	r3, #0
 2573 000e 02E0     		b	.L182
 2574              	.LVL207:
 2575              	.L184:
1289:Middlewares/Third_Party/FreeRTOS/Source/CMSIS_RTOS/cmsis_os.c ****       ((uint8_t *)p)[i] = 0;
 2576              		.loc 1 1289 7 is_stmt 1 discriminator 3 view .LVU662
 2577              		.loc 1 1289 25 is_stmt 0 discriminator 3 view .LVU663
 2578 0010 0022     		movs	r2, #0
 2579 0012 CA54     		strb	r2, [r1, r3]
1288:Middlewares/Third_Party/FreeRTOS/Source/CMSIS_RTOS/cmsis_os.c ****     for (i = 0; i < queue_id->queue_def->item_sz; i++) {
 2580              		.loc 1 1288 51 is_stmt 1 discriminator 3 view .LVU664
1288:Middlewares/Third_Party/FreeRTOS/Source/CMSIS_RTOS/cmsis_os.c ****     for (i = 0; i < queue_id->queue_def->item_sz; i++) {
 2581              		.loc 1 1288 52 is_stmt 0 discriminator 3 view .LVU665
 2582 0014 0133     		adds	r3, r3, #1
 2583              	.LVL208:
 2584              	.L182:
1288:Middlewares/Third_Party/FreeRTOS/Source/CMSIS_RTOS/cmsis_os.c ****     for (i = 0; i < queue_id->queue_def->item_sz; i++) {
 2585              		.loc 1 1288 17 is_stmt 1 discriminator 1 view .LVU666
1288:Middlewares/Third_Party/FreeRTOS/Source/CMSIS_RTOS/cmsis_os.c ****     for (i = 0; i < queue_id->queue_def->item_sz; i++) {
 2586              		.loc 1 1288 29 is_stmt 0 discriminator 1 view .LVU667
 2587 0016 2268     		ldr	r2, [r4]
1288:Middlewares/Third_Party/FreeRTOS/Source/CMSIS_RTOS/cmsis_os.c ****     for (i = 0; i < queue_id->queue_def->item_sz; i++) {
 2588              		.loc 1 1288 40 discriminator 1 view .LVU668
 2589 0018 5268     		ldr	r2, [r2, #4]
1288:Middlewares/Third_Party/FreeRTOS/Source/CMSIS_RTOS/cmsis_os.c ****     for (i = 0; i < queue_id->queue_def->item_sz; i++) {
 2590              		.loc 1 1288 5 discriminator 1 view .LVU669
 2591 001a 9A42     		cmp	r2, r3
 2592 001c F8D8     		bhi	.L184
 2593              	.LVL209:
ARM GAS  C:\Users\xixi\AppData\Local\Temp\ccei1Zb6.s 			page 78


 2594              	.L181:
1290:Middlewares/Third_Party/FreeRTOS/Source/CMSIS_RTOS/cmsis_os.c ****     }
1291:Middlewares/Third_Party/FreeRTOS/Source/CMSIS_RTOS/cmsis_os.c ****   }
1292:Middlewares/Third_Party/FreeRTOS/Source/CMSIS_RTOS/cmsis_os.c ****   
1293:Middlewares/Third_Party/FreeRTOS/Source/CMSIS_RTOS/cmsis_os.c ****   return p;
1294:Middlewares/Third_Party/FreeRTOS/Source/CMSIS_RTOS/cmsis_os.c **** }
 2595              		.loc 1 1294 1 view .LVU670
 2596 001e 0846     		mov	r0, r1
 2597              	.LVL210:
 2598              		.loc 1 1294 1 view .LVU671
 2599 0020 10BD     		pop	{r4, pc}
 2600              		.loc 1 1294 1 view .LVU672
 2601              		.cfi_endproc
 2602              	.LFE143:
 2604              		.section	.text.osMailPut,"ax",%progbits
 2605              		.align	1
 2606              		.global	osMailPut
 2607              		.syntax unified
 2608              		.thumb
 2609              		.thumb_func
 2611              	osMailPut:
 2612              	.LVL211:
 2613              	.LFB144:
1295:Middlewares/Third_Party/FreeRTOS/Source/CMSIS_RTOS/cmsis_os.c **** 
1296:Middlewares/Third_Party/FreeRTOS/Source/CMSIS_RTOS/cmsis_os.c **** /**
1297:Middlewares/Third_Party/FreeRTOS/Source/CMSIS_RTOS/cmsis_os.c **** * @brief Put a mail to a queue
1298:Middlewares/Third_Party/FreeRTOS/Source/CMSIS_RTOS/cmsis_os.c **** * @param  queue_id      mail queue ID obtained with \ref osMailCreate.
1299:Middlewares/Third_Party/FreeRTOS/Source/CMSIS_RTOS/cmsis_os.c **** * @param  mail          memory block previously allocated with \ref osMailAlloc or \ref osMailCAllo
1300:Middlewares/Third_Party/FreeRTOS/Source/CMSIS_RTOS/cmsis_os.c **** * @retval status code that indicates the execution status of the function.
1301:Middlewares/Third_Party/FreeRTOS/Source/CMSIS_RTOS/cmsis_os.c **** * @note   MUST REMAIN UNCHANGED: \b osMailPut shall be consistent in every CMSIS-RTOS.
1302:Middlewares/Third_Party/FreeRTOS/Source/CMSIS_RTOS/cmsis_os.c **** */
1303:Middlewares/Third_Party/FreeRTOS/Source/CMSIS_RTOS/cmsis_os.c **** osStatus osMailPut (osMailQId queue_id, void *mail)
1304:Middlewares/Third_Party/FreeRTOS/Source/CMSIS_RTOS/cmsis_os.c **** {
 2614              		.loc 1 1304 1 is_stmt 1 view -0
 2615              		.cfi_startproc
 2616              		@ args = 0, pretend = 0, frame = 16
 2617              		@ frame_needed = 0, uses_anonymous_args = 0
 2618              		.loc 1 1304 1 is_stmt 0 view .LVU674
 2619 0000 10B5     		push	{r4, lr}
 2620              	.LCFI63:
 2621              		.cfi_def_cfa_offset 8
 2622              		.cfi_offset 4, -8
 2623              		.cfi_offset 14, -4
 2624 0002 84B0     		sub	sp, sp, #16
 2625              	.LCFI64:
 2626              		.cfi_def_cfa_offset 24
 2627 0004 0191     		str	r1, [sp, #4]
1305:Middlewares/Third_Party/FreeRTOS/Source/CMSIS_RTOS/cmsis_os.c ****   portBASE_TYPE taskWoken;
 2628              		.loc 1 1305 3 is_stmt 1 view .LVU675
1306:Middlewares/Third_Party/FreeRTOS/Source/CMSIS_RTOS/cmsis_os.c ****   
1307:Middlewares/Third_Party/FreeRTOS/Source/CMSIS_RTOS/cmsis_os.c ****   
1308:Middlewares/Third_Party/FreeRTOS/Source/CMSIS_RTOS/cmsis_os.c ****   if (queue_id == NULL) {
 2629              		.loc 1 1308 3 view .LVU676
 2630              		.loc 1 1308 6 is_stmt 0 view .LVU677
 2631 0006 30B3     		cbz	r0, .L190
 2632 0008 0446     		mov	r4, r0
1309:Middlewares/Third_Party/FreeRTOS/Source/CMSIS_RTOS/cmsis_os.c ****     return osErrorParameter;
ARM GAS  C:\Users\xixi\AppData\Local\Temp\ccei1Zb6.s 			page 79


1310:Middlewares/Third_Party/FreeRTOS/Source/CMSIS_RTOS/cmsis_os.c ****   }
1311:Middlewares/Third_Party/FreeRTOS/Source/CMSIS_RTOS/cmsis_os.c ****   
1312:Middlewares/Third_Party/FreeRTOS/Source/CMSIS_RTOS/cmsis_os.c ****   taskWoken = pdFALSE;
 2633              		.loc 1 1312 3 is_stmt 1 view .LVU678
 2634              		.loc 1 1312 13 is_stmt 0 view .LVU679
 2635 000a 0023     		movs	r3, #0
 2636 000c 0393     		str	r3, [sp, #12]
1313:Middlewares/Third_Party/FreeRTOS/Source/CMSIS_RTOS/cmsis_os.c ****   
1314:Middlewares/Third_Party/FreeRTOS/Source/CMSIS_RTOS/cmsis_os.c ****   if (inHandlerMode()) {
 2637              		.loc 1 1314 3 is_stmt 1 view .LVU680
 2638              		.loc 1 1314 7 is_stmt 0 view .LVU681
 2639 000e FFF7FEFF 		bl	inHandlerMode
 2640              	.LVL212:
 2641              		.loc 1 1314 6 view .LVU682
 2642 0012 A8B1     		cbz	r0, .L189
1315:Middlewares/Third_Party/FreeRTOS/Source/CMSIS_RTOS/cmsis_os.c ****     if (xQueueSendFromISR(queue_id->handle, &mail, &taskWoken) != pdTRUE) {
 2643              		.loc 1 1315 5 is_stmt 1 view .LVU683
 2644              		.loc 1 1315 9 is_stmt 0 view .LVU684
 2645 0014 0023     		movs	r3, #0
 2646 0016 03AA     		add	r2, sp, #12
 2647 0018 01A9     		add	r1, sp, #4
 2648 001a 6068     		ldr	r0, [r4, #4]
 2649 001c FFF7FEFF 		bl	xQueueGenericSendFromISR
 2650              	.LVL213:
 2651              		.loc 1 1315 8 view .LVU685
 2652 0020 0128     		cmp	r0, #1
 2653 0022 1AD1     		bne	.L191
1316:Middlewares/Third_Party/FreeRTOS/Source/CMSIS_RTOS/cmsis_os.c ****       return osErrorOS;
1317:Middlewares/Third_Party/FreeRTOS/Source/CMSIS_RTOS/cmsis_os.c ****     }
1318:Middlewares/Third_Party/FreeRTOS/Source/CMSIS_RTOS/cmsis_os.c ****     portEND_SWITCHING_ISR(taskWoken);
 2654              		.loc 1 1318 5 is_stmt 1 view .LVU686
 2655 0024 039B     		ldr	r3, [sp, #12]
 2656 0026 D3B1     		cbz	r3, .L192
 2657              		.loc 1 1318 5 discriminator 1 view .LVU687
 2658 0028 4FF0E023 		mov	r3, #-536813568
 2659 002c 4FF08052 		mov	r2, #268435456
 2660 0030 C3F8042D 		str	r2, [r3, #3332]
 2661              		.loc 1 1318 5 discriminator 1 view .LVU688
 2662              		.syntax unified
 2663              	@ 1318 "Middlewares/Third_Party/FreeRTOS/Source/CMSIS_RTOS/cmsis_os.c" 1
 2664 0034 BFF34F8F 		dsb
 2665              	@ 0 "" 2
 2666              		.loc 1 1318 5 discriminator 1 view .LVU689
 2667              	@ 1318 "Middlewares/Third_Party/FreeRTOS/Source/CMSIS_RTOS/cmsis_os.c" 1
 2668 0038 BFF36F8F 		isb
 2669              	@ 0 "" 2
1319:Middlewares/Third_Party/FreeRTOS/Source/CMSIS_RTOS/cmsis_os.c ****   }
1320:Middlewares/Third_Party/FreeRTOS/Source/CMSIS_RTOS/cmsis_os.c ****   else {
1321:Middlewares/Third_Party/FreeRTOS/Source/CMSIS_RTOS/cmsis_os.c ****     if (xQueueSend(queue_id->handle, &mail, 0) != pdTRUE) { 
1322:Middlewares/Third_Party/FreeRTOS/Source/CMSIS_RTOS/cmsis_os.c ****       return osErrorOS;
1323:Middlewares/Third_Party/FreeRTOS/Source/CMSIS_RTOS/cmsis_os.c ****     }
1324:Middlewares/Third_Party/FreeRTOS/Source/CMSIS_RTOS/cmsis_os.c ****   }
1325:Middlewares/Third_Party/FreeRTOS/Source/CMSIS_RTOS/cmsis_os.c ****   
1326:Middlewares/Third_Party/FreeRTOS/Source/CMSIS_RTOS/cmsis_os.c ****   return osOK;
 2670              		.loc 1 1326 10 is_stmt 0 discriminator 1 view .LVU690
 2671              		.thumb
 2672              		.syntax unified
ARM GAS  C:\Users\xixi\AppData\Local\Temp\ccei1Zb6.s 			page 80


 2673 003c 0020     		movs	r0, #0
 2674 003e 08E0     		b	.L187
 2675              	.L189:
1321:Middlewares/Third_Party/FreeRTOS/Source/CMSIS_RTOS/cmsis_os.c ****       return osErrorOS;
 2676              		.loc 1 1321 5 is_stmt 1 view .LVU691
1321:Middlewares/Third_Party/FreeRTOS/Source/CMSIS_RTOS/cmsis_os.c ****       return osErrorOS;
 2677              		.loc 1 1321 9 is_stmt 0 view .LVU692
 2678 0040 0023     		movs	r3, #0
 2679 0042 1A46     		mov	r2, r3
 2680 0044 01A9     		add	r1, sp, #4
 2681 0046 6068     		ldr	r0, [r4, #4]
 2682 0048 FFF7FEFF 		bl	xQueueGenericSend
 2683              	.LVL214:
1321:Middlewares/Third_Party/FreeRTOS/Source/CMSIS_RTOS/cmsis_os.c ****       return osErrorOS;
 2684              		.loc 1 1321 8 view .LVU693
 2685 004c 0128     		cmp	r0, #1
 2686 004e 08D1     		bne	.L193
 2687              		.loc 1 1326 10 view .LVU694
 2688 0050 0020     		movs	r0, #0
 2689              	.LVL215:
 2690              	.L187:
1327:Middlewares/Third_Party/FreeRTOS/Source/CMSIS_RTOS/cmsis_os.c **** }
 2691              		.loc 1 1327 1 view .LVU695
 2692 0052 04B0     		add	sp, sp, #16
 2693              	.LCFI65:
 2694              		.cfi_remember_state
 2695              		.cfi_def_cfa_offset 8
 2696              		@ sp needed
 2697 0054 10BD     		pop	{r4, pc}
 2698              	.LVL216:
 2699              	.L190:
 2700              	.LCFI66:
 2701              		.cfi_restore_state
1309:Middlewares/Third_Party/FreeRTOS/Source/CMSIS_RTOS/cmsis_os.c ****   }
 2702              		.loc 1 1309 12 view .LVU696
 2703 0056 8020     		movs	r0, #128
 2704              	.LVL217:
1309:Middlewares/Third_Party/FreeRTOS/Source/CMSIS_RTOS/cmsis_os.c ****   }
 2705              		.loc 1 1309 12 view .LVU697
 2706 0058 FBE7     		b	.L187
 2707              	.LVL218:
 2708              	.L191:
1316:Middlewares/Third_Party/FreeRTOS/Source/CMSIS_RTOS/cmsis_os.c ****     }
 2709              		.loc 1 1316 14 view .LVU698
 2710 005a FF20     		movs	r0, #255
 2711 005c F9E7     		b	.L187
 2712              	.L192:
1326:Middlewares/Third_Party/FreeRTOS/Source/CMSIS_RTOS/cmsis_os.c **** }
 2713              		.loc 1 1326 10 view .LVU699
 2714 005e 0020     		movs	r0, #0
 2715 0060 F7E7     		b	.L187
 2716              	.L193:
1322:Middlewares/Third_Party/FreeRTOS/Source/CMSIS_RTOS/cmsis_os.c ****     }
 2717              		.loc 1 1322 14 view .LVU700
 2718 0062 FF20     		movs	r0, #255
 2719 0064 F5E7     		b	.L187
 2720              		.cfi_endproc
ARM GAS  C:\Users\xixi\AppData\Local\Temp\ccei1Zb6.s 			page 81


 2721              	.LFE144:
 2723              		.section	.text.osMailGet,"ax",%progbits
 2724              		.align	1
 2725              		.global	osMailGet
 2726              		.syntax unified
 2727              		.thumb
 2728              		.thumb_func
 2730              	osMailGet:
 2731              	.LVL219:
 2732              	.LFB145:
1328:Middlewares/Third_Party/FreeRTOS/Source/CMSIS_RTOS/cmsis_os.c **** 
1329:Middlewares/Third_Party/FreeRTOS/Source/CMSIS_RTOS/cmsis_os.c **** /**
1330:Middlewares/Third_Party/FreeRTOS/Source/CMSIS_RTOS/cmsis_os.c **** * @brief Get a mail from a queue
1331:Middlewares/Third_Party/FreeRTOS/Source/CMSIS_RTOS/cmsis_os.c **** * @param  queue_id   mail queue ID obtained with \ref osMailCreate.
1332:Middlewares/Third_Party/FreeRTOS/Source/CMSIS_RTOS/cmsis_os.c **** * @param millisec    timeout value or 0 in case of no time-out
1333:Middlewares/Third_Party/FreeRTOS/Source/CMSIS_RTOS/cmsis_os.c **** * @retval event that contains mail information or error code.
1334:Middlewares/Third_Party/FreeRTOS/Source/CMSIS_RTOS/cmsis_os.c **** * @note   MUST REMAIN UNCHANGED: \b osMailGet shall be consistent in every CMSIS-RTOS.
1335:Middlewares/Third_Party/FreeRTOS/Source/CMSIS_RTOS/cmsis_os.c **** */
1336:Middlewares/Third_Party/FreeRTOS/Source/CMSIS_RTOS/cmsis_os.c **** osEvent osMailGet (osMailQId queue_id, uint32_t millisec)
1337:Middlewares/Third_Party/FreeRTOS/Source/CMSIS_RTOS/cmsis_os.c **** {
 2733              		.loc 1 1337 1 is_stmt 1 view -0
 2734              		.cfi_startproc
 2735              		@ args = 0, pretend = 0, frame = 16
 2736              		@ frame_needed = 0, uses_anonymous_args = 0
 2737              		.loc 1 1337 1 is_stmt 0 view .LVU702
 2738 0000 70B5     		push	{r4, r5, r6, lr}
 2739              	.LCFI67:
 2740              		.cfi_def_cfa_offset 16
 2741              		.cfi_offset 4, -16
 2742              		.cfi_offset 5, -12
 2743              		.cfi_offset 6, -8
 2744              		.cfi_offset 14, -4
 2745 0002 84B0     		sub	sp, sp, #16
 2746              	.LCFI68:
 2747              		.cfi_def_cfa_offset 32
 2748 0004 0446     		mov	r4, r0
1338:Middlewares/Third_Party/FreeRTOS/Source/CMSIS_RTOS/cmsis_os.c ****   portBASE_TYPE taskWoken;
 2749              		.loc 1 1338 3 is_stmt 1 view .LVU703
1339:Middlewares/Third_Party/FreeRTOS/Source/CMSIS_RTOS/cmsis_os.c ****   TickType_t ticks;
 2750              		.loc 1 1339 3 view .LVU704
1340:Middlewares/Third_Party/FreeRTOS/Source/CMSIS_RTOS/cmsis_os.c ****   osEvent event;
 2751              		.loc 1 1340 3 view .LVU705
1341:Middlewares/Third_Party/FreeRTOS/Source/CMSIS_RTOS/cmsis_os.c ****   
1342:Middlewares/Third_Party/FreeRTOS/Source/CMSIS_RTOS/cmsis_os.c ****   event.def.mail_id = queue_id;
 2752              		.loc 1 1342 3 view .LVU706
 2753              		.loc 1 1342 21 is_stmt 0 view .LVU707
 2754 0006 0291     		str	r1, [sp, #8]
1343:Middlewares/Third_Party/FreeRTOS/Source/CMSIS_RTOS/cmsis_os.c ****   
1344:Middlewares/Third_Party/FreeRTOS/Source/CMSIS_RTOS/cmsis_os.c ****   if (queue_id == NULL) {
 2755              		.loc 1 1344 3 is_stmt 1 view .LVU708
 2756              		.loc 1 1344 6 is_stmt 0 view .LVU709
 2757 0008 E1B1     		cbz	r1, .L206
 2758 000a 0D46     		mov	r5, r1
 2759 000c 1646     		mov	r6, r2
1345:Middlewares/Third_Party/FreeRTOS/Source/CMSIS_RTOS/cmsis_os.c ****     event.status = osErrorParameter;
1346:Middlewares/Third_Party/FreeRTOS/Source/CMSIS_RTOS/cmsis_os.c ****     return event;
1347:Middlewares/Third_Party/FreeRTOS/Source/CMSIS_RTOS/cmsis_os.c ****   }
ARM GAS  C:\Users\xixi\AppData\Local\Temp\ccei1Zb6.s 			page 82


1348:Middlewares/Third_Party/FreeRTOS/Source/CMSIS_RTOS/cmsis_os.c ****   
1349:Middlewares/Third_Party/FreeRTOS/Source/CMSIS_RTOS/cmsis_os.c ****   taskWoken = pdFALSE;
 2760              		.loc 1 1349 3 is_stmt 1 view .LVU710
 2761              		.loc 1 1349 13 is_stmt 0 view .LVU711
 2762 000e 0023     		movs	r3, #0
 2763 0010 0393     		str	r3, [sp, #12]
1350:Middlewares/Third_Party/FreeRTOS/Source/CMSIS_RTOS/cmsis_os.c ****   
1351:Middlewares/Third_Party/FreeRTOS/Source/CMSIS_RTOS/cmsis_os.c ****   ticks = 0;
 2764              		.loc 1 1351 3 is_stmt 1 view .LVU712
 2765              	.LVL220:
1352:Middlewares/Third_Party/FreeRTOS/Source/CMSIS_RTOS/cmsis_os.c ****   if (millisec == osWaitForever) {
 2766              		.loc 1 1352 3 view .LVU713
1353:Middlewares/Third_Party/FreeRTOS/Source/CMSIS_RTOS/cmsis_os.c ****     ticks = portMAX_DELAY;
1354:Middlewares/Third_Party/FreeRTOS/Source/CMSIS_RTOS/cmsis_os.c ****   }
1355:Middlewares/Third_Party/FreeRTOS/Source/CMSIS_RTOS/cmsis_os.c ****   else if (millisec != 0) {
1356:Middlewares/Third_Party/FreeRTOS/Source/CMSIS_RTOS/cmsis_os.c ****     ticks = millisec / portTICK_PERIOD_MS;
1357:Middlewares/Third_Party/FreeRTOS/Source/CMSIS_RTOS/cmsis_os.c ****     if (ticks == 0) {
1358:Middlewares/Third_Party/FreeRTOS/Source/CMSIS_RTOS/cmsis_os.c ****       ticks = 1;
1359:Middlewares/Third_Party/FreeRTOS/Source/CMSIS_RTOS/cmsis_os.c ****     }
1360:Middlewares/Third_Party/FreeRTOS/Source/CMSIS_RTOS/cmsis_os.c ****   }
1361:Middlewares/Third_Party/FreeRTOS/Source/CMSIS_RTOS/cmsis_os.c ****   
1362:Middlewares/Third_Party/FreeRTOS/Source/CMSIS_RTOS/cmsis_os.c ****   if (inHandlerMode()) {
 2767              		.loc 1 1362 3 view .LVU714
 2768              		.loc 1 1362 7 is_stmt 0 view .LVU715
 2769 0012 FFF7FEFF 		bl	inHandlerMode
 2770              	.LVL221:
 2771              		.loc 1 1362 6 view .LVU716
 2772 0016 00B3     		cbz	r0, .L198
1363:Middlewares/Third_Party/FreeRTOS/Source/CMSIS_RTOS/cmsis_os.c ****     if (xQueueReceiveFromISR(queue_id->handle, &event.value.p, &taskWoken) == pdTRUE) {
 2773              		.loc 1 1363 5 is_stmt 1 view .LVU717
 2774              		.loc 1 1363 9 is_stmt 0 view .LVU718
 2775 0018 03AA     		add	r2, sp, #12
 2776 001a 01A9     		add	r1, sp, #4
 2777 001c 6868     		ldr	r0, [r5, #4]
 2778 001e FFF7FEFF 		bl	xQueueReceiveFromISR
 2779              	.LVL222:
 2780              		.loc 1 1363 8 view .LVU719
 2781 0022 0128     		cmp	r0, #1
 2782 0024 16D0     		beq	.L207
1364:Middlewares/Third_Party/FreeRTOS/Source/CMSIS_RTOS/cmsis_os.c ****       /* We have mail */
1365:Middlewares/Third_Party/FreeRTOS/Source/CMSIS_RTOS/cmsis_os.c ****       event.status = osEventMail;
1366:Middlewares/Third_Party/FreeRTOS/Source/CMSIS_RTOS/cmsis_os.c ****     }
1367:Middlewares/Third_Party/FreeRTOS/Source/CMSIS_RTOS/cmsis_os.c ****     else {
1368:Middlewares/Third_Party/FreeRTOS/Source/CMSIS_RTOS/cmsis_os.c ****       event.status = osOK;
 2783              		.loc 1 1368 7 is_stmt 1 view .LVU720
 2784              		.loc 1 1368 20 is_stmt 0 view .LVU721
 2785 0026 0023     		movs	r3, #0
 2786 0028 0093     		str	r3, [sp]
 2787              	.L200:
1369:Middlewares/Third_Party/FreeRTOS/Source/CMSIS_RTOS/cmsis_os.c ****     }
1370:Middlewares/Third_Party/FreeRTOS/Source/CMSIS_RTOS/cmsis_os.c ****     portEND_SWITCHING_ISR(taskWoken);
 2788              		.loc 1 1370 5 is_stmt 1 view .LVU722
 2789 002a 039B     		ldr	r3, [sp, #12]
 2790 002c FBB1     		cbz	r3, .L201
 2791              		.loc 1 1370 5 discriminator 1 view .LVU723
 2792 002e 4FF0E023 		mov	r3, #-536813568
 2793 0032 4FF08052 		mov	r2, #268435456
ARM GAS  C:\Users\xixi\AppData\Local\Temp\ccei1Zb6.s 			page 83


 2794 0036 C3F8042D 		str	r2, [r3, #3332]
 2795              		.loc 1 1370 5 discriminator 1 view .LVU724
 2796              		.syntax unified
 2797              	@ 1370 "Middlewares/Third_Party/FreeRTOS/Source/CMSIS_RTOS/cmsis_os.c" 1
 2798 003a BFF34F8F 		dsb
 2799              	@ 0 "" 2
 2800              		.loc 1 1370 5 discriminator 1 view .LVU725
 2801              	@ 1370 "Middlewares/Third_Party/FreeRTOS/Source/CMSIS_RTOS/cmsis_os.c" 1
 2802 003e BFF36F8F 		isb
 2803              	@ 0 "" 2
 2804              		.thumb
 2805              		.syntax unified
 2806 0042 14E0     		b	.L201
 2807              	.LVL223:
 2808              	.L206:
1345:Middlewares/Third_Party/FreeRTOS/Source/CMSIS_RTOS/cmsis_os.c ****     return event;
 2809              		.loc 1 1345 5 view .LVU726
1345:Middlewares/Third_Party/FreeRTOS/Source/CMSIS_RTOS/cmsis_os.c ****     return event;
 2810              		.loc 1 1345 18 is_stmt 0 view .LVU727
 2811 0044 8023     		movs	r3, #128
 2812 0046 0093     		str	r3, [sp]
1346:Middlewares/Third_Party/FreeRTOS/Source/CMSIS_RTOS/cmsis_os.c ****   }
 2813              		.loc 1 1346 5 is_stmt 1 view .LVU728
1346:Middlewares/Third_Party/FreeRTOS/Source/CMSIS_RTOS/cmsis_os.c ****   }
 2814              		.loc 1 1346 12 is_stmt 0 view .LVU729
 2815 0048 6B46     		mov	r3, sp
 2816 004a 93E80700 		ldm	r3, {r0, r1, r2}
 2817              	.LVL224:
1346:Middlewares/Third_Party/FreeRTOS/Source/CMSIS_RTOS/cmsis_os.c ****   }
 2818              		.loc 1 1346 12 view .LVU730
 2819 004e 84E80700 		stm	r4, {r0, r1, r2}
 2820 0052 11E0     		b	.L195
 2821              	.LVL225:
 2822              	.L207:
1365:Middlewares/Third_Party/FreeRTOS/Source/CMSIS_RTOS/cmsis_os.c ****     }
 2823              		.loc 1 1365 7 is_stmt 1 view .LVU731
1365:Middlewares/Third_Party/FreeRTOS/Source/CMSIS_RTOS/cmsis_os.c ****     }
 2824              		.loc 1 1365 20 is_stmt 0 view .LVU732
 2825 0054 2023     		movs	r3, #32
 2826 0056 0093     		str	r3, [sp]
 2827 0058 E7E7     		b	.L200
 2828              	.L198:
1371:Middlewares/Third_Party/FreeRTOS/Source/CMSIS_RTOS/cmsis_os.c ****   }
1372:Middlewares/Third_Party/FreeRTOS/Source/CMSIS_RTOS/cmsis_os.c ****   else {
1373:Middlewares/Third_Party/FreeRTOS/Source/CMSIS_RTOS/cmsis_os.c ****     if (xQueueReceive(queue_id->handle, &event.value.p, ticks) == pdTRUE) {
 2829              		.loc 1 1373 5 is_stmt 1 view .LVU733
 2830              		.loc 1 1373 9 is_stmt 0 view .LVU734
 2831 005a 3246     		mov	r2, r6
 2832 005c 01A9     		add	r1, sp, #4
 2833 005e 6868     		ldr	r0, [r5, #4]
 2834 0060 FFF7FEFF 		bl	xQueueReceive
 2835              	.LVL226:
 2836              		.loc 1 1373 8 view .LVU735
 2837 0064 0128     		cmp	r0, #1
 2838 0066 0AD0     		beq	.L208
1374:Middlewares/Third_Party/FreeRTOS/Source/CMSIS_RTOS/cmsis_os.c ****       /* We have mail */
1375:Middlewares/Third_Party/FreeRTOS/Source/CMSIS_RTOS/cmsis_os.c ****       event.status = osEventMail;
ARM GAS  C:\Users\xixi\AppData\Local\Temp\ccei1Zb6.s 			page 84


1376:Middlewares/Third_Party/FreeRTOS/Source/CMSIS_RTOS/cmsis_os.c ****     }
1377:Middlewares/Third_Party/FreeRTOS/Source/CMSIS_RTOS/cmsis_os.c ****     else {
1378:Middlewares/Third_Party/FreeRTOS/Source/CMSIS_RTOS/cmsis_os.c ****       event.status = (ticks == 0) ? osOK : osEventTimeout;
 2839              		.loc 1 1378 7 is_stmt 1 view .LVU736
 2840              		.loc 1 1378 42 is_stmt 0 view .LVU737
 2841 0068 06B1     		cbz	r6, .L203
 2842 006a 4026     		movs	r6, #64
 2843              	.LVL227:
 2844              	.L203:
 2845              		.loc 1 1378 20 discriminator 4 view .LVU738
 2846 006c 0096     		str	r6, [sp]
 2847              	.L201:
1379:Middlewares/Third_Party/FreeRTOS/Source/CMSIS_RTOS/cmsis_os.c ****     }
1380:Middlewares/Third_Party/FreeRTOS/Source/CMSIS_RTOS/cmsis_os.c ****   }
1381:Middlewares/Third_Party/FreeRTOS/Source/CMSIS_RTOS/cmsis_os.c ****   
1382:Middlewares/Third_Party/FreeRTOS/Source/CMSIS_RTOS/cmsis_os.c ****   return event;
 2848              		.loc 1 1382 3 is_stmt 1 view .LVU739
 2849              		.loc 1 1382 10 is_stmt 0 view .LVU740
 2850 006e 6B46     		mov	r3, sp
 2851 0070 93E80700 		ldm	r3, {r0, r1, r2}
 2852 0074 84E80700 		stm	r4, {r0, r1, r2}
 2853              	.LVL228:
 2854              	.L195:
1383:Middlewares/Third_Party/FreeRTOS/Source/CMSIS_RTOS/cmsis_os.c **** }
 2855              		.loc 1 1383 1 view .LVU741
 2856 0078 2046     		mov	r0, r4
 2857 007a 04B0     		add	sp, sp, #16
 2858              	.LCFI69:
 2859              		.cfi_remember_state
 2860              		.cfi_def_cfa_offset 16
 2861              		@ sp needed
 2862 007c 70BD     		pop	{r4, r5, r6, pc}
 2863              	.LVL229:
 2864              	.L208:
 2865              	.LCFI70:
 2866              		.cfi_restore_state
1375:Middlewares/Third_Party/FreeRTOS/Source/CMSIS_RTOS/cmsis_os.c ****     }
 2867              		.loc 1 1375 7 is_stmt 1 view .LVU742
1375:Middlewares/Third_Party/FreeRTOS/Source/CMSIS_RTOS/cmsis_os.c ****     }
 2868              		.loc 1 1375 20 is_stmt 0 view .LVU743
 2869 007e 2023     		movs	r3, #32
 2870 0080 0093     		str	r3, [sp]
 2871 0082 F4E7     		b	.L201
 2872              		.cfi_endproc
 2873              	.LFE145:
 2875              		.section	.text.osMailFree,"ax",%progbits
 2876              		.align	1
 2877              		.global	osMailFree
 2878              		.syntax unified
 2879              		.thumb
 2880              		.thumb_func
 2882              	osMailFree:
 2883              	.LVL230:
 2884              	.LFB146:
1384:Middlewares/Third_Party/FreeRTOS/Source/CMSIS_RTOS/cmsis_os.c **** 
1385:Middlewares/Third_Party/FreeRTOS/Source/CMSIS_RTOS/cmsis_os.c **** /**
1386:Middlewares/Third_Party/FreeRTOS/Source/CMSIS_RTOS/cmsis_os.c **** * @brief Free a memory block from a mail
ARM GAS  C:\Users\xixi\AppData\Local\Temp\ccei1Zb6.s 			page 85


1387:Middlewares/Third_Party/FreeRTOS/Source/CMSIS_RTOS/cmsis_os.c **** * @param  queue_id mail queue ID obtained with \ref osMailCreate.
1388:Middlewares/Third_Party/FreeRTOS/Source/CMSIS_RTOS/cmsis_os.c **** * @param  mail     pointer to the memory block that was obtained with \ref osMailGet.
1389:Middlewares/Third_Party/FreeRTOS/Source/CMSIS_RTOS/cmsis_os.c **** * @retval status code that indicates the execution status of the function.
1390:Middlewares/Third_Party/FreeRTOS/Source/CMSIS_RTOS/cmsis_os.c **** * @note   MUST REMAIN UNCHANGED: \b osMailFree shall be consistent in every CMSIS-RTOS.
1391:Middlewares/Third_Party/FreeRTOS/Source/CMSIS_RTOS/cmsis_os.c **** */
1392:Middlewares/Third_Party/FreeRTOS/Source/CMSIS_RTOS/cmsis_os.c **** osStatus osMailFree (osMailQId queue_id, void *mail)
1393:Middlewares/Third_Party/FreeRTOS/Source/CMSIS_RTOS/cmsis_os.c **** {
 2885              		.loc 1 1393 1 is_stmt 1 view -0
 2886              		.cfi_startproc
 2887              		@ args = 0, pretend = 0, frame = 0
 2888              		@ frame_needed = 0, uses_anonymous_args = 0
1394:Middlewares/Third_Party/FreeRTOS/Source/CMSIS_RTOS/cmsis_os.c ****   if (queue_id == NULL) {
 2889              		.loc 1 1394 3 view .LVU745
 2890              		.loc 1 1394 6 is_stmt 0 view .LVU746
 2891 0000 20B1     		cbz	r0, .L211
1393:Middlewares/Third_Party/FreeRTOS/Source/CMSIS_RTOS/cmsis_os.c ****   if (queue_id == NULL) {
 2892              		.loc 1 1393 1 view .LVU747
 2893 0002 08B5     		push	{r3, lr}
 2894              	.LCFI71:
 2895              		.cfi_def_cfa_offset 8
 2896              		.cfi_offset 3, -8
 2897              		.cfi_offset 14, -4
1395:Middlewares/Third_Party/FreeRTOS/Source/CMSIS_RTOS/cmsis_os.c ****     return osErrorParameter;
1396:Middlewares/Third_Party/FreeRTOS/Source/CMSIS_RTOS/cmsis_os.c ****   }
1397:Middlewares/Third_Party/FreeRTOS/Source/CMSIS_RTOS/cmsis_os.c ****   
1398:Middlewares/Third_Party/FreeRTOS/Source/CMSIS_RTOS/cmsis_os.c ****   return osPoolFree(queue_id->pool, mail);
 2898              		.loc 1 1398 3 is_stmt 1 view .LVU748
 2899              		.loc 1 1398 10 is_stmt 0 view .LVU749
 2900 0004 8068     		ldr	r0, [r0, #8]
 2901              	.LVL231:
 2902              		.loc 1 1398 10 view .LVU750
 2903 0006 FFF7FEFF 		bl	osPoolFree
 2904              	.LVL232:
1399:Middlewares/Third_Party/FreeRTOS/Source/CMSIS_RTOS/cmsis_os.c **** }
 2905              		.loc 1 1399 1 view .LVU751
 2906 000a 08BD     		pop	{r3, pc}
 2907              	.LVL233:
 2908              	.L211:
 2909              	.LCFI72:
 2910              		.cfi_def_cfa_offset 0
 2911              		.cfi_restore 3
 2912              		.cfi_restore 14
1395:Middlewares/Third_Party/FreeRTOS/Source/CMSIS_RTOS/cmsis_os.c ****     return osErrorParameter;
 2913              		.loc 1 1395 12 view .LVU752
 2914 000c 8020     		movs	r0, #128
 2915              	.LVL234:
 2916              		.loc 1 1399 1 view .LVU753
 2917 000e 7047     		bx	lr
 2918              		.cfi_endproc
 2919              	.LFE146:
 2921              		.section	.text.osSystickHandler,"ax",%progbits
 2922              		.align	1
 2923              		.global	osSystickHandler
 2924              		.syntax unified
 2925              		.thumb
 2926              		.thumb_func
 2928              	osSystickHandler:
ARM GAS  C:\Users\xixi\AppData\Local\Temp\ccei1Zb6.s 			page 86


 2929              	.LFB147:
1400:Middlewares/Third_Party/FreeRTOS/Source/CMSIS_RTOS/cmsis_os.c **** #endif  /* Use Mail Queues */
1401:Middlewares/Third_Party/FreeRTOS/Source/CMSIS_RTOS/cmsis_os.c **** 
1402:Middlewares/Third_Party/FreeRTOS/Source/CMSIS_RTOS/cmsis_os.c **** /*************************** Additional specific APIs to Free RTOS ************/
1403:Middlewares/Third_Party/FreeRTOS/Source/CMSIS_RTOS/cmsis_os.c **** /**
1404:Middlewares/Third_Party/FreeRTOS/Source/CMSIS_RTOS/cmsis_os.c **** * @brief  Handles the tick increment
1405:Middlewares/Third_Party/FreeRTOS/Source/CMSIS_RTOS/cmsis_os.c **** * @param  none.
1406:Middlewares/Third_Party/FreeRTOS/Source/CMSIS_RTOS/cmsis_os.c **** * @retval none.
1407:Middlewares/Third_Party/FreeRTOS/Source/CMSIS_RTOS/cmsis_os.c **** */
1408:Middlewares/Third_Party/FreeRTOS/Source/CMSIS_RTOS/cmsis_os.c **** void osSystickHandler(void)
1409:Middlewares/Third_Party/FreeRTOS/Source/CMSIS_RTOS/cmsis_os.c **** {
 2930              		.loc 1 1409 1 is_stmt 1 view -0
 2931              		.cfi_startproc
 2932              		@ args = 0, pretend = 0, frame = 0
 2933              		@ frame_needed = 0, uses_anonymous_args = 0
 2934 0000 08B5     		push	{r3, lr}
 2935              	.LCFI73:
 2936              		.cfi_def_cfa_offset 8
 2937              		.cfi_offset 3, -8
 2938              		.cfi_offset 14, -4
1410:Middlewares/Third_Party/FreeRTOS/Source/CMSIS_RTOS/cmsis_os.c **** 
1411:Middlewares/Third_Party/FreeRTOS/Source/CMSIS_RTOS/cmsis_os.c **** #if (INCLUDE_xTaskGetSchedulerState  == 1 )
1412:Middlewares/Third_Party/FreeRTOS/Source/CMSIS_RTOS/cmsis_os.c ****   if (xTaskGetSchedulerState() != taskSCHEDULER_NOT_STARTED)
 2939              		.loc 1 1412 3 view .LVU755
 2940              		.loc 1 1412 7 is_stmt 0 view .LVU756
 2941 0002 FFF7FEFF 		bl	xTaskGetSchedulerState
 2942              	.LVL235:
 2943              		.loc 1 1412 6 view .LVU757
 2944 0006 0128     		cmp	r0, #1
 2945 0008 00D1     		bne	.L219
 2946              	.L216:
1413:Middlewares/Third_Party/FreeRTOS/Source/CMSIS_RTOS/cmsis_os.c ****   {
1414:Middlewares/Third_Party/FreeRTOS/Source/CMSIS_RTOS/cmsis_os.c **** #endif  /* INCLUDE_xTaskGetSchedulerState */  
1415:Middlewares/Third_Party/FreeRTOS/Source/CMSIS_RTOS/cmsis_os.c ****     xPortSysTickHandler();
1416:Middlewares/Third_Party/FreeRTOS/Source/CMSIS_RTOS/cmsis_os.c **** #if (INCLUDE_xTaskGetSchedulerState  == 1 )
1417:Middlewares/Third_Party/FreeRTOS/Source/CMSIS_RTOS/cmsis_os.c ****   }
1418:Middlewares/Third_Party/FreeRTOS/Source/CMSIS_RTOS/cmsis_os.c **** #endif  /* INCLUDE_xTaskGetSchedulerState */  
1419:Middlewares/Third_Party/FreeRTOS/Source/CMSIS_RTOS/cmsis_os.c **** }
 2947              		.loc 1 1419 1 view .LVU758
 2948 000a 08BD     		pop	{r3, pc}
 2949              	.L219:
1415:Middlewares/Third_Party/FreeRTOS/Source/CMSIS_RTOS/cmsis_os.c **** #if (INCLUDE_xTaskGetSchedulerState  == 1 )
 2950              		.loc 1 1415 5 is_stmt 1 view .LVU759
 2951 000c FFF7FEFF 		bl	xPortSysTickHandler
 2952              	.LVL236:
 2953              		.loc 1 1419 1 is_stmt 0 view .LVU760
 2954 0010 FBE7     		b	.L216
 2955              		.cfi_endproc
 2956              	.LFE147:
 2958              		.section	.text.osThreadSuspend,"ax",%progbits
 2959              		.align	1
 2960              		.global	osThreadSuspend
 2961              		.syntax unified
 2962              		.thumb
 2963              		.thumb_func
 2965              	osThreadSuspend:
 2966              	.LVL237:
ARM GAS  C:\Users\xixi\AppData\Local\Temp\ccei1Zb6.s 			page 87


 2967              	.LFB148:
1420:Middlewares/Third_Party/FreeRTOS/Source/CMSIS_RTOS/cmsis_os.c **** 
1421:Middlewares/Third_Party/FreeRTOS/Source/CMSIS_RTOS/cmsis_os.c **** #if ( INCLUDE_eTaskGetState == 1 )
1422:Middlewares/Third_Party/FreeRTOS/Source/CMSIS_RTOS/cmsis_os.c **** /**
1423:Middlewares/Third_Party/FreeRTOS/Source/CMSIS_RTOS/cmsis_os.c **** * @brief  Obtain the state of any thread.
1424:Middlewares/Third_Party/FreeRTOS/Source/CMSIS_RTOS/cmsis_os.c **** * @param   thread_id   thread ID obtained by \ref osThreadCreate or \ref osThreadGetId.
1425:Middlewares/Third_Party/FreeRTOS/Source/CMSIS_RTOS/cmsis_os.c **** * @retval  the stae of the thread, states are encoded by the osThreadState enumerated type.
1426:Middlewares/Third_Party/FreeRTOS/Source/CMSIS_RTOS/cmsis_os.c **** */
1427:Middlewares/Third_Party/FreeRTOS/Source/CMSIS_RTOS/cmsis_os.c **** osThreadState osThreadGetState(osThreadId thread_id)
1428:Middlewares/Third_Party/FreeRTOS/Source/CMSIS_RTOS/cmsis_os.c **** {
1429:Middlewares/Third_Party/FreeRTOS/Source/CMSIS_RTOS/cmsis_os.c ****   eTaskState ThreadState;
1430:Middlewares/Third_Party/FreeRTOS/Source/CMSIS_RTOS/cmsis_os.c ****   osThreadState result;
1431:Middlewares/Third_Party/FreeRTOS/Source/CMSIS_RTOS/cmsis_os.c ****   
1432:Middlewares/Third_Party/FreeRTOS/Source/CMSIS_RTOS/cmsis_os.c ****   ThreadState = eTaskGetState(thread_id);
1433:Middlewares/Third_Party/FreeRTOS/Source/CMSIS_RTOS/cmsis_os.c ****   
1434:Middlewares/Third_Party/FreeRTOS/Source/CMSIS_RTOS/cmsis_os.c ****   switch (ThreadState)
1435:Middlewares/Third_Party/FreeRTOS/Source/CMSIS_RTOS/cmsis_os.c ****   {
1436:Middlewares/Third_Party/FreeRTOS/Source/CMSIS_RTOS/cmsis_os.c ****   case eRunning :
1437:Middlewares/Third_Party/FreeRTOS/Source/CMSIS_RTOS/cmsis_os.c ****     result = osThreadRunning;
1438:Middlewares/Third_Party/FreeRTOS/Source/CMSIS_RTOS/cmsis_os.c ****     break;
1439:Middlewares/Third_Party/FreeRTOS/Source/CMSIS_RTOS/cmsis_os.c ****   case eReady :
1440:Middlewares/Third_Party/FreeRTOS/Source/CMSIS_RTOS/cmsis_os.c ****     result = osThreadReady;
1441:Middlewares/Third_Party/FreeRTOS/Source/CMSIS_RTOS/cmsis_os.c ****     break;
1442:Middlewares/Third_Party/FreeRTOS/Source/CMSIS_RTOS/cmsis_os.c ****   case eBlocked :
1443:Middlewares/Third_Party/FreeRTOS/Source/CMSIS_RTOS/cmsis_os.c ****     result = osThreadBlocked;
1444:Middlewares/Third_Party/FreeRTOS/Source/CMSIS_RTOS/cmsis_os.c ****     break;
1445:Middlewares/Third_Party/FreeRTOS/Source/CMSIS_RTOS/cmsis_os.c ****   case eSuspended :
1446:Middlewares/Third_Party/FreeRTOS/Source/CMSIS_RTOS/cmsis_os.c ****     result = osThreadSuspended;
1447:Middlewares/Third_Party/FreeRTOS/Source/CMSIS_RTOS/cmsis_os.c ****     break;
1448:Middlewares/Third_Party/FreeRTOS/Source/CMSIS_RTOS/cmsis_os.c ****   case eDeleted :
1449:Middlewares/Third_Party/FreeRTOS/Source/CMSIS_RTOS/cmsis_os.c ****     result = osThreadDeleted;
1450:Middlewares/Third_Party/FreeRTOS/Source/CMSIS_RTOS/cmsis_os.c ****     break;
1451:Middlewares/Third_Party/FreeRTOS/Source/CMSIS_RTOS/cmsis_os.c ****   default:
1452:Middlewares/Third_Party/FreeRTOS/Source/CMSIS_RTOS/cmsis_os.c ****     result = osThreadError;
1453:Middlewares/Third_Party/FreeRTOS/Source/CMSIS_RTOS/cmsis_os.c ****   } 
1454:Middlewares/Third_Party/FreeRTOS/Source/CMSIS_RTOS/cmsis_os.c ****   
1455:Middlewares/Third_Party/FreeRTOS/Source/CMSIS_RTOS/cmsis_os.c ****   return result;
1456:Middlewares/Third_Party/FreeRTOS/Source/CMSIS_RTOS/cmsis_os.c **** }
1457:Middlewares/Third_Party/FreeRTOS/Source/CMSIS_RTOS/cmsis_os.c **** #endif /* INCLUDE_eTaskGetState */
1458:Middlewares/Third_Party/FreeRTOS/Source/CMSIS_RTOS/cmsis_os.c **** 
1459:Middlewares/Third_Party/FreeRTOS/Source/CMSIS_RTOS/cmsis_os.c **** #if (INCLUDE_eTaskGetState == 1)
1460:Middlewares/Third_Party/FreeRTOS/Source/CMSIS_RTOS/cmsis_os.c **** /**
1461:Middlewares/Third_Party/FreeRTOS/Source/CMSIS_RTOS/cmsis_os.c **** * @brief Check if a thread is already suspended or not.
1462:Middlewares/Third_Party/FreeRTOS/Source/CMSIS_RTOS/cmsis_os.c **** * @param thread_id thread ID obtained by \ref osThreadCreate or \ref osThreadGetId.
1463:Middlewares/Third_Party/FreeRTOS/Source/CMSIS_RTOS/cmsis_os.c **** * @retval status code that indicates the execution status of the function.
1464:Middlewares/Third_Party/FreeRTOS/Source/CMSIS_RTOS/cmsis_os.c **** */
1465:Middlewares/Third_Party/FreeRTOS/Source/CMSIS_RTOS/cmsis_os.c **** osStatus osThreadIsSuspended(osThreadId thread_id)
1466:Middlewares/Third_Party/FreeRTOS/Source/CMSIS_RTOS/cmsis_os.c **** {
1467:Middlewares/Third_Party/FreeRTOS/Source/CMSIS_RTOS/cmsis_os.c ****   if (eTaskGetState(thread_id) == eSuspended)
1468:Middlewares/Third_Party/FreeRTOS/Source/CMSIS_RTOS/cmsis_os.c ****     return osOK;
1469:Middlewares/Third_Party/FreeRTOS/Source/CMSIS_RTOS/cmsis_os.c ****   else
1470:Middlewares/Third_Party/FreeRTOS/Source/CMSIS_RTOS/cmsis_os.c ****     return osErrorOS;
1471:Middlewares/Third_Party/FreeRTOS/Source/CMSIS_RTOS/cmsis_os.c **** }
1472:Middlewares/Third_Party/FreeRTOS/Source/CMSIS_RTOS/cmsis_os.c **** #endif /* INCLUDE_eTaskGetState */
1473:Middlewares/Third_Party/FreeRTOS/Source/CMSIS_RTOS/cmsis_os.c **** /**
1474:Middlewares/Third_Party/FreeRTOS/Source/CMSIS_RTOS/cmsis_os.c **** * @brief  Suspend execution of a thread.
1475:Middlewares/Third_Party/FreeRTOS/Source/CMSIS_RTOS/cmsis_os.c **** * @param   thread_id   thread ID obtained by \ref osThreadCreate or \ref osThreadGetId.
ARM GAS  C:\Users\xixi\AppData\Local\Temp\ccei1Zb6.s 			page 88


1476:Middlewares/Third_Party/FreeRTOS/Source/CMSIS_RTOS/cmsis_os.c **** * @retval  status code that indicates the execution status of the function.
1477:Middlewares/Third_Party/FreeRTOS/Source/CMSIS_RTOS/cmsis_os.c **** */
1478:Middlewares/Third_Party/FreeRTOS/Source/CMSIS_RTOS/cmsis_os.c **** osStatus osThreadSuspend (osThreadId thread_id)
1479:Middlewares/Third_Party/FreeRTOS/Source/CMSIS_RTOS/cmsis_os.c **** {
 2968              		.loc 1 1479 1 is_stmt 1 view -0
 2969              		.cfi_startproc
 2970              		@ args = 0, pretend = 0, frame = 0
 2971              		@ frame_needed = 0, uses_anonymous_args = 0
 2972              		.loc 1 1479 1 is_stmt 0 view .LVU762
 2973 0000 08B5     		push	{r3, lr}
 2974              	.LCFI74:
 2975              		.cfi_def_cfa_offset 8
 2976              		.cfi_offset 3, -8
 2977              		.cfi_offset 14, -4
1480:Middlewares/Third_Party/FreeRTOS/Source/CMSIS_RTOS/cmsis_os.c **** #if (INCLUDE_vTaskSuspend == 1)
1481:Middlewares/Third_Party/FreeRTOS/Source/CMSIS_RTOS/cmsis_os.c ****     vTaskSuspend(thread_id);
 2978              		.loc 1 1481 5 is_stmt 1 view .LVU763
 2979 0002 FFF7FEFF 		bl	vTaskSuspend
 2980              	.LVL238:
1482:Middlewares/Third_Party/FreeRTOS/Source/CMSIS_RTOS/cmsis_os.c ****   
1483:Middlewares/Third_Party/FreeRTOS/Source/CMSIS_RTOS/cmsis_os.c ****   return osOK;
 2981              		.loc 1 1483 3 view .LVU764
1484:Middlewares/Third_Party/FreeRTOS/Source/CMSIS_RTOS/cmsis_os.c **** #else
1485:Middlewares/Third_Party/FreeRTOS/Source/CMSIS_RTOS/cmsis_os.c ****   return osErrorResource;
1486:Middlewares/Third_Party/FreeRTOS/Source/CMSIS_RTOS/cmsis_os.c **** #endif
1487:Middlewares/Third_Party/FreeRTOS/Source/CMSIS_RTOS/cmsis_os.c **** }
 2982              		.loc 1 1487 1 is_stmt 0 view .LVU765
 2983 0006 0020     		movs	r0, #0
 2984 0008 08BD     		pop	{r3, pc}
 2985              		.cfi_endproc
 2986              	.LFE148:
 2988              		.section	.text.osThreadResume,"ax",%progbits
 2989              		.align	1
 2990              		.global	osThreadResume
 2991              		.syntax unified
 2992              		.thumb
 2993              		.thumb_func
 2995              	osThreadResume:
 2996              	.LVL239:
 2997              	.LFB149:
1488:Middlewares/Third_Party/FreeRTOS/Source/CMSIS_RTOS/cmsis_os.c **** 
1489:Middlewares/Third_Party/FreeRTOS/Source/CMSIS_RTOS/cmsis_os.c **** /**
1490:Middlewares/Third_Party/FreeRTOS/Source/CMSIS_RTOS/cmsis_os.c **** * @brief  Resume execution of a suspended thread.
1491:Middlewares/Third_Party/FreeRTOS/Source/CMSIS_RTOS/cmsis_os.c **** * @param   thread_id   thread ID obtained by \ref osThreadCreate or \ref osThreadGetId.
1492:Middlewares/Third_Party/FreeRTOS/Source/CMSIS_RTOS/cmsis_os.c **** * @retval  status code that indicates the execution status of the function.
1493:Middlewares/Third_Party/FreeRTOS/Source/CMSIS_RTOS/cmsis_os.c **** */
1494:Middlewares/Third_Party/FreeRTOS/Source/CMSIS_RTOS/cmsis_os.c **** osStatus osThreadResume (osThreadId thread_id)
1495:Middlewares/Third_Party/FreeRTOS/Source/CMSIS_RTOS/cmsis_os.c **** {
 2998              		.loc 1 1495 1 is_stmt 1 view -0
 2999              		.cfi_startproc
 3000              		@ args = 0, pretend = 0, frame = 0
 3001              		@ frame_needed = 0, uses_anonymous_args = 0
 3002              		.loc 1 1495 1 is_stmt 0 view .LVU767
 3003 0000 10B5     		push	{r4, lr}
 3004              	.LCFI75:
 3005              		.cfi_def_cfa_offset 8
 3006              		.cfi_offset 4, -8
ARM GAS  C:\Users\xixi\AppData\Local\Temp\ccei1Zb6.s 			page 89


 3007              		.cfi_offset 14, -4
 3008 0002 0446     		mov	r4, r0
1496:Middlewares/Third_Party/FreeRTOS/Source/CMSIS_RTOS/cmsis_os.c **** #if (INCLUDE_vTaskSuspend == 1)  
1497:Middlewares/Third_Party/FreeRTOS/Source/CMSIS_RTOS/cmsis_os.c ****   if(inHandlerMode())
 3009              		.loc 1 1497 3 is_stmt 1 view .LVU768
 3010              		.loc 1 1497 6 is_stmt 0 view .LVU769
 3011 0004 FFF7FEFF 		bl	inHandlerMode
 3012              	.LVL240:
 3013              		.loc 1 1497 5 view .LVU770
 3014 0008 78B1     		cbz	r0, .L223
1498:Middlewares/Third_Party/FreeRTOS/Source/CMSIS_RTOS/cmsis_os.c ****   {
1499:Middlewares/Third_Party/FreeRTOS/Source/CMSIS_RTOS/cmsis_os.c ****     if (xTaskResumeFromISR(thread_id) == pdTRUE)
 3015              		.loc 1 1499 5 is_stmt 1 view .LVU771
 3016              		.loc 1 1499 9 is_stmt 0 view .LVU772
 3017 000a 2046     		mov	r0, r4
 3018 000c FFF7FEFF 		bl	xTaskResumeFromISR
 3019              	.LVL241:
 3020              		.loc 1 1499 8 view .LVU773
 3021 0010 0128     		cmp	r0, #1
 3022 0012 0DD1     		bne	.L224
1500:Middlewares/Third_Party/FreeRTOS/Source/CMSIS_RTOS/cmsis_os.c ****     {
1501:Middlewares/Third_Party/FreeRTOS/Source/CMSIS_RTOS/cmsis_os.c ****       portYIELD_FROM_ISR(pdTRUE);
 3023              		.loc 1 1501 7 is_stmt 1 discriminator 1 view .LVU774
 3024              		.loc 1 1501 7 discriminator 1 view .LVU775
 3025 0014 4FF0E023 		mov	r3, #-536813568
 3026 0018 4FF08052 		mov	r2, #268435456
 3027 001c C3F8042D 		str	r2, [r3, #3332]
 3028              		.loc 1 1501 7 discriminator 1 view .LVU776
 3029              		.syntax unified
 3030              	@ 1501 "Middlewares/Third_Party/FreeRTOS/Source/CMSIS_RTOS/cmsis_os.c" 1
 3031 0020 BFF34F8F 		dsb
 3032              	@ 0 "" 2
 3033              		.loc 1 1501 7 discriminator 1 view .LVU777
 3034              	@ 1501 "Middlewares/Third_Party/FreeRTOS/Source/CMSIS_RTOS/cmsis_os.c" 1
 3035 0024 BFF36F8F 		isb
 3036              	@ 0 "" 2
 3037              		.thumb
 3038              		.syntax unified
 3039 0028 02E0     		b	.L224
 3040              	.L223:
1502:Middlewares/Third_Party/FreeRTOS/Source/CMSIS_RTOS/cmsis_os.c ****     }
1503:Middlewares/Third_Party/FreeRTOS/Source/CMSIS_RTOS/cmsis_os.c ****   }
1504:Middlewares/Third_Party/FreeRTOS/Source/CMSIS_RTOS/cmsis_os.c ****   else
1505:Middlewares/Third_Party/FreeRTOS/Source/CMSIS_RTOS/cmsis_os.c ****   {
1506:Middlewares/Third_Party/FreeRTOS/Source/CMSIS_RTOS/cmsis_os.c ****     vTaskResume(thread_id);
 3041              		.loc 1 1506 5 view .LVU778
 3042 002a 2046     		mov	r0, r4
 3043 002c FFF7FEFF 		bl	vTaskResume
 3044              	.LVL242:
 3045              	.L224:
1507:Middlewares/Third_Party/FreeRTOS/Source/CMSIS_RTOS/cmsis_os.c ****   }
1508:Middlewares/Third_Party/FreeRTOS/Source/CMSIS_RTOS/cmsis_os.c ****   return osOK;
 3046              		.loc 1 1508 3 view .LVU779
1509:Middlewares/Third_Party/FreeRTOS/Source/CMSIS_RTOS/cmsis_os.c **** #else
1510:Middlewares/Third_Party/FreeRTOS/Source/CMSIS_RTOS/cmsis_os.c ****   return osErrorResource;
1511:Middlewares/Third_Party/FreeRTOS/Source/CMSIS_RTOS/cmsis_os.c **** #endif
1512:Middlewares/Third_Party/FreeRTOS/Source/CMSIS_RTOS/cmsis_os.c **** }
ARM GAS  C:\Users\xixi\AppData\Local\Temp\ccei1Zb6.s 			page 90


 3047              		.loc 1 1512 1 is_stmt 0 view .LVU780
 3048 0030 0020     		movs	r0, #0
 3049 0032 10BD     		pop	{r4, pc}
 3050              		.loc 1 1512 1 view .LVU781
 3051              		.cfi_endproc
 3052              	.LFE149:
 3054              		.section	.text.osThreadSuspendAll,"ax",%progbits
 3055              		.align	1
 3056              		.global	osThreadSuspendAll
 3057              		.syntax unified
 3058              		.thumb
 3059              		.thumb_func
 3061              	osThreadSuspendAll:
 3062              	.LFB150:
1513:Middlewares/Third_Party/FreeRTOS/Source/CMSIS_RTOS/cmsis_os.c **** 
1514:Middlewares/Third_Party/FreeRTOS/Source/CMSIS_RTOS/cmsis_os.c **** /**
1515:Middlewares/Third_Party/FreeRTOS/Source/CMSIS_RTOS/cmsis_os.c **** * @brief  Suspend execution of a all active threads.
1516:Middlewares/Third_Party/FreeRTOS/Source/CMSIS_RTOS/cmsis_os.c **** * @retval  status code that indicates the execution status of the function.
1517:Middlewares/Third_Party/FreeRTOS/Source/CMSIS_RTOS/cmsis_os.c **** */
1518:Middlewares/Third_Party/FreeRTOS/Source/CMSIS_RTOS/cmsis_os.c **** osStatus osThreadSuspendAll (void)
1519:Middlewares/Third_Party/FreeRTOS/Source/CMSIS_RTOS/cmsis_os.c **** {
 3063              		.loc 1 1519 1 is_stmt 1 view -0
 3064              		.cfi_startproc
 3065              		@ args = 0, pretend = 0, frame = 0
 3066              		@ frame_needed = 0, uses_anonymous_args = 0
 3067 0000 08B5     		push	{r3, lr}
 3068              	.LCFI76:
 3069              		.cfi_def_cfa_offset 8
 3070              		.cfi_offset 3, -8
 3071              		.cfi_offset 14, -4
1520:Middlewares/Third_Party/FreeRTOS/Source/CMSIS_RTOS/cmsis_os.c ****   vTaskSuspendAll();
 3072              		.loc 1 1520 3 view .LVU783
 3073 0002 FFF7FEFF 		bl	vTaskSuspendAll
 3074              	.LVL243:
1521:Middlewares/Third_Party/FreeRTOS/Source/CMSIS_RTOS/cmsis_os.c ****   
1522:Middlewares/Third_Party/FreeRTOS/Source/CMSIS_RTOS/cmsis_os.c ****   return osOK;
 3075              		.loc 1 1522 3 view .LVU784
1523:Middlewares/Third_Party/FreeRTOS/Source/CMSIS_RTOS/cmsis_os.c **** }
 3076              		.loc 1 1523 1 is_stmt 0 view .LVU785
 3077 0006 0020     		movs	r0, #0
 3078 0008 08BD     		pop	{r3, pc}
 3079              		.cfi_endproc
 3080              	.LFE150:
 3082              		.section	.text.osThreadResumeAll,"ax",%progbits
 3083              		.align	1
 3084              		.global	osThreadResumeAll
 3085              		.syntax unified
 3086              		.thumb
 3087              		.thumb_func
 3089              	osThreadResumeAll:
 3090              	.LFB151:
1524:Middlewares/Third_Party/FreeRTOS/Source/CMSIS_RTOS/cmsis_os.c **** 
1525:Middlewares/Third_Party/FreeRTOS/Source/CMSIS_RTOS/cmsis_os.c **** /**
1526:Middlewares/Third_Party/FreeRTOS/Source/CMSIS_RTOS/cmsis_os.c **** * @brief  Resume execution of a all suspended threads.
1527:Middlewares/Third_Party/FreeRTOS/Source/CMSIS_RTOS/cmsis_os.c **** * @retval  status code that indicates the execution status of the function.
1528:Middlewares/Third_Party/FreeRTOS/Source/CMSIS_RTOS/cmsis_os.c **** */
1529:Middlewares/Third_Party/FreeRTOS/Source/CMSIS_RTOS/cmsis_os.c **** osStatus osThreadResumeAll (void)
ARM GAS  C:\Users\xixi\AppData\Local\Temp\ccei1Zb6.s 			page 91


1530:Middlewares/Third_Party/FreeRTOS/Source/CMSIS_RTOS/cmsis_os.c **** {
 3091              		.loc 1 1530 1 is_stmt 1 view -0
 3092              		.cfi_startproc
 3093              		@ args = 0, pretend = 0, frame = 0
 3094              		@ frame_needed = 0, uses_anonymous_args = 0
 3095 0000 08B5     		push	{r3, lr}
 3096              	.LCFI77:
 3097              		.cfi_def_cfa_offset 8
 3098              		.cfi_offset 3, -8
 3099              		.cfi_offset 14, -4
1531:Middlewares/Third_Party/FreeRTOS/Source/CMSIS_RTOS/cmsis_os.c ****   if (xTaskResumeAll() == pdTRUE)
 3100              		.loc 1 1531 3 view .LVU787
 3101              		.loc 1 1531 7 is_stmt 0 view .LVU788
 3102 0002 FFF7FEFF 		bl	xTaskResumeAll
 3103              	.LVL244:
 3104              		.loc 1 1531 6 view .LVU789
 3105 0006 0128     		cmp	r0, #1
 3106 0008 01D0     		beq	.L232
1532:Middlewares/Third_Party/FreeRTOS/Source/CMSIS_RTOS/cmsis_os.c ****     return osOK;
1533:Middlewares/Third_Party/FreeRTOS/Source/CMSIS_RTOS/cmsis_os.c ****   else
1534:Middlewares/Third_Party/FreeRTOS/Source/CMSIS_RTOS/cmsis_os.c ****     return osErrorOS;
 3107              		.loc 1 1534 12 view .LVU790
 3108 000a FF20     		movs	r0, #255
 3109              	.L228:
1535:Middlewares/Third_Party/FreeRTOS/Source/CMSIS_RTOS/cmsis_os.c ****   
1536:Middlewares/Third_Party/FreeRTOS/Source/CMSIS_RTOS/cmsis_os.c **** }
 3110              		.loc 1 1536 1 view .LVU791
 3111 000c 08BD     		pop	{r3, pc}
 3112              	.L232:
1532:Middlewares/Third_Party/FreeRTOS/Source/CMSIS_RTOS/cmsis_os.c ****     return osOK;
 3113              		.loc 1 1532 12 view .LVU792
 3114 000e 0020     		movs	r0, #0
 3115 0010 FCE7     		b	.L228
 3116              		.cfi_endproc
 3117              	.LFE151:
 3119              		.section	.text.osDelayUntil,"ax",%progbits
 3120              		.align	1
 3121              		.global	osDelayUntil
 3122              		.syntax unified
 3123              		.thumb
 3124              		.thumb_func
 3126              	osDelayUntil:
 3127              	.LVL245:
 3128              	.LFB152:
1537:Middlewares/Third_Party/FreeRTOS/Source/CMSIS_RTOS/cmsis_os.c **** 
1538:Middlewares/Third_Party/FreeRTOS/Source/CMSIS_RTOS/cmsis_os.c **** /**
1539:Middlewares/Third_Party/FreeRTOS/Source/CMSIS_RTOS/cmsis_os.c **** * @brief  Delay a task until a specified time
1540:Middlewares/Third_Party/FreeRTOS/Source/CMSIS_RTOS/cmsis_os.c **** * @param   PreviousWakeTime   Pointer to a variable that holds the time at which the 
1541:Middlewares/Third_Party/FreeRTOS/Source/CMSIS_RTOS/cmsis_os.c **** *          task was last unblocked. PreviousWakeTime must be initialised with the current time
1542:Middlewares/Third_Party/FreeRTOS/Source/CMSIS_RTOS/cmsis_os.c **** *          prior to its first use (PreviousWakeTime = osKernelSysTick() )
1543:Middlewares/Third_Party/FreeRTOS/Source/CMSIS_RTOS/cmsis_os.c **** * @param   millisec    time delay value
1544:Middlewares/Third_Party/FreeRTOS/Source/CMSIS_RTOS/cmsis_os.c **** * @retval  status code that indicates the execution status of the function.
1545:Middlewares/Third_Party/FreeRTOS/Source/CMSIS_RTOS/cmsis_os.c **** */
1546:Middlewares/Third_Party/FreeRTOS/Source/CMSIS_RTOS/cmsis_os.c **** osStatus osDelayUntil (uint32_t *PreviousWakeTime, uint32_t millisec)
1547:Middlewares/Third_Party/FreeRTOS/Source/CMSIS_RTOS/cmsis_os.c **** {
 3129              		.loc 1 1547 1 is_stmt 1 view -0
 3130              		.cfi_startproc
ARM GAS  C:\Users\xixi\AppData\Local\Temp\ccei1Zb6.s 			page 92


 3131              		@ args = 0, pretend = 0, frame = 0
 3132              		@ frame_needed = 0, uses_anonymous_args = 0
 3133              		@ link register save eliminated.
1548:Middlewares/Third_Party/FreeRTOS/Source/CMSIS_RTOS/cmsis_os.c **** #if INCLUDE_vTaskDelayUntil
1549:Middlewares/Third_Party/FreeRTOS/Source/CMSIS_RTOS/cmsis_os.c ****   TickType_t ticks = (millisec / portTICK_PERIOD_MS);
1550:Middlewares/Third_Party/FreeRTOS/Source/CMSIS_RTOS/cmsis_os.c ****   vTaskDelayUntil((TickType_t *) PreviousWakeTime, ticks ? ticks : 1);
1551:Middlewares/Third_Party/FreeRTOS/Source/CMSIS_RTOS/cmsis_os.c ****   
1552:Middlewares/Third_Party/FreeRTOS/Source/CMSIS_RTOS/cmsis_os.c ****   return osOK;
1553:Middlewares/Third_Party/FreeRTOS/Source/CMSIS_RTOS/cmsis_os.c **** #else
1554:Middlewares/Third_Party/FreeRTOS/Source/CMSIS_RTOS/cmsis_os.c ****   (void) millisec;
 3134              		.loc 1 1554 3 view .LVU794
1555:Middlewares/Third_Party/FreeRTOS/Source/CMSIS_RTOS/cmsis_os.c ****   (void) PreviousWakeTime;
 3135              		.loc 1 1555 3 view .LVU795
1556:Middlewares/Third_Party/FreeRTOS/Source/CMSIS_RTOS/cmsis_os.c ****   
1557:Middlewares/Third_Party/FreeRTOS/Source/CMSIS_RTOS/cmsis_os.c ****   return osErrorResource;
 3136              		.loc 1 1557 3 view .LVU796
1558:Middlewares/Third_Party/FreeRTOS/Source/CMSIS_RTOS/cmsis_os.c **** #endif
1559:Middlewares/Third_Party/FreeRTOS/Source/CMSIS_RTOS/cmsis_os.c **** }
 3137              		.loc 1 1559 1 is_stmt 0 view .LVU797
 3138 0000 8120     		movs	r0, #129
 3139              	.LVL246:
 3140              		.loc 1 1559 1 view .LVU798
 3141 0002 7047     		bx	lr
 3142              		.cfi_endproc
 3143              	.LFE152:
 3145              		.section	.text.osAbortDelay,"ax",%progbits
 3146              		.align	1
 3147              		.global	osAbortDelay
 3148              		.syntax unified
 3149              		.thumb
 3150              		.thumb_func
 3152              	osAbortDelay:
 3153              	.LVL247:
 3154              	.LFB153:
1560:Middlewares/Third_Party/FreeRTOS/Source/CMSIS_RTOS/cmsis_os.c **** 
1561:Middlewares/Third_Party/FreeRTOS/Source/CMSIS_RTOS/cmsis_os.c **** /**
1562:Middlewares/Third_Party/FreeRTOS/Source/CMSIS_RTOS/cmsis_os.c **** * @brief   Abort the delay for a specific thread
1563:Middlewares/Third_Party/FreeRTOS/Source/CMSIS_RTOS/cmsis_os.c **** * @param   thread_id   thread ID obtained by \ref osThreadCreate or \ref osThreadGetId   
1564:Middlewares/Third_Party/FreeRTOS/Source/CMSIS_RTOS/cmsis_os.c **** * @retval  status code that indicates the execution status of the function.
1565:Middlewares/Third_Party/FreeRTOS/Source/CMSIS_RTOS/cmsis_os.c **** */
1566:Middlewares/Third_Party/FreeRTOS/Source/CMSIS_RTOS/cmsis_os.c **** osStatus osAbortDelay(osThreadId thread_id)
1567:Middlewares/Third_Party/FreeRTOS/Source/CMSIS_RTOS/cmsis_os.c **** {
 3155              		.loc 1 1567 1 is_stmt 1 view -0
 3156              		.cfi_startproc
 3157              		@ args = 0, pretend = 0, frame = 0
 3158              		@ frame_needed = 0, uses_anonymous_args = 0
 3159              		@ link register save eliminated.
1568:Middlewares/Third_Party/FreeRTOS/Source/CMSIS_RTOS/cmsis_os.c **** #if INCLUDE_xTaskAbortDelay
1569:Middlewares/Third_Party/FreeRTOS/Source/CMSIS_RTOS/cmsis_os.c ****   
1570:Middlewares/Third_Party/FreeRTOS/Source/CMSIS_RTOS/cmsis_os.c ****   xTaskAbortDelay(thread_id);
1571:Middlewares/Third_Party/FreeRTOS/Source/CMSIS_RTOS/cmsis_os.c ****   
1572:Middlewares/Third_Party/FreeRTOS/Source/CMSIS_RTOS/cmsis_os.c ****   return osOK;
1573:Middlewares/Third_Party/FreeRTOS/Source/CMSIS_RTOS/cmsis_os.c **** #else
1574:Middlewares/Third_Party/FreeRTOS/Source/CMSIS_RTOS/cmsis_os.c ****   (void) thread_id;
 3160              		.loc 1 1574 3 view .LVU800
1575:Middlewares/Third_Party/FreeRTOS/Source/CMSIS_RTOS/cmsis_os.c ****   
1576:Middlewares/Third_Party/FreeRTOS/Source/CMSIS_RTOS/cmsis_os.c ****   return osErrorResource;
ARM GAS  C:\Users\xixi\AppData\Local\Temp\ccei1Zb6.s 			page 93


 3161              		.loc 1 1576 3 view .LVU801
1577:Middlewares/Third_Party/FreeRTOS/Source/CMSIS_RTOS/cmsis_os.c **** #endif
1578:Middlewares/Third_Party/FreeRTOS/Source/CMSIS_RTOS/cmsis_os.c **** }
 3162              		.loc 1 1578 1 is_stmt 0 view .LVU802
 3163 0000 8120     		movs	r0, #129
 3164              	.LVL248:
 3165              		.loc 1 1578 1 view .LVU803
 3166 0002 7047     		bx	lr
 3167              		.cfi_endproc
 3168              	.LFE153:
 3170              		.section	.text.osThreadList,"ax",%progbits
 3171              		.align	1
 3172              		.global	osThreadList
 3173              		.syntax unified
 3174              		.thumb
 3175              		.thumb_func
 3177              	osThreadList:
 3178              	.LVL249:
 3179              	.LFB154:
1579:Middlewares/Third_Party/FreeRTOS/Source/CMSIS_RTOS/cmsis_os.c **** 
1580:Middlewares/Third_Party/FreeRTOS/Source/CMSIS_RTOS/cmsis_os.c **** /**
1581:Middlewares/Third_Party/FreeRTOS/Source/CMSIS_RTOS/cmsis_os.c **** * @brief   Lists all the current threads, along with their current state 
1582:Middlewares/Third_Party/FreeRTOS/Source/CMSIS_RTOS/cmsis_os.c **** *          and stack usage high water mark.
1583:Middlewares/Third_Party/FreeRTOS/Source/CMSIS_RTOS/cmsis_os.c **** * @param   buffer   A buffer into which the above mentioned details
1584:Middlewares/Third_Party/FreeRTOS/Source/CMSIS_RTOS/cmsis_os.c **** *          will be written
1585:Middlewares/Third_Party/FreeRTOS/Source/CMSIS_RTOS/cmsis_os.c **** * @retval  status code that indicates the execution status of the function.
1586:Middlewares/Third_Party/FreeRTOS/Source/CMSIS_RTOS/cmsis_os.c **** */
1587:Middlewares/Third_Party/FreeRTOS/Source/CMSIS_RTOS/cmsis_os.c **** osStatus osThreadList (uint8_t *buffer)
1588:Middlewares/Third_Party/FreeRTOS/Source/CMSIS_RTOS/cmsis_os.c **** {
 3180              		.loc 1 1588 1 is_stmt 1 view -0
 3181              		.cfi_startproc
 3182              		@ args = 0, pretend = 0, frame = 0
 3183              		@ frame_needed = 0, uses_anonymous_args = 0
 3184              		@ link register save eliminated.
1589:Middlewares/Third_Party/FreeRTOS/Source/CMSIS_RTOS/cmsis_os.c **** #if ( ( configUSE_TRACE_FACILITY == 1 ) && ( configUSE_STATS_FORMATTING_FUNCTIONS == 1 ) )
1590:Middlewares/Third_Party/FreeRTOS/Source/CMSIS_RTOS/cmsis_os.c ****   vTaskList((char *)buffer);
1591:Middlewares/Third_Party/FreeRTOS/Source/CMSIS_RTOS/cmsis_os.c **** #endif
1592:Middlewares/Third_Party/FreeRTOS/Source/CMSIS_RTOS/cmsis_os.c ****   return osOK;
 3185              		.loc 1 1592 3 view .LVU805
1593:Middlewares/Third_Party/FreeRTOS/Source/CMSIS_RTOS/cmsis_os.c **** }
 3186              		.loc 1 1593 1 is_stmt 0 view .LVU806
 3187 0000 0020     		movs	r0, #0
 3188              	.LVL250:
 3189              		.loc 1 1593 1 view .LVU807
 3190 0002 7047     		bx	lr
 3191              		.cfi_endproc
 3192              	.LFE154:
 3194              		.section	.text.osMessagePeek,"ax",%progbits
 3195              		.align	1
 3196              		.global	osMessagePeek
 3197              		.syntax unified
 3198              		.thumb
 3199              		.thumb_func
 3201              	osMessagePeek:
 3202              	.LVL251:
 3203              	.LFB155:
1594:Middlewares/Third_Party/FreeRTOS/Source/CMSIS_RTOS/cmsis_os.c **** 
ARM GAS  C:\Users\xixi\AppData\Local\Temp\ccei1Zb6.s 			page 94


1595:Middlewares/Third_Party/FreeRTOS/Source/CMSIS_RTOS/cmsis_os.c **** /**
1596:Middlewares/Third_Party/FreeRTOS/Source/CMSIS_RTOS/cmsis_os.c **** * @brief  Receive an item from a queue without removing the item from the queue.
1597:Middlewares/Third_Party/FreeRTOS/Source/CMSIS_RTOS/cmsis_os.c **** * @param  queue_id  message queue ID obtained with \ref osMessageCreate.
1598:Middlewares/Third_Party/FreeRTOS/Source/CMSIS_RTOS/cmsis_os.c **** * @param  millisec  timeout value or 0 in case of no time-out.
1599:Middlewares/Third_Party/FreeRTOS/Source/CMSIS_RTOS/cmsis_os.c **** * @retval event information that includes status code.
1600:Middlewares/Third_Party/FreeRTOS/Source/CMSIS_RTOS/cmsis_os.c **** */
1601:Middlewares/Third_Party/FreeRTOS/Source/CMSIS_RTOS/cmsis_os.c **** osEvent osMessagePeek (osMessageQId queue_id, uint32_t millisec)
1602:Middlewares/Third_Party/FreeRTOS/Source/CMSIS_RTOS/cmsis_os.c **** {
 3204              		.loc 1 1602 1 is_stmt 1 view -0
 3205              		.cfi_startproc
 3206              		@ args = 0, pretend = 0, frame = 16
 3207              		@ frame_needed = 0, uses_anonymous_args = 0
 3208              		.loc 1 1602 1 is_stmt 0 view .LVU809
 3209 0000 30B5     		push	{r4, r5, lr}
 3210              	.LCFI78:
 3211              		.cfi_def_cfa_offset 12
 3212              		.cfi_offset 4, -12
 3213              		.cfi_offset 5, -8
 3214              		.cfi_offset 14, -4
 3215 0002 85B0     		sub	sp, sp, #20
 3216              	.LCFI79:
 3217              		.cfi_def_cfa_offset 32
 3218 0004 0446     		mov	r4, r0
1603:Middlewares/Third_Party/FreeRTOS/Source/CMSIS_RTOS/cmsis_os.c ****   TickType_t ticks;
 3219              		.loc 1 1603 3 is_stmt 1 view .LVU810
1604:Middlewares/Third_Party/FreeRTOS/Source/CMSIS_RTOS/cmsis_os.c ****   osEvent event;
 3220              		.loc 1 1604 3 view .LVU811
1605:Middlewares/Third_Party/FreeRTOS/Source/CMSIS_RTOS/cmsis_os.c ****   
1606:Middlewares/Third_Party/FreeRTOS/Source/CMSIS_RTOS/cmsis_os.c ****   event.def.message_id = queue_id;
 3221              		.loc 1 1606 3 view .LVU812
 3222              		.loc 1 1606 24 is_stmt 0 view .LVU813
 3223 0006 0391     		str	r1, [sp, #12]
1607:Middlewares/Third_Party/FreeRTOS/Source/CMSIS_RTOS/cmsis_os.c ****   
1608:Middlewares/Third_Party/FreeRTOS/Source/CMSIS_RTOS/cmsis_os.c ****   if (queue_id == NULL) {
 3224              		.loc 1 1608 3 is_stmt 1 view .LVU814
 3225              		.loc 1 1608 6 is_stmt 0 view .LVU815
 3226 0008 89B1     		cbz	r1, .L244
 3227 000a 0846     		mov	r0, r1
 3228              	.LVL252:
 3229              		.loc 1 1608 6 view .LVU816
 3230 000c 1546     		mov	r5, r2
1609:Middlewares/Third_Party/FreeRTOS/Source/CMSIS_RTOS/cmsis_os.c ****     event.status = osErrorParameter;
1610:Middlewares/Third_Party/FreeRTOS/Source/CMSIS_RTOS/cmsis_os.c ****     return event;
1611:Middlewares/Third_Party/FreeRTOS/Source/CMSIS_RTOS/cmsis_os.c ****   }
1612:Middlewares/Third_Party/FreeRTOS/Source/CMSIS_RTOS/cmsis_os.c ****   
1613:Middlewares/Third_Party/FreeRTOS/Source/CMSIS_RTOS/cmsis_os.c ****   ticks = 0;
 3231              		.loc 1 1613 3 is_stmt 1 view .LVU817
 3232              	.LVL253:
1614:Middlewares/Third_Party/FreeRTOS/Source/CMSIS_RTOS/cmsis_os.c ****   if (millisec == osWaitForever) {
 3233              		.loc 1 1614 3 view .LVU818
1615:Middlewares/Third_Party/FreeRTOS/Source/CMSIS_RTOS/cmsis_os.c ****     ticks = portMAX_DELAY;
1616:Middlewares/Third_Party/FreeRTOS/Source/CMSIS_RTOS/cmsis_os.c ****   }
1617:Middlewares/Third_Party/FreeRTOS/Source/CMSIS_RTOS/cmsis_os.c ****   else if (millisec != 0) {
1618:Middlewares/Third_Party/FreeRTOS/Source/CMSIS_RTOS/cmsis_os.c ****     ticks = millisec / portTICK_PERIOD_MS;
1619:Middlewares/Third_Party/FreeRTOS/Source/CMSIS_RTOS/cmsis_os.c ****     if (ticks == 0) {
1620:Middlewares/Third_Party/FreeRTOS/Source/CMSIS_RTOS/cmsis_os.c ****       ticks = 1;
1621:Middlewares/Third_Party/FreeRTOS/Source/CMSIS_RTOS/cmsis_os.c ****     }
ARM GAS  C:\Users\xixi\AppData\Local\Temp\ccei1Zb6.s 			page 95


1622:Middlewares/Third_Party/FreeRTOS/Source/CMSIS_RTOS/cmsis_os.c ****   }
1623:Middlewares/Third_Party/FreeRTOS/Source/CMSIS_RTOS/cmsis_os.c ****   
1624:Middlewares/Third_Party/FreeRTOS/Source/CMSIS_RTOS/cmsis_os.c ****   if (xQueuePeek(queue_id, &event.value.v, ticks) == pdTRUE) 
 3234              		.loc 1 1624 3 view .LVU819
 3235              		.loc 1 1624 7 is_stmt 0 view .LVU820
 3236 000e 02A9     		add	r1, sp, #8
 3237              	.LVL254:
 3238              		.loc 1 1624 7 view .LVU821
 3239 0010 FFF7FEFF 		bl	xQueuePeek
 3240              	.LVL255:
 3241              		.loc 1 1624 6 view .LVU822
 3242 0014 0128     		cmp	r0, #1
 3243 0016 12D0     		beq	.L245
1625:Middlewares/Third_Party/FreeRTOS/Source/CMSIS_RTOS/cmsis_os.c ****   {
1626:Middlewares/Third_Party/FreeRTOS/Source/CMSIS_RTOS/cmsis_os.c ****     /* We have mail */
1627:Middlewares/Third_Party/FreeRTOS/Source/CMSIS_RTOS/cmsis_os.c ****     event.status = osEventMessage;
1628:Middlewares/Third_Party/FreeRTOS/Source/CMSIS_RTOS/cmsis_os.c ****   }
1629:Middlewares/Third_Party/FreeRTOS/Source/CMSIS_RTOS/cmsis_os.c ****   else 
1630:Middlewares/Third_Party/FreeRTOS/Source/CMSIS_RTOS/cmsis_os.c ****   {
1631:Middlewares/Third_Party/FreeRTOS/Source/CMSIS_RTOS/cmsis_os.c ****     event.status = (ticks == 0) ? osOK : osEventTimeout;
 3244              		.loc 1 1631 5 is_stmt 1 view .LVU823
 3245              		.loc 1 1631 40 is_stmt 0 view .LVU824
 3246 0018 05B1     		cbz	r5, .L241
 3247 001a 4025     		movs	r5, #64
 3248              	.LVL256:
 3249              	.L241:
 3250              		.loc 1 1631 18 discriminator 4 view .LVU825
 3251 001c 0195     		str	r5, [sp, #4]
 3252              	.L240:
1632:Middlewares/Third_Party/FreeRTOS/Source/CMSIS_RTOS/cmsis_os.c ****   }
1633:Middlewares/Third_Party/FreeRTOS/Source/CMSIS_RTOS/cmsis_os.c ****   
1634:Middlewares/Third_Party/FreeRTOS/Source/CMSIS_RTOS/cmsis_os.c ****   return event;
 3253              		.loc 1 1634 3 is_stmt 1 view .LVU826
 3254              		.loc 1 1634 10 is_stmt 0 view .LVU827
 3255 001e 04AB     		add	r3, sp, #16
 3256 0020 13E90700 		ldmdb	r3, {r0, r1, r2}
 3257 0024 84E80700 		stm	r4, {r0, r1, r2}
 3258              	.LVL257:
 3259              	.L236:
1635:Middlewares/Third_Party/FreeRTOS/Source/CMSIS_RTOS/cmsis_os.c **** }
 3260              		.loc 1 1635 1 view .LVU828
 3261 0028 2046     		mov	r0, r4
 3262 002a 05B0     		add	sp, sp, #20
 3263              	.LCFI80:
 3264              		.cfi_remember_state
 3265              		.cfi_def_cfa_offset 12
 3266              		@ sp needed
 3267 002c 30BD     		pop	{r4, r5, pc}
 3268              	.LVL258:
 3269              	.L244:
 3270              	.LCFI81:
 3271              		.cfi_restore_state
1609:Middlewares/Third_Party/FreeRTOS/Source/CMSIS_RTOS/cmsis_os.c ****     return event;
 3272              		.loc 1 1609 5 is_stmt 1 view .LVU829
1609:Middlewares/Third_Party/FreeRTOS/Source/CMSIS_RTOS/cmsis_os.c ****     return event;
 3273              		.loc 1 1609 18 is_stmt 0 view .LVU830
 3274 002e 8023     		movs	r3, #128
ARM GAS  C:\Users\xixi\AppData\Local\Temp\ccei1Zb6.s 			page 96


 3275 0030 0193     		str	r3, [sp, #4]
1610:Middlewares/Third_Party/FreeRTOS/Source/CMSIS_RTOS/cmsis_os.c ****   }
 3276              		.loc 1 1610 5 is_stmt 1 view .LVU831
1610:Middlewares/Third_Party/FreeRTOS/Source/CMSIS_RTOS/cmsis_os.c ****   }
 3277              		.loc 1 1610 12 is_stmt 0 view .LVU832
 3278 0032 04AB     		add	r3, sp, #16
 3279 0034 13E90700 		ldmdb	r3, {r0, r1, r2}
 3280              	.LVL259:
1610:Middlewares/Third_Party/FreeRTOS/Source/CMSIS_RTOS/cmsis_os.c ****   }
 3281              		.loc 1 1610 12 view .LVU833
 3282 0038 84E80700 		stm	r4, {r0, r1, r2}
 3283 003c F4E7     		b	.L236
 3284              	.LVL260:
 3285              	.L245:
1627:Middlewares/Third_Party/FreeRTOS/Source/CMSIS_RTOS/cmsis_os.c ****   }
 3286              		.loc 1 1627 5 is_stmt 1 view .LVU834
1627:Middlewares/Third_Party/FreeRTOS/Source/CMSIS_RTOS/cmsis_os.c ****   }
 3287              		.loc 1 1627 18 is_stmt 0 view .LVU835
 3288 003e 1023     		movs	r3, #16
 3289 0040 0193     		str	r3, [sp, #4]
 3290 0042 ECE7     		b	.L240
 3291              		.cfi_endproc
 3292              	.LFE155:
 3294              		.section	.text.osMessageWaiting,"ax",%progbits
 3295              		.align	1
 3296              		.global	osMessageWaiting
 3297              		.syntax unified
 3298              		.thumb
 3299              		.thumb_func
 3301              	osMessageWaiting:
 3302              	.LVL261:
 3303              	.LFB156:
1636:Middlewares/Third_Party/FreeRTOS/Source/CMSIS_RTOS/cmsis_os.c **** 
1637:Middlewares/Third_Party/FreeRTOS/Source/CMSIS_RTOS/cmsis_os.c **** /**
1638:Middlewares/Third_Party/FreeRTOS/Source/CMSIS_RTOS/cmsis_os.c **** * @brief  Get the number of messaged stored in a queue.
1639:Middlewares/Third_Party/FreeRTOS/Source/CMSIS_RTOS/cmsis_os.c **** * @param  queue_id  message queue ID obtained with \ref osMessageCreate.
1640:Middlewares/Third_Party/FreeRTOS/Source/CMSIS_RTOS/cmsis_os.c **** * @retval number of messages stored in a queue.
1641:Middlewares/Third_Party/FreeRTOS/Source/CMSIS_RTOS/cmsis_os.c **** */
1642:Middlewares/Third_Party/FreeRTOS/Source/CMSIS_RTOS/cmsis_os.c **** uint32_t osMessageWaiting(osMessageQId queue_id)
1643:Middlewares/Third_Party/FreeRTOS/Source/CMSIS_RTOS/cmsis_os.c **** {
 3304              		.loc 1 1643 1 is_stmt 1 view -0
 3305              		.cfi_startproc
 3306              		@ args = 0, pretend = 0, frame = 0
 3307              		@ frame_needed = 0, uses_anonymous_args = 0
 3308              		.loc 1 1643 1 is_stmt 0 view .LVU837
 3309 0000 10B5     		push	{r4, lr}
 3310              	.LCFI82:
 3311              		.cfi_def_cfa_offset 8
 3312              		.cfi_offset 4, -8
 3313              		.cfi_offset 14, -4
 3314 0002 0446     		mov	r4, r0
1644:Middlewares/Third_Party/FreeRTOS/Source/CMSIS_RTOS/cmsis_os.c ****   if (inHandlerMode()) {
 3315              		.loc 1 1644 3 is_stmt 1 view .LVU838
 3316              		.loc 1 1644 7 is_stmt 0 view .LVU839
 3317 0004 FFF7FEFF 		bl	inHandlerMode
 3318              	.LVL262:
 3319              		.loc 1 1644 6 view .LVU840
ARM GAS  C:\Users\xixi\AppData\Local\Temp\ccei1Zb6.s 			page 97


 3320 0008 18B1     		cbz	r0, .L247
1645:Middlewares/Third_Party/FreeRTOS/Source/CMSIS_RTOS/cmsis_os.c ****     return uxQueueMessagesWaitingFromISR(queue_id);
 3321              		.loc 1 1645 5 is_stmt 1 view .LVU841
 3322              		.loc 1 1645 12 is_stmt 0 view .LVU842
 3323 000a 2046     		mov	r0, r4
 3324 000c FFF7FEFF 		bl	uxQueueMessagesWaitingFromISR
 3325              	.LVL263:
 3326              	.L246:
1646:Middlewares/Third_Party/FreeRTOS/Source/CMSIS_RTOS/cmsis_os.c ****   }
1647:Middlewares/Third_Party/FreeRTOS/Source/CMSIS_RTOS/cmsis_os.c ****   else
1648:Middlewares/Third_Party/FreeRTOS/Source/CMSIS_RTOS/cmsis_os.c ****   {
1649:Middlewares/Third_Party/FreeRTOS/Source/CMSIS_RTOS/cmsis_os.c ****     return uxQueueMessagesWaiting(queue_id);
1650:Middlewares/Third_Party/FreeRTOS/Source/CMSIS_RTOS/cmsis_os.c ****   }
1651:Middlewares/Third_Party/FreeRTOS/Source/CMSIS_RTOS/cmsis_os.c **** }
 3327              		.loc 1 1651 1 view .LVU843
 3328 0010 10BD     		pop	{r4, pc}
 3329              	.LVL264:
 3330              	.L247:
1649:Middlewares/Third_Party/FreeRTOS/Source/CMSIS_RTOS/cmsis_os.c ****   }
 3331              		.loc 1 1649 5 is_stmt 1 view .LVU844
1649:Middlewares/Third_Party/FreeRTOS/Source/CMSIS_RTOS/cmsis_os.c ****   }
 3332              		.loc 1 1649 12 is_stmt 0 view .LVU845
 3333 0012 2046     		mov	r0, r4
 3334 0014 FFF7FEFF 		bl	uxQueueMessagesWaiting
 3335              	.LVL265:
 3336 0018 FAE7     		b	.L246
 3337              		.cfi_endproc
 3338              	.LFE156:
 3340              		.section	.text.osMessageAvailableSpace,"ax",%progbits
 3341              		.align	1
 3342              		.global	osMessageAvailableSpace
 3343              		.syntax unified
 3344              		.thumb
 3345              		.thumb_func
 3347              	osMessageAvailableSpace:
 3348              	.LVL266:
 3349              	.LFB157:
1652:Middlewares/Third_Party/FreeRTOS/Source/CMSIS_RTOS/cmsis_os.c **** 
1653:Middlewares/Third_Party/FreeRTOS/Source/CMSIS_RTOS/cmsis_os.c **** /**
1654:Middlewares/Third_Party/FreeRTOS/Source/CMSIS_RTOS/cmsis_os.c **** * @brief  Get the available space in a message queue.
1655:Middlewares/Third_Party/FreeRTOS/Source/CMSIS_RTOS/cmsis_os.c **** * @param  queue_id  message queue ID obtained with \ref osMessageCreate.
1656:Middlewares/Third_Party/FreeRTOS/Source/CMSIS_RTOS/cmsis_os.c **** * @retval available space in a message queue.
1657:Middlewares/Third_Party/FreeRTOS/Source/CMSIS_RTOS/cmsis_os.c **** */
1658:Middlewares/Third_Party/FreeRTOS/Source/CMSIS_RTOS/cmsis_os.c **** uint32_t osMessageAvailableSpace(osMessageQId queue_id)  
1659:Middlewares/Third_Party/FreeRTOS/Source/CMSIS_RTOS/cmsis_os.c **** {
 3350              		.loc 1 1659 1 is_stmt 1 view -0
 3351              		.cfi_startproc
 3352              		@ args = 0, pretend = 0, frame = 0
 3353              		@ frame_needed = 0, uses_anonymous_args = 0
 3354              		.loc 1 1659 1 is_stmt 0 view .LVU847
 3355 0000 08B5     		push	{r3, lr}
 3356              	.LCFI83:
 3357              		.cfi_def_cfa_offset 8
 3358              		.cfi_offset 3, -8
 3359              		.cfi_offset 14, -4
1660:Middlewares/Third_Party/FreeRTOS/Source/CMSIS_RTOS/cmsis_os.c ****   return uxQueueSpacesAvailable(queue_id);
 3360              		.loc 1 1660 3 is_stmt 1 view .LVU848
ARM GAS  C:\Users\xixi\AppData\Local\Temp\ccei1Zb6.s 			page 98


 3361              		.loc 1 1660 10 is_stmt 0 view .LVU849
 3362 0002 FFF7FEFF 		bl	uxQueueSpacesAvailable
 3363              	.LVL267:
1661:Middlewares/Third_Party/FreeRTOS/Source/CMSIS_RTOS/cmsis_os.c **** }
 3364              		.loc 1 1661 1 view .LVU850
 3365 0006 08BD     		pop	{r3, pc}
 3366              		.cfi_endproc
 3367              	.LFE157:
 3369              		.section	.text.osMessageDelete,"ax",%progbits
 3370              		.align	1
 3371              		.global	osMessageDelete
 3372              		.syntax unified
 3373              		.thumb
 3374              		.thumb_func
 3376              	osMessageDelete:
 3377              	.LVL268:
 3378              	.LFB158:
1662:Middlewares/Third_Party/FreeRTOS/Source/CMSIS_RTOS/cmsis_os.c **** 
1663:Middlewares/Third_Party/FreeRTOS/Source/CMSIS_RTOS/cmsis_os.c **** /**
1664:Middlewares/Third_Party/FreeRTOS/Source/CMSIS_RTOS/cmsis_os.c **** * @brief Delete a Message Queue
1665:Middlewares/Third_Party/FreeRTOS/Source/CMSIS_RTOS/cmsis_os.c **** * @param  queue_id  message queue ID obtained with \ref osMessageCreate.
1666:Middlewares/Third_Party/FreeRTOS/Source/CMSIS_RTOS/cmsis_os.c **** * @retval  status code that indicates the execution status of the function.
1667:Middlewares/Third_Party/FreeRTOS/Source/CMSIS_RTOS/cmsis_os.c **** */
1668:Middlewares/Third_Party/FreeRTOS/Source/CMSIS_RTOS/cmsis_os.c **** osStatus osMessageDelete (osMessageQId queue_id)
1669:Middlewares/Third_Party/FreeRTOS/Source/CMSIS_RTOS/cmsis_os.c **** {
 3379              		.loc 1 1669 1 is_stmt 1 view -0
 3380              		.cfi_startproc
 3381              		@ args = 0, pretend = 0, frame = 0
 3382              		@ frame_needed = 0, uses_anonymous_args = 0
 3383              		.loc 1 1669 1 is_stmt 0 view .LVU852
 3384 0000 10B5     		push	{r4, lr}
 3385              	.LCFI84:
 3386              		.cfi_def_cfa_offset 8
 3387              		.cfi_offset 4, -8
 3388              		.cfi_offset 14, -4
 3389 0002 0446     		mov	r4, r0
1670:Middlewares/Third_Party/FreeRTOS/Source/CMSIS_RTOS/cmsis_os.c ****   if (inHandlerMode()) {
 3390              		.loc 1 1670 3 is_stmt 1 view .LVU853
 3391              		.loc 1 1670 7 is_stmt 0 view .LVU854
 3392 0004 FFF7FEFF 		bl	inHandlerMode
 3393              	.LVL269:
 3394              		.loc 1 1670 6 view .LVU855
 3395 0008 20B9     		cbnz	r0, .L254
1671:Middlewares/Third_Party/FreeRTOS/Source/CMSIS_RTOS/cmsis_os.c ****     return osErrorISR;
1672:Middlewares/Third_Party/FreeRTOS/Source/CMSIS_RTOS/cmsis_os.c ****   }
1673:Middlewares/Third_Party/FreeRTOS/Source/CMSIS_RTOS/cmsis_os.c **** 
1674:Middlewares/Third_Party/FreeRTOS/Source/CMSIS_RTOS/cmsis_os.c ****   vQueueDelete(queue_id);
 3396              		.loc 1 1674 3 is_stmt 1 view .LVU856
 3397 000a 2046     		mov	r0, r4
 3398 000c FFF7FEFF 		bl	vQueueDelete
 3399              	.LVL270:
1675:Middlewares/Third_Party/FreeRTOS/Source/CMSIS_RTOS/cmsis_os.c **** 
1676:Middlewares/Third_Party/FreeRTOS/Source/CMSIS_RTOS/cmsis_os.c ****   return osOK; 
 3400              		.loc 1 1676 3 view .LVU857
 3401              		.loc 1 1676 10 is_stmt 0 view .LVU858
 3402 0010 0020     		movs	r0, #0
 3403              	.L252:
ARM GAS  C:\Users\xixi\AppData\Local\Temp\ccei1Zb6.s 			page 99


1677:Middlewares/Third_Party/FreeRTOS/Source/CMSIS_RTOS/cmsis_os.c **** }
 3404              		.loc 1 1677 1 view .LVU859
 3405 0012 10BD     		pop	{r4, pc}
 3406              	.LVL271:
 3407              	.L254:
1671:Middlewares/Third_Party/FreeRTOS/Source/CMSIS_RTOS/cmsis_os.c ****     return osErrorISR;
 3408              		.loc 1 1671 12 view .LVU860
 3409 0014 8220     		movs	r0, #130
 3410 0016 FCE7     		b	.L252
 3411              		.cfi_endproc
 3412              	.LFE158:
 3414              		.section	.text.osRecursiveMutexCreate,"ax",%progbits
 3415              		.align	1
 3416              		.global	osRecursiveMutexCreate
 3417              		.syntax unified
 3418              		.thumb
 3419              		.thumb_func
 3421              	osRecursiveMutexCreate:
 3422              	.LVL272:
 3423              	.LFB159:
1678:Middlewares/Third_Party/FreeRTOS/Source/CMSIS_RTOS/cmsis_os.c **** 
1679:Middlewares/Third_Party/FreeRTOS/Source/CMSIS_RTOS/cmsis_os.c **** /**
1680:Middlewares/Third_Party/FreeRTOS/Source/CMSIS_RTOS/cmsis_os.c **** * @brief  Create and Initialize a Recursive Mutex
1681:Middlewares/Third_Party/FreeRTOS/Source/CMSIS_RTOS/cmsis_os.c **** * @param  mutex_def     mutex definition referenced with \ref osMutex.
1682:Middlewares/Third_Party/FreeRTOS/Source/CMSIS_RTOS/cmsis_os.c **** * @retval  mutex ID for reference by other functions or NULL in case of error..
1683:Middlewares/Third_Party/FreeRTOS/Source/CMSIS_RTOS/cmsis_os.c **** */
1684:Middlewares/Third_Party/FreeRTOS/Source/CMSIS_RTOS/cmsis_os.c **** osMutexId osRecursiveMutexCreate (const osMutexDef_t *mutex_def)
1685:Middlewares/Third_Party/FreeRTOS/Source/CMSIS_RTOS/cmsis_os.c **** {
 3424              		.loc 1 1685 1 is_stmt 1 view -0
 3425              		.cfi_startproc
 3426              		@ args = 0, pretend = 0, frame = 0
 3427              		@ frame_needed = 0, uses_anonymous_args = 0
 3428              		@ link register save eliminated.
1686:Middlewares/Third_Party/FreeRTOS/Source/CMSIS_RTOS/cmsis_os.c **** #if (configUSE_RECURSIVE_MUTEXES == 1)
1687:Middlewares/Third_Party/FreeRTOS/Source/CMSIS_RTOS/cmsis_os.c **** #if( configSUPPORT_STATIC_ALLOCATION == 1 ) && ( configSUPPORT_DYNAMIC_ALLOCATION == 1 )
1688:Middlewares/Third_Party/FreeRTOS/Source/CMSIS_RTOS/cmsis_os.c **** 
1689:Middlewares/Third_Party/FreeRTOS/Source/CMSIS_RTOS/cmsis_os.c ****   if (mutex_def->controlblock != NULL){
1690:Middlewares/Third_Party/FreeRTOS/Source/CMSIS_RTOS/cmsis_os.c ****     return xSemaphoreCreateRecursiveMutexStatic( mutex_def->controlblock );
1691:Middlewares/Third_Party/FreeRTOS/Source/CMSIS_RTOS/cmsis_os.c ****   }
1692:Middlewares/Third_Party/FreeRTOS/Source/CMSIS_RTOS/cmsis_os.c ****   else {
1693:Middlewares/Third_Party/FreeRTOS/Source/CMSIS_RTOS/cmsis_os.c ****     return xSemaphoreCreateRecursiveMutex();
1694:Middlewares/Third_Party/FreeRTOS/Source/CMSIS_RTOS/cmsis_os.c ****   }
1695:Middlewares/Third_Party/FreeRTOS/Source/CMSIS_RTOS/cmsis_os.c **** #elif ( configSUPPORT_STATIC_ALLOCATION == 1 )
1696:Middlewares/Third_Party/FreeRTOS/Source/CMSIS_RTOS/cmsis_os.c ****   return xSemaphoreCreateRecursiveMutexStatic( mutex_def->controlblock );
1697:Middlewares/Third_Party/FreeRTOS/Source/CMSIS_RTOS/cmsis_os.c **** #else 
1698:Middlewares/Third_Party/FreeRTOS/Source/CMSIS_RTOS/cmsis_os.c ****   return xSemaphoreCreateRecursiveMutex();
1699:Middlewares/Third_Party/FreeRTOS/Source/CMSIS_RTOS/cmsis_os.c **** #endif
1700:Middlewares/Third_Party/FreeRTOS/Source/CMSIS_RTOS/cmsis_os.c **** #else
1701:Middlewares/Third_Party/FreeRTOS/Source/CMSIS_RTOS/cmsis_os.c ****   return NULL;
 3429              		.loc 1 1701 3 view .LVU862
1702:Middlewares/Third_Party/FreeRTOS/Source/CMSIS_RTOS/cmsis_os.c **** #endif	
1703:Middlewares/Third_Party/FreeRTOS/Source/CMSIS_RTOS/cmsis_os.c **** }
 3430              		.loc 1 1703 1 is_stmt 0 view .LVU863
 3431 0000 0020     		movs	r0, #0
 3432              	.LVL273:
 3433              		.loc 1 1703 1 view .LVU864
 3434 0002 7047     		bx	lr
ARM GAS  C:\Users\xixi\AppData\Local\Temp\ccei1Zb6.s 			page 100


 3435              		.cfi_endproc
 3436              	.LFE159:
 3438              		.section	.text.osRecursiveMutexRelease,"ax",%progbits
 3439              		.align	1
 3440              		.global	osRecursiveMutexRelease
 3441              		.syntax unified
 3442              		.thumb
 3443              		.thumb_func
 3445              	osRecursiveMutexRelease:
 3446              	.LVL274:
 3447              	.LFB160:
1704:Middlewares/Third_Party/FreeRTOS/Source/CMSIS_RTOS/cmsis_os.c **** 
1705:Middlewares/Third_Party/FreeRTOS/Source/CMSIS_RTOS/cmsis_os.c **** /**
1706:Middlewares/Third_Party/FreeRTOS/Source/CMSIS_RTOS/cmsis_os.c **** * @brief  Release a Recursive Mutex
1707:Middlewares/Third_Party/FreeRTOS/Source/CMSIS_RTOS/cmsis_os.c **** * @param   mutex_id      mutex ID obtained by \ref osRecursiveMutexCreate.
1708:Middlewares/Third_Party/FreeRTOS/Source/CMSIS_RTOS/cmsis_os.c **** * @retval  status code that indicates the execution status of the function.
1709:Middlewares/Third_Party/FreeRTOS/Source/CMSIS_RTOS/cmsis_os.c **** */
1710:Middlewares/Third_Party/FreeRTOS/Source/CMSIS_RTOS/cmsis_os.c **** osStatus osRecursiveMutexRelease (osMutexId mutex_id)
1711:Middlewares/Third_Party/FreeRTOS/Source/CMSIS_RTOS/cmsis_os.c **** {
 3448              		.loc 1 1711 1 is_stmt 1 view -0
 3449              		.cfi_startproc
 3450              		@ args = 0, pretend = 0, frame = 0
 3451              		@ frame_needed = 0, uses_anonymous_args = 0
 3452              		@ link register save eliminated.
1712:Middlewares/Third_Party/FreeRTOS/Source/CMSIS_RTOS/cmsis_os.c **** #if (configUSE_RECURSIVE_MUTEXES == 1)
1713:Middlewares/Third_Party/FreeRTOS/Source/CMSIS_RTOS/cmsis_os.c ****   osStatus result = osOK;
1714:Middlewares/Third_Party/FreeRTOS/Source/CMSIS_RTOS/cmsis_os.c ****  
1715:Middlewares/Third_Party/FreeRTOS/Source/CMSIS_RTOS/cmsis_os.c ****   if (xSemaphoreGiveRecursive(mutex_id) != pdTRUE) 
1716:Middlewares/Third_Party/FreeRTOS/Source/CMSIS_RTOS/cmsis_os.c ****   {
1717:Middlewares/Third_Party/FreeRTOS/Source/CMSIS_RTOS/cmsis_os.c ****     result = osErrorOS;
1718:Middlewares/Third_Party/FreeRTOS/Source/CMSIS_RTOS/cmsis_os.c ****   }
1719:Middlewares/Third_Party/FreeRTOS/Source/CMSIS_RTOS/cmsis_os.c ****   return result;
1720:Middlewares/Third_Party/FreeRTOS/Source/CMSIS_RTOS/cmsis_os.c **** #else
1721:Middlewares/Third_Party/FreeRTOS/Source/CMSIS_RTOS/cmsis_os.c **** 	return osErrorResource;
 3453              		.loc 1 1721 2 view .LVU866
1722:Middlewares/Third_Party/FreeRTOS/Source/CMSIS_RTOS/cmsis_os.c **** #endif
1723:Middlewares/Third_Party/FreeRTOS/Source/CMSIS_RTOS/cmsis_os.c **** }
 3454              		.loc 1 1723 1 is_stmt 0 view .LVU867
 3455 0000 8120     		movs	r0, #129
 3456              	.LVL275:
 3457              		.loc 1 1723 1 view .LVU868
 3458 0002 7047     		bx	lr
 3459              		.cfi_endproc
 3460              	.LFE160:
 3462              		.section	.text.osRecursiveMutexWait,"ax",%progbits
 3463              		.align	1
 3464              		.global	osRecursiveMutexWait
 3465              		.syntax unified
 3466              		.thumb
 3467              		.thumb_func
 3469              	osRecursiveMutexWait:
 3470              	.LVL276:
 3471              	.LFB161:
1724:Middlewares/Third_Party/FreeRTOS/Source/CMSIS_RTOS/cmsis_os.c **** 
1725:Middlewares/Third_Party/FreeRTOS/Source/CMSIS_RTOS/cmsis_os.c **** /**
1726:Middlewares/Third_Party/FreeRTOS/Source/CMSIS_RTOS/cmsis_os.c **** * @brief  Release a Recursive Mutex
1727:Middlewares/Third_Party/FreeRTOS/Source/CMSIS_RTOS/cmsis_os.c **** * @param   mutex_id    mutex ID obtained by \ref osRecursiveMutexCreate.
ARM GAS  C:\Users\xixi\AppData\Local\Temp\ccei1Zb6.s 			page 101


1728:Middlewares/Third_Party/FreeRTOS/Source/CMSIS_RTOS/cmsis_os.c **** * @param millisec      timeout value or 0 in case of no time-out.
1729:Middlewares/Third_Party/FreeRTOS/Source/CMSIS_RTOS/cmsis_os.c **** * @retval  status code that indicates the execution status of the function.
1730:Middlewares/Third_Party/FreeRTOS/Source/CMSIS_RTOS/cmsis_os.c **** */
1731:Middlewares/Third_Party/FreeRTOS/Source/CMSIS_RTOS/cmsis_os.c **** osStatus osRecursiveMutexWait (osMutexId mutex_id, uint32_t millisec)
1732:Middlewares/Third_Party/FreeRTOS/Source/CMSIS_RTOS/cmsis_os.c **** {
 3472              		.loc 1 1732 1 is_stmt 1 view -0
 3473              		.cfi_startproc
 3474              		@ args = 0, pretend = 0, frame = 0
 3475              		@ frame_needed = 0, uses_anonymous_args = 0
 3476              		@ link register save eliminated.
1733:Middlewares/Third_Party/FreeRTOS/Source/CMSIS_RTOS/cmsis_os.c **** #if (configUSE_RECURSIVE_MUTEXES == 1)
1734:Middlewares/Third_Party/FreeRTOS/Source/CMSIS_RTOS/cmsis_os.c ****   TickType_t ticks;
1735:Middlewares/Third_Party/FreeRTOS/Source/CMSIS_RTOS/cmsis_os.c ****   
1736:Middlewares/Third_Party/FreeRTOS/Source/CMSIS_RTOS/cmsis_os.c ****   if (mutex_id == NULL)
1737:Middlewares/Third_Party/FreeRTOS/Source/CMSIS_RTOS/cmsis_os.c ****   {
1738:Middlewares/Third_Party/FreeRTOS/Source/CMSIS_RTOS/cmsis_os.c ****     return osErrorParameter;
1739:Middlewares/Third_Party/FreeRTOS/Source/CMSIS_RTOS/cmsis_os.c ****   }
1740:Middlewares/Third_Party/FreeRTOS/Source/CMSIS_RTOS/cmsis_os.c ****   
1741:Middlewares/Third_Party/FreeRTOS/Source/CMSIS_RTOS/cmsis_os.c ****   ticks = 0;
1742:Middlewares/Third_Party/FreeRTOS/Source/CMSIS_RTOS/cmsis_os.c ****   if (millisec == osWaitForever) 
1743:Middlewares/Third_Party/FreeRTOS/Source/CMSIS_RTOS/cmsis_os.c ****   {
1744:Middlewares/Third_Party/FreeRTOS/Source/CMSIS_RTOS/cmsis_os.c ****     ticks = portMAX_DELAY;
1745:Middlewares/Third_Party/FreeRTOS/Source/CMSIS_RTOS/cmsis_os.c ****   }
1746:Middlewares/Third_Party/FreeRTOS/Source/CMSIS_RTOS/cmsis_os.c ****   else if (millisec != 0) 
1747:Middlewares/Third_Party/FreeRTOS/Source/CMSIS_RTOS/cmsis_os.c ****   {
1748:Middlewares/Third_Party/FreeRTOS/Source/CMSIS_RTOS/cmsis_os.c ****     ticks = millisec / portTICK_PERIOD_MS;
1749:Middlewares/Third_Party/FreeRTOS/Source/CMSIS_RTOS/cmsis_os.c ****     if (ticks == 0) 
1750:Middlewares/Third_Party/FreeRTOS/Source/CMSIS_RTOS/cmsis_os.c ****     {
1751:Middlewares/Third_Party/FreeRTOS/Source/CMSIS_RTOS/cmsis_os.c ****       ticks = 1;
1752:Middlewares/Third_Party/FreeRTOS/Source/CMSIS_RTOS/cmsis_os.c ****     }
1753:Middlewares/Third_Party/FreeRTOS/Source/CMSIS_RTOS/cmsis_os.c ****   }
1754:Middlewares/Third_Party/FreeRTOS/Source/CMSIS_RTOS/cmsis_os.c ****   
1755:Middlewares/Third_Party/FreeRTOS/Source/CMSIS_RTOS/cmsis_os.c ****   if (xSemaphoreTakeRecursive(mutex_id, ticks) != pdTRUE) 
1756:Middlewares/Third_Party/FreeRTOS/Source/CMSIS_RTOS/cmsis_os.c ****   {
1757:Middlewares/Third_Party/FreeRTOS/Source/CMSIS_RTOS/cmsis_os.c ****     return osErrorOS;
1758:Middlewares/Third_Party/FreeRTOS/Source/CMSIS_RTOS/cmsis_os.c ****   }
1759:Middlewares/Third_Party/FreeRTOS/Source/CMSIS_RTOS/cmsis_os.c ****   return osOK;
1760:Middlewares/Third_Party/FreeRTOS/Source/CMSIS_RTOS/cmsis_os.c **** #else
1761:Middlewares/Third_Party/FreeRTOS/Source/CMSIS_RTOS/cmsis_os.c **** 	return osErrorResource;
 3477              		.loc 1 1761 2 view .LVU870
1762:Middlewares/Third_Party/FreeRTOS/Source/CMSIS_RTOS/cmsis_os.c **** #endif
1763:Middlewares/Third_Party/FreeRTOS/Source/CMSIS_RTOS/cmsis_os.c **** }
 3478              		.loc 1 1763 1 is_stmt 0 view .LVU871
 3479 0000 8120     		movs	r0, #129
 3480              	.LVL277:
 3481              		.loc 1 1763 1 view .LVU872
 3482 0002 7047     		bx	lr
 3483              		.cfi_endproc
 3484              	.LFE161:
 3486              		.section	.text.osSemaphoreGetCount,"ax",%progbits
 3487              		.align	1
 3488              		.global	osSemaphoreGetCount
 3489              		.syntax unified
 3490              		.thumb
 3491              		.thumb_func
 3493              	osSemaphoreGetCount:
 3494              	.LVL278:
ARM GAS  C:\Users\xixi\AppData\Local\Temp\ccei1Zb6.s 			page 102


 3495              	.LFB162:
1764:Middlewares/Third_Party/FreeRTOS/Source/CMSIS_RTOS/cmsis_os.c **** 
1765:Middlewares/Third_Party/FreeRTOS/Source/CMSIS_RTOS/cmsis_os.c **** /**
1766:Middlewares/Third_Party/FreeRTOS/Source/CMSIS_RTOS/cmsis_os.c **** * @brief  Returns the current count value of a counting semaphore
1767:Middlewares/Third_Party/FreeRTOS/Source/CMSIS_RTOS/cmsis_os.c **** * @param  semaphore_id  semaphore_id ID obtained by \ref osSemaphoreCreate.
1768:Middlewares/Third_Party/FreeRTOS/Source/CMSIS_RTOS/cmsis_os.c **** * @retval  count value
1769:Middlewares/Third_Party/FreeRTOS/Source/CMSIS_RTOS/cmsis_os.c **** */
1770:Middlewares/Third_Party/FreeRTOS/Source/CMSIS_RTOS/cmsis_os.c **** uint32_t osSemaphoreGetCount(osSemaphoreId semaphore_id)
1771:Middlewares/Third_Party/FreeRTOS/Source/CMSIS_RTOS/cmsis_os.c **** {
 3496              		.loc 1 1771 1 is_stmt 1 view -0
 3497              		.cfi_startproc
 3498              		@ args = 0, pretend = 0, frame = 0
 3499              		@ frame_needed = 0, uses_anonymous_args = 0
 3500              		.loc 1 1771 1 is_stmt 0 view .LVU874
 3501 0000 08B5     		push	{r3, lr}
 3502              	.LCFI85:
 3503              		.cfi_def_cfa_offset 8
 3504              		.cfi_offset 3, -8
 3505              		.cfi_offset 14, -4
1772:Middlewares/Third_Party/FreeRTOS/Source/CMSIS_RTOS/cmsis_os.c ****   return uxSemaphoreGetCount(semaphore_id);
 3506              		.loc 1 1772 3 is_stmt 1 view .LVU875
 3507              		.loc 1 1772 10 is_stmt 0 view .LVU876
 3508 0002 FFF7FEFF 		bl	uxQueueMessagesWaiting
 3509              	.LVL279:
1773:Middlewares/Third_Party/FreeRTOS/Source/CMSIS_RTOS/cmsis_os.c **** }
 3510              		.loc 1 1773 1 view .LVU877
 3511 0006 08BD     		pop	{r3, pc}
 3512              		.cfi_endproc
 3513              	.LFE162:
 3515              		.text
 3516              	.Letext0:
 3517              		.file 4 "c:\\program files (x86)\\gnu arm embedded toolchain\\10 2021.10\\arm-none-eabi\\include\\
 3518              		.file 5 "c:\\program files (x86)\\gnu arm embedded toolchain\\10 2021.10\\arm-none-eabi\\include\\
 3519              		.file 6 "Middlewares/Third_Party/FreeRTOS/Source/include/projdefs.h"
 3520              		.file 7 "Middlewares/Third_Party/FreeRTOS/Source/include/FreeRTOS.h"
 3521              		.file 8 "Middlewares/Third_Party/FreeRTOS/Source/include/task.h"
 3522              		.file 9 "Middlewares/Third_Party/FreeRTOS/Source/include/timers.h"
 3523              		.file 10 "Middlewares/Third_Party/FreeRTOS/Source/include/queue.h"
 3524              		.file 11 "Middlewares/Third_Party/FreeRTOS/Source/include/semphr.h"
 3525              		.file 12 "Middlewares/Third_Party/FreeRTOS/Source/CMSIS_RTOS/cmsis_os.h"
 3526              		.file 13 "Middlewares/Third_Party/FreeRTOS/Source/include/portable.h"
ARM GAS  C:\Users\xixi\AppData\Local\Temp\ccei1Zb6.s 			page 103


DEFINED SYMBOLS
                            *ABS*:00000000 cmsis_os.c
C:\Users\xixi\AppData\Local\Temp\ccei1Zb6.s:20     .text.makeFreeRtosPriority:00000000 $t
C:\Users\xixi\AppData\Local\Temp\ccei1Zb6.s:25     .text.makeFreeRtosPriority:00000000 makeFreeRtosPriority
C:\Users\xixi\AppData\Local\Temp\ccei1Zb6.s:57     .text.makeCmsisPriority:00000000 $t
C:\Users\xixi\AppData\Local\Temp\ccei1Zb6.s:62     .text.makeCmsisPriority:00000000 makeCmsisPriority
C:\Users\xixi\AppData\Local\Temp\ccei1Zb6.s:96     .text.inHandlerMode:00000000 $t
C:\Users\xixi\AppData\Local\Temp\ccei1Zb6.s:101    .text.inHandlerMode:00000000 inHandlerMode
C:\Users\xixi\AppData\Local\Temp\ccei1Zb6.s:136    .text.osKernelStart:00000000 $t
C:\Users\xixi\AppData\Local\Temp\ccei1Zb6.s:142    .text.osKernelStart:00000000 osKernelStart
C:\Users\xixi\AppData\Local\Temp\ccei1Zb6.s:164    .text.osKernelRunning:00000000 $t
C:\Users\xixi\AppData\Local\Temp\ccei1Zb6.s:170    .text.osKernelRunning:00000000 osKernelRunning
C:\Users\xixi\AppData\Local\Temp\ccei1Zb6.s:201    .text.osKernelSysTick:00000000 $t
C:\Users\xixi\AppData\Local\Temp\ccei1Zb6.s:207    .text.osKernelSysTick:00000000 osKernelSysTick
C:\Users\xixi\AppData\Local\Temp\ccei1Zb6.s:241    .text.osThreadCreate:00000000 $t
C:\Users\xixi\AppData\Local\Temp\ccei1Zb6.s:247    .text.osThreadCreate:00000000 osThreadCreate
C:\Users\xixi\AppData\Local\Temp\ccei1Zb6.s:352    .text.osThreadGetId:00000000 $t
C:\Users\xixi\AppData\Local\Temp\ccei1Zb6.s:358    .text.osThreadGetId:00000000 osThreadGetId
C:\Users\xixi\AppData\Local\Temp\ccei1Zb6.s:379    .text.osThreadTerminate:00000000 $t
C:\Users\xixi\AppData\Local\Temp\ccei1Zb6.s:385    .text.osThreadTerminate:00000000 osThreadTerminate
C:\Users\xixi\AppData\Local\Temp\ccei1Zb6.s:409    .text.osThreadYield:00000000 $t
C:\Users\xixi\AppData\Local\Temp\ccei1Zb6.s:415    .text.osThreadYield:00000000 osThreadYield
C:\Users\xixi\AppData\Local\Temp\ccei1Zb6.s:446    .text.osThreadSetPriority:00000000 $t
C:\Users\xixi\AppData\Local\Temp\ccei1Zb6.s:452    .text.osThreadSetPriority:00000000 osThreadSetPriority
C:\Users\xixi\AppData\Local\Temp\ccei1Zb6.s:486    .text.osThreadGetPriority:00000000 $t
C:\Users\xixi\AppData\Local\Temp\ccei1Zb6.s:492    .text.osThreadGetPriority:00000000 osThreadGetPriority
C:\Users\xixi\AppData\Local\Temp\ccei1Zb6.s:536    .text.osDelay:00000000 $t
C:\Users\xixi\AppData\Local\Temp\ccei1Zb6.s:542    .text.osDelay:00000000 osDelay
C:\Users\xixi\AppData\Local\Temp\ccei1Zb6.s:573    .text.osTimerCreate:00000000 $t
C:\Users\xixi\AppData\Local\Temp\ccei1Zb6.s:579    .text.osTimerCreate:00000000 osTimerCreate
C:\Users\xixi\AppData\Local\Temp\ccei1Zb6.s:597    .text.osTimerStart:00000000 $t
C:\Users\xixi\AppData\Local\Temp\ccei1Zb6.s:603    .text.osTimerStart:00000000 osTimerStart
C:\Users\xixi\AppData\Local\Temp\ccei1Zb6.s:623    .text.osTimerStop:00000000 $t
C:\Users\xixi\AppData\Local\Temp\ccei1Zb6.s:629    .text.osTimerStop:00000000 osTimerStop
C:\Users\xixi\AppData\Local\Temp\ccei1Zb6.s:649    .text.osTimerDelete:00000000 $t
C:\Users\xixi\AppData\Local\Temp\ccei1Zb6.s:655    .text.osTimerDelete:00000000 osTimerDelete
C:\Users\xixi\AppData\Local\Temp\ccei1Zb6.s:675    .text.osSignalSet:00000000 $t
C:\Users\xixi\AppData\Local\Temp\ccei1Zb6.s:681    .text.osSignalSet:00000000 osSignalSet
C:\Users\xixi\AppData\Local\Temp\ccei1Zb6.s:784    .text.osSignalWait:00000000 $t
C:\Users\xixi\AppData\Local\Temp\ccei1Zb6.s:790    .text.osSignalWait:00000000 osSignalWait
C:\Users\xixi\AppData\Local\Temp\ccei1Zb6.s:895    .text.osMutexCreate:00000000 $t
C:\Users\xixi\AppData\Local\Temp\ccei1Zb6.s:901    .text.osMutexCreate:00000000 osMutexCreate
C:\Users\xixi\AppData\Local\Temp\ccei1Zb6.s:943    .text.osMutexWait:00000000 $t
C:\Users\xixi\AppData\Local\Temp\ccei1Zb6.s:949    .text.osMutexWait:00000000 osMutexWait
C:\Users\xixi\AppData\Local\Temp\ccei1Zb6.s:1063   .text.osMutexRelease:00000000 $t
C:\Users\xixi\AppData\Local\Temp\ccei1Zb6.s:1069   .text.osMutexRelease:00000000 osMutexRelease
C:\Users\xixi\AppData\Local\Temp\ccei1Zb6.s:1170   .text.osMutexDelete:00000000 $t
C:\Users\xixi\AppData\Local\Temp\ccei1Zb6.s:1176   .text.osMutexDelete:00000000 osMutexDelete
C:\Users\xixi\AppData\Local\Temp\ccei1Zb6.s:1215   .text.osSemaphoreCreate:00000000 $t
C:\Users\xixi\AppData\Local\Temp\ccei1Zb6.s:1221   .text.osSemaphoreCreate:00000000 osSemaphoreCreate
C:\Users\xixi\AppData\Local\Temp\ccei1Zb6.s:1313   .text.osSemaphoreWait:00000000 $t
C:\Users\xixi\AppData\Local\Temp\ccei1Zb6.s:1319   .text.osSemaphoreWait:00000000 osSemaphoreWait
C:\Users\xixi\AppData\Local\Temp\ccei1Zb6.s:1428   .text.osSemaphoreRelease:00000000 $t
C:\Users\xixi\AppData\Local\Temp\ccei1Zb6.s:1434   .text.osSemaphoreRelease:00000000 osSemaphoreRelease
C:\Users\xixi\AppData\Local\Temp\ccei1Zb6.s:1535   .text.osSemaphoreDelete:00000000 $t
C:\Users\xixi\AppData\Local\Temp\ccei1Zb6.s:1541   .text.osSemaphoreDelete:00000000 osSemaphoreDelete
C:\Users\xixi\AppData\Local\Temp\ccei1Zb6.s:1580   .text.osPoolCreate:00000000 $t
ARM GAS  C:\Users\xixi\AppData\Local\Temp\ccei1Zb6.s 			page 104


C:\Users\xixi\AppData\Local\Temp\ccei1Zb6.s:1586   .text.osPoolCreate:00000000 osPoolCreate
C:\Users\xixi\AppData\Local\Temp\ccei1Zb6.s:1722   .text.osPoolAlloc:00000000 $t
C:\Users\xixi\AppData\Local\Temp\ccei1Zb6.s:1728   .text.osPoolAlloc:00000000 osPoolAlloc
C:\Users\xixi\AppData\Local\Temp\ccei1Zb6.s:1895   .text.osPoolCAlloc:00000000 $t
C:\Users\xixi\AppData\Local\Temp\ccei1Zb6.s:1901   .text.osPoolCAlloc:00000000 osPoolCAlloc
C:\Users\xixi\AppData\Local\Temp\ccei1Zb6.s:1932   .text.osPoolFree:00000000 $t
C:\Users\xixi\AppData\Local\Temp\ccei1Zb6.s:1938   .text.osPoolFree:00000000 osPoolFree
C:\Users\xixi\AppData\Local\Temp\ccei1Zb6.s:2029   .text.osMessageCreate:00000000 $t
C:\Users\xixi\AppData\Local\Temp\ccei1Zb6.s:2035   .text.osMessageCreate:00000000 osMessageCreate
C:\Users\xixi\AppData\Local\Temp\ccei1Zb6.s:2097   .text.osMessagePut:00000000 $t
C:\Users\xixi\AppData\Local\Temp\ccei1Zb6.s:2103   .text.osMessagePut:00000000 osMessagePut
C:\Users\xixi\AppData\Local\Temp\ccei1Zb6.s:2216   .text.osMessageGet:00000000 $t
C:\Users\xixi\AppData\Local\Temp\ccei1Zb6.s:2222   .text.osMessageGet:00000000 osMessageGet
C:\Users\xixi\AppData\Local\Temp\ccei1Zb6.s:2372   .text.osMailCreate:00000000 $t
C:\Users\xixi\AppData\Local\Temp\ccei1Zb6.s:2378   .text.osMailCreate:00000000 osMailCreate
C:\Users\xixi\AppData\Local\Temp\ccei1Zb6.s:2503   .text.osMailAlloc:00000000 $t
C:\Users\xixi\AppData\Local\Temp\ccei1Zb6.s:2509   .text.osMailAlloc:00000000 osMailAlloc
C:\Users\xixi\AppData\Local\Temp\ccei1Zb6.s:2542   .text.osMailCAlloc:00000000 $t
C:\Users\xixi\AppData\Local\Temp\ccei1Zb6.s:2548   .text.osMailCAlloc:00000000 osMailCAlloc
C:\Users\xixi\AppData\Local\Temp\ccei1Zb6.s:2605   .text.osMailPut:00000000 $t
C:\Users\xixi\AppData\Local\Temp\ccei1Zb6.s:2611   .text.osMailPut:00000000 osMailPut
C:\Users\xixi\AppData\Local\Temp\ccei1Zb6.s:2724   .text.osMailGet:00000000 $t
C:\Users\xixi\AppData\Local\Temp\ccei1Zb6.s:2730   .text.osMailGet:00000000 osMailGet
C:\Users\xixi\AppData\Local\Temp\ccei1Zb6.s:2876   .text.osMailFree:00000000 $t
C:\Users\xixi\AppData\Local\Temp\ccei1Zb6.s:2882   .text.osMailFree:00000000 osMailFree
C:\Users\xixi\AppData\Local\Temp\ccei1Zb6.s:2922   .text.osSystickHandler:00000000 $t
C:\Users\xixi\AppData\Local\Temp\ccei1Zb6.s:2928   .text.osSystickHandler:00000000 osSystickHandler
C:\Users\xixi\AppData\Local\Temp\ccei1Zb6.s:2959   .text.osThreadSuspend:00000000 $t
C:\Users\xixi\AppData\Local\Temp\ccei1Zb6.s:2965   .text.osThreadSuspend:00000000 osThreadSuspend
C:\Users\xixi\AppData\Local\Temp\ccei1Zb6.s:2989   .text.osThreadResume:00000000 $t
C:\Users\xixi\AppData\Local\Temp\ccei1Zb6.s:2995   .text.osThreadResume:00000000 osThreadResume
C:\Users\xixi\AppData\Local\Temp\ccei1Zb6.s:3055   .text.osThreadSuspendAll:00000000 $t
C:\Users\xixi\AppData\Local\Temp\ccei1Zb6.s:3061   .text.osThreadSuspendAll:00000000 osThreadSuspendAll
C:\Users\xixi\AppData\Local\Temp\ccei1Zb6.s:3083   .text.osThreadResumeAll:00000000 $t
C:\Users\xixi\AppData\Local\Temp\ccei1Zb6.s:3089   .text.osThreadResumeAll:00000000 osThreadResumeAll
C:\Users\xixi\AppData\Local\Temp\ccei1Zb6.s:3120   .text.osDelayUntil:00000000 $t
C:\Users\xixi\AppData\Local\Temp\ccei1Zb6.s:3126   .text.osDelayUntil:00000000 osDelayUntil
C:\Users\xixi\AppData\Local\Temp\ccei1Zb6.s:3146   .text.osAbortDelay:00000000 $t
C:\Users\xixi\AppData\Local\Temp\ccei1Zb6.s:3152   .text.osAbortDelay:00000000 osAbortDelay
C:\Users\xixi\AppData\Local\Temp\ccei1Zb6.s:3171   .text.osThreadList:00000000 $t
C:\Users\xixi\AppData\Local\Temp\ccei1Zb6.s:3177   .text.osThreadList:00000000 osThreadList
C:\Users\xixi\AppData\Local\Temp\ccei1Zb6.s:3195   .text.osMessagePeek:00000000 $t
C:\Users\xixi\AppData\Local\Temp\ccei1Zb6.s:3201   .text.osMessagePeek:00000000 osMessagePeek
C:\Users\xixi\AppData\Local\Temp\ccei1Zb6.s:3295   .text.osMessageWaiting:00000000 $t
C:\Users\xixi\AppData\Local\Temp\ccei1Zb6.s:3301   .text.osMessageWaiting:00000000 osMessageWaiting
C:\Users\xixi\AppData\Local\Temp\ccei1Zb6.s:3341   .text.osMessageAvailableSpace:00000000 $t
C:\Users\xixi\AppData\Local\Temp\ccei1Zb6.s:3347   .text.osMessageAvailableSpace:00000000 osMessageAvailableSpace
C:\Users\xixi\AppData\Local\Temp\ccei1Zb6.s:3370   .text.osMessageDelete:00000000 $t
C:\Users\xixi\AppData\Local\Temp\ccei1Zb6.s:3376   .text.osMessageDelete:00000000 osMessageDelete
C:\Users\xixi\AppData\Local\Temp\ccei1Zb6.s:3415   .text.osRecursiveMutexCreate:00000000 $t
C:\Users\xixi\AppData\Local\Temp\ccei1Zb6.s:3421   .text.osRecursiveMutexCreate:00000000 osRecursiveMutexCreate
C:\Users\xixi\AppData\Local\Temp\ccei1Zb6.s:3439   .text.osRecursiveMutexRelease:00000000 $t
C:\Users\xixi\AppData\Local\Temp\ccei1Zb6.s:3445   .text.osRecursiveMutexRelease:00000000 osRecursiveMutexRelease
C:\Users\xixi\AppData\Local\Temp\ccei1Zb6.s:3463   .text.osRecursiveMutexWait:00000000 $t
C:\Users\xixi\AppData\Local\Temp\ccei1Zb6.s:3469   .text.osRecursiveMutexWait:00000000 osRecursiveMutexWait
C:\Users\xixi\AppData\Local\Temp\ccei1Zb6.s:3487   .text.osSemaphoreGetCount:00000000 $t
C:\Users\xixi\AppData\Local\Temp\ccei1Zb6.s:3493   .text.osSemaphoreGetCount:00000000 osSemaphoreGetCount
ARM GAS  C:\Users\xixi\AppData\Local\Temp\ccei1Zb6.s 			page 105



UNDEFINED SYMBOLS
vTaskStartScheduler
xTaskGetSchedulerState
xTaskGetTickCountFromISR
xTaskGetTickCount
xTaskCreateStatic
xTaskCreate
xTaskGetCurrentTaskHandle
vTaskDelete
vTaskPrioritySet
uxTaskPriorityGetFromISR
uxTaskPriorityGet
vTaskDelay
xTaskGenericNotifyFromISR
xTaskGenericNotify
xTaskNotifyWait
xQueueCreateMutexStatic
xQueueCreateMutex
xQueueReceiveFromISR
xQueueSemaphoreTake
xQueueGiveFromISR
xQueueGenericSend
vQueueDelete
xQueueGenericCreateStatic
xQueueGenericCreate
pvPortMalloc
vPortFree
vPortEnterCritical
vPortExitCritical
xQueueGenericSendFromISR
xQueueReceive
xPortSysTickHandler
vTaskSuspend
xTaskResumeFromISR
vTaskResume
vTaskSuspendAll
xTaskResumeAll
xQueuePeek
uxQueueMessagesWaitingFromISR
uxQueueMessagesWaiting
uxQueueSpacesAvailable
