ARM GAS  C:\Users\xixi\AppData\Local\Temp\ccVJ8hj1.s 			page 1


   1              		.cpu cortex-m4
   2              		.arch armv7e-m
   3              		.fpu fpv4-sp-d16
   4              		.eabi_attribute 27, 1
   5              		.eabi_attribute 28, 1
   6              		.eabi_attribute 20, 1
   7              		.eabi_attribute 21, 1
   8              		.eabi_attribute 23, 3
   9              		.eabi_attribute 24, 1
  10              		.eabi_attribute 25, 1
  11              		.eabi_attribute 26, 1
  12              		.eabi_attribute 30, 1
  13              		.eabi_attribute 34, 1
  14              		.eabi_attribute 18, 4
  15              		.file	"gpio.c"
  16              		.text
  17              	.Ltext0:
  18              		.cfi_sections	.debug_frame
  19              		.section	.text.MX_GPIO_Init,"ax",%progbits
  20              		.align	1
  21              		.global	MX_GPIO_Init
  22              		.syntax unified
  23              		.thumb
  24              		.thumb_func
  26              	MX_GPIO_Init:
  27              	.LFB130:
  28              		.file 1 "Core/Src/gpio.c"
   1:Core/Src/gpio.c **** /* USER CODE BEGIN Header */
   2:Core/Src/gpio.c **** /**
   3:Core/Src/gpio.c ****   ******************************************************************************
   4:Core/Src/gpio.c ****   * @file    gpio.c
   5:Core/Src/gpio.c ****   * @brief   This file provides code for the configuration
   6:Core/Src/gpio.c ****   *          of all used GPIO pins.
   7:Core/Src/gpio.c ****   ******************************************************************************
   8:Core/Src/gpio.c ****   * @attention
   9:Core/Src/gpio.c ****   *
  10:Core/Src/gpio.c ****   * Copyright (c) 2024 STMicroelectronics.
  11:Core/Src/gpio.c ****   * All rights reserved.
  12:Core/Src/gpio.c ****   *
  13:Core/Src/gpio.c ****   * This software is licensed under terms that can be found in the LICENSE file
  14:Core/Src/gpio.c ****   * in the root directory of this software component.
  15:Core/Src/gpio.c ****   * If no LICENSE file comes with this software, it is provided AS-IS.
  16:Core/Src/gpio.c ****   *
  17:Core/Src/gpio.c ****   ******************************************************************************
  18:Core/Src/gpio.c ****   */
  19:Core/Src/gpio.c **** /* USER CODE END Header */
  20:Core/Src/gpio.c **** 
  21:Core/Src/gpio.c **** /* Includes ------------------------------------------------------------------*/
  22:Core/Src/gpio.c **** #include "gpio.h"
  23:Core/Src/gpio.c **** 
  24:Core/Src/gpio.c **** /* USER CODE BEGIN 0 */
  25:Core/Src/gpio.c **** 
  26:Core/Src/gpio.c **** /* USER CODE END 0 */
  27:Core/Src/gpio.c **** 
  28:Core/Src/gpio.c **** /*----------------------------------------------------------------------------*/
  29:Core/Src/gpio.c **** /* Configure GPIO                                                             */
  30:Core/Src/gpio.c **** /*----------------------------------------------------------------------------*/
ARM GAS  C:\Users\xixi\AppData\Local\Temp\ccVJ8hj1.s 			page 2


  31:Core/Src/gpio.c **** /* USER CODE BEGIN 1 */
  32:Core/Src/gpio.c **** 
  33:Core/Src/gpio.c **** /* USER CODE END 1 */
  34:Core/Src/gpio.c **** 
  35:Core/Src/gpio.c **** /** Configure pins as
  36:Core/Src/gpio.c ****         * Analog
  37:Core/Src/gpio.c ****         * Input
  38:Core/Src/gpio.c ****         * Output
  39:Core/Src/gpio.c ****         * EVENT_OUT
  40:Core/Src/gpio.c ****         * EXTI
  41:Core/Src/gpio.c **** */
  42:Core/Src/gpio.c **** void MX_GPIO_Init(void)
  43:Core/Src/gpio.c **** {
  29              		.loc 1 43 1 view -0
  30              		.cfi_startproc
  31              		@ args = 0, pretend = 0, frame = 32
  32              		@ frame_needed = 0, uses_anonymous_args = 0
  33 0000 70B5     		push	{r4, r5, r6, lr}
  34              	.LCFI0:
  35              		.cfi_def_cfa_offset 16
  36              		.cfi_offset 4, -16
  37              		.cfi_offset 5, -12
  38              		.cfi_offset 6, -8
  39              		.cfi_offset 14, -4
  40 0002 88B0     		sub	sp, sp, #32
  41              	.LCFI1:
  42              		.cfi_def_cfa_offset 48
  44:Core/Src/gpio.c **** 
  45:Core/Src/gpio.c ****   GPIO_InitTypeDef GPIO_InitStruct = {0};
  43              		.loc 1 45 3 view .LVU1
  44              		.loc 1 45 20 is_stmt 0 view .LVU2
  45 0004 0024     		movs	r4, #0
  46 0006 0394     		str	r4, [sp, #12]
  47 0008 0494     		str	r4, [sp, #16]
  48 000a 0594     		str	r4, [sp, #20]
  49 000c 0694     		str	r4, [sp, #24]
  50 000e 0794     		str	r4, [sp, #28]
  46:Core/Src/gpio.c **** 
  47:Core/Src/gpio.c ****   /* GPIO Ports Clock Enable */
  48:Core/Src/gpio.c ****   __HAL_RCC_GPIOA_CLK_ENABLE();
  51              		.loc 1 48 3 is_stmt 1 view .LVU3
  52              	.LBB2:
  53              		.loc 1 48 3 view .LVU4
  54 0010 0194     		str	r4, [sp, #4]
  55              		.loc 1 48 3 view .LVU5
  56 0012 1C4B     		ldr	r3, .L3
  57 0014 1A6B     		ldr	r2, [r3, #48]
  58 0016 42F00102 		orr	r2, r2, #1
  59 001a 1A63     		str	r2, [r3, #48]
  60              		.loc 1 48 3 view .LVU6
  61 001c 1A6B     		ldr	r2, [r3, #48]
  62 001e 02F00102 		and	r2, r2, #1
  63 0022 0192     		str	r2, [sp, #4]
  64              		.loc 1 48 3 view .LVU7
  65 0024 019A     		ldr	r2, [sp, #4]
  66              	.LBE2:
  67              		.loc 1 48 3 view .LVU8
ARM GAS  C:\Users\xixi\AppData\Local\Temp\ccVJ8hj1.s 			page 3


  49:Core/Src/gpio.c ****   __HAL_RCC_GPIOH_CLK_ENABLE();
  68              		.loc 1 49 3 view .LVU9
  69              	.LBB3:
  70              		.loc 1 49 3 view .LVU10
  71 0026 0294     		str	r4, [sp, #8]
  72              		.loc 1 49 3 view .LVU11
  73 0028 1A6B     		ldr	r2, [r3, #48]
  74 002a 42F08002 		orr	r2, r2, #128
  75 002e 1A63     		str	r2, [r3, #48]
  76              		.loc 1 49 3 view .LVU12
  77 0030 1B6B     		ldr	r3, [r3, #48]
  78 0032 03F08003 		and	r3, r3, #128
  79 0036 0293     		str	r3, [sp, #8]
  80              		.loc 1 49 3 view .LVU13
  81 0038 029B     		ldr	r3, [sp, #8]
  82              	.LBE3:
  83              		.loc 1 49 3 view .LVU14
  50:Core/Src/gpio.c **** 
  51:Core/Src/gpio.c ****   /*Configure GPIO pin Output Level */
  52:Core/Src/gpio.c ****   HAL_GPIO_WritePin(GPIOH, LED_R_Pin|LED_G_Pin|LED_B_Pin, GPIO_PIN_RESET);
  84              		.loc 1 52 3 view .LVU15
  85 003a 134E     		ldr	r6, .L3+4
  86 003c 2246     		mov	r2, r4
  87 003e 4FF4E051 		mov	r1, #7168
  88 0042 3046     		mov	r0, r6
  89 0044 FFF7FEFF 		bl	HAL_GPIO_WritePin
  90              	.LVL0:
  53:Core/Src/gpio.c **** 
  54:Core/Src/gpio.c ****   /*Configure GPIO pins : PHPin PHPin PHPin */
  55:Core/Src/gpio.c ****   GPIO_InitStruct.Pin = LED_R_Pin|LED_G_Pin|LED_B_Pin;
  91              		.loc 1 55 3 view .LVU16
  92              		.loc 1 55 23 is_stmt 0 view .LVU17
  93 0048 4FF4E053 		mov	r3, #7168
  94 004c 0393     		str	r3, [sp, #12]
  56:Core/Src/gpio.c ****   GPIO_InitStruct.Mode = GPIO_MODE_OUTPUT_PP;
  95              		.loc 1 56 3 is_stmt 1 view .LVU18
  96              		.loc 1 56 24 is_stmt 0 view .LVU19
  97 004e 0125     		movs	r5, #1
  98 0050 0495     		str	r5, [sp, #16]
  57:Core/Src/gpio.c ****   GPIO_InitStruct.Pull = GPIO_NOPULL;
  99              		.loc 1 57 3 is_stmt 1 view .LVU20
 100              		.loc 1 57 24 is_stmt 0 view .LVU21
 101 0052 0594     		str	r4, [sp, #20]
  58:Core/Src/gpio.c ****   GPIO_InitStruct.Speed = GPIO_SPEED_FREQ_LOW;
 102              		.loc 1 58 3 is_stmt 1 view .LVU22
 103              		.loc 1 58 25 is_stmt 0 view .LVU23
 104 0054 0694     		str	r4, [sp, #24]
  59:Core/Src/gpio.c ****   HAL_GPIO_Init(GPIOH, &GPIO_InitStruct);
 105              		.loc 1 59 3 is_stmt 1 view .LVU24
 106 0056 03A9     		add	r1, sp, #12
 107 0058 3046     		mov	r0, r6
 108 005a FFF7FEFF 		bl	HAL_GPIO_Init
 109              	.LVL1:
  60:Core/Src/gpio.c **** 
  61:Core/Src/gpio.c ****   /*Configure GPIO pin : PtPin */
  62:Core/Src/gpio.c ****   GPIO_InitStruct.Pin = KEY_Pin;
 110              		.loc 1 62 3 view .LVU25
ARM GAS  C:\Users\xixi\AppData\Local\Temp\ccVJ8hj1.s 			page 4


 111              		.loc 1 62 23 is_stmt 0 view .LVU26
 112 005e 0395     		str	r5, [sp, #12]
  63:Core/Src/gpio.c ****   GPIO_InitStruct.Mode = GPIO_MODE_IT_FALLING;
 113              		.loc 1 63 3 is_stmt 1 view .LVU27
 114              		.loc 1 63 24 is_stmt 0 view .LVU28
 115 0060 4FF40413 		mov	r3, #2162688
 116 0064 0493     		str	r3, [sp, #16]
  64:Core/Src/gpio.c ****   GPIO_InitStruct.Pull = GPIO_PULLUP;
 117              		.loc 1 64 3 is_stmt 1 view .LVU29
 118              		.loc 1 64 24 is_stmt 0 view .LVU30
 119 0066 0595     		str	r5, [sp, #20]
  65:Core/Src/gpio.c ****   HAL_GPIO_Init(KEY_GPIO_Port, &GPIO_InitStruct);
 120              		.loc 1 65 3 is_stmt 1 view .LVU31
 121 0068 03A9     		add	r1, sp, #12
 122 006a 0848     		ldr	r0, .L3+8
 123 006c FFF7FEFF 		bl	HAL_GPIO_Init
 124              	.LVL2:
  66:Core/Src/gpio.c **** 
  67:Core/Src/gpio.c ****   /* EXTI interrupt init*/
  68:Core/Src/gpio.c ****   HAL_NVIC_SetPriority(EXTI0_IRQn, 0, 0);
 125              		.loc 1 68 3 view .LVU32
 126 0070 2246     		mov	r2, r4
 127 0072 2146     		mov	r1, r4
 128 0074 0620     		movs	r0, #6
 129 0076 FFF7FEFF 		bl	HAL_NVIC_SetPriority
 130              	.LVL3:
  69:Core/Src/gpio.c ****   HAL_NVIC_EnableIRQ(EXTI0_IRQn);
 131              		.loc 1 69 3 view .LVU33
 132 007a 0620     		movs	r0, #6
 133 007c FFF7FEFF 		bl	HAL_NVIC_EnableIRQ
 134              	.LVL4:
  70:Core/Src/gpio.c **** 
  71:Core/Src/gpio.c **** }
 135              		.loc 1 71 1 is_stmt 0 view .LVU34
 136 0080 08B0     		add	sp, sp, #32
 137              	.LCFI2:
 138              		.cfi_def_cfa_offset 16
 139              		@ sp needed
 140 0082 70BD     		pop	{r4, r5, r6, pc}
 141              	.L4:
 142              		.align	2
 143              	.L3:
 144 0084 00380240 		.word	1073887232
 145 0088 001C0240 		.word	1073880064
 146 008c 00000240 		.word	1073872896
 147              		.cfi_endproc
 148              	.LFE130:
 150              		.text
 151              	.Letext0:
 152              		.file 2 "c:\\program files (x86)\\gnu arm embedded toolchain\\10 2021.10\\arm-none-eabi\\include\\
 153              		.file 3 "c:\\program files (x86)\\gnu arm embedded toolchain\\10 2021.10\\arm-none-eabi\\include\\
 154              		.file 4 "Drivers/CMSIS/Device/ST/STM32F4xx/Include/stm32f407xx.h"
 155              		.file 5 "Drivers/STM32F4xx_HAL_Driver/Inc/stm32f4xx_hal_gpio.h"
 156              		.file 6 "Drivers/STM32F4xx_HAL_Driver/Inc/stm32f4xx_hal_cortex.h"
ARM GAS  C:\Users\xixi\AppData\Local\Temp\ccVJ8hj1.s 			page 5

