ARM GAS  C:\Users\xixi\AppData\Local\Temp\ccsA5dxe.s 			page 1


   1              		.cpu cortex-m4
   2              		.arch armv7e-m
   3              		.fpu fpv4-sp-d16
   4              		.eabi_attribute 27, 1
   5              		.eabi_attribute 28, 1
   6              		.eabi_attribute 20, 1
   7              		.eabi_attribute 21, 1
   8              		.eabi_attribute 23, 3
   9              		.eabi_attribute 24, 1
  10              		.eabi_attribute 25, 1
  11              		.eabi_attribute 26, 1
  12              		.eabi_attribute 30, 1
  13              		.eabi_attribute 34, 1
  14              		.eabi_attribute 18, 4
  15              		.file	"usart.c"
  16              		.text
  17              	.Ltext0:
  18              		.cfi_sections	.debug_frame
  19              		.section	.text.MX_USART1_UART_Init,"ax",%progbits
  20              		.align	1
  21              		.global	MX_USART1_UART_Init
  22              		.syntax unified
  23              		.thumb
  24              		.thumb_func
  26              	MX_USART1_UART_Init:
  27              	.LFB130:
  28              		.file 1 "Core/Src/usart.c"
   1:Core/Src/usart.c **** /* USER CODE BEGIN Header */
   2:Core/Src/usart.c **** /**
   3:Core/Src/usart.c ****   ******************************************************************************
   4:Core/Src/usart.c ****   * @file    usart.c
   5:Core/Src/usart.c ****   * @brief   This file provides code for the configuration
   6:Core/Src/usart.c ****   *          of the USART instances.
   7:Core/Src/usart.c ****   ******************************************************************************
   8:Core/Src/usart.c ****   * @attention
   9:Core/Src/usart.c ****   *
  10:Core/Src/usart.c ****   * Copyright (c) 2024 STMicroelectronics.
  11:Core/Src/usart.c ****   * All rights reserved.
  12:Core/Src/usart.c ****   *
  13:Core/Src/usart.c ****   * This software is licensed under terms that can be found in the LICENSE file
  14:Core/Src/usart.c ****   * in the root directory of this software component.
  15:Core/Src/usart.c ****   * If no LICENSE file comes with this software, it is provided AS-IS.
  16:Core/Src/usart.c ****   *
  17:Core/Src/usart.c ****   ******************************************************************************
  18:Core/Src/usart.c ****   */
  19:Core/Src/usart.c **** /* USER CODE END Header */
  20:Core/Src/usart.c **** /* Includes ------------------------------------------------------------------*/
  21:Core/Src/usart.c **** #include "usart.h"
  22:Core/Src/usart.c **** 
  23:Core/Src/usart.c **** /* USER CODE BEGIN 0 */
  24:Core/Src/usart.c **** 
  25:Core/Src/usart.c **** /* USER CODE END 0 */
  26:Core/Src/usart.c **** 
  27:Core/Src/usart.c **** UART_HandleTypeDef huart1;
  28:Core/Src/usart.c **** UART_HandleTypeDef huart3;
  29:Core/Src/usart.c **** DMA_HandleTypeDef hdma_usart1_tx;
  30:Core/Src/usart.c **** DMA_HandleTypeDef hdma_usart3_rx;
ARM GAS  C:\Users\xixi\AppData\Local\Temp\ccsA5dxe.s 			page 2


  31:Core/Src/usart.c **** 
  32:Core/Src/usart.c **** /* USART1 init function */
  33:Core/Src/usart.c **** 
  34:Core/Src/usart.c **** void MX_USART1_UART_Init(void)
  35:Core/Src/usart.c **** {
  29              		.loc 1 35 1 view -0
  30              		.cfi_startproc
  31              		@ args = 0, pretend = 0, frame = 0
  32              		@ frame_needed = 0, uses_anonymous_args = 0
  33 0000 08B5     		push	{r3, lr}
  34              	.LCFI0:
  35              		.cfi_def_cfa_offset 8
  36              		.cfi_offset 3, -8
  37              		.cfi_offset 14, -4
  36:Core/Src/usart.c **** 
  37:Core/Src/usart.c ****   /* USER CODE BEGIN USART1_Init 0 */
  38:Core/Src/usart.c **** 
  39:Core/Src/usart.c ****   /* USER CODE END USART1_Init 0 */
  40:Core/Src/usart.c **** 
  41:Core/Src/usart.c ****   /* USER CODE BEGIN USART1_Init 1 */
  42:Core/Src/usart.c **** 
  43:Core/Src/usart.c ****   /* USER CODE END USART1_Init 1 */
  44:Core/Src/usart.c ****   huart1.Instance = USART1;
  38              		.loc 1 44 3 view .LVU1
  39              		.loc 1 44 19 is_stmt 0 view .LVU2
  40 0002 0A48     		ldr	r0, .L5
  41 0004 0A4B     		ldr	r3, .L5+4
  42 0006 0360     		str	r3, [r0]
  45:Core/Src/usart.c ****   huart1.Init.BaudRate = 115200;
  43              		.loc 1 45 3 is_stmt 1 view .LVU3
  44              		.loc 1 45 24 is_stmt 0 view .LVU4
  45 0008 4FF4E133 		mov	r3, #115200
  46 000c 4360     		str	r3, [r0, #4]
  46:Core/Src/usart.c ****   huart1.Init.WordLength = UART_WORDLENGTH_8B;
  47              		.loc 1 46 3 is_stmt 1 view .LVU5
  48              		.loc 1 46 26 is_stmt 0 view .LVU6
  49 000e 0023     		movs	r3, #0
  50 0010 8360     		str	r3, [r0, #8]
  47:Core/Src/usart.c ****   huart1.Init.StopBits = UART_STOPBITS_1;
  51              		.loc 1 47 3 is_stmt 1 view .LVU7
  52              		.loc 1 47 24 is_stmt 0 view .LVU8
  53 0012 C360     		str	r3, [r0, #12]
  48:Core/Src/usart.c ****   huart1.Init.Parity = UART_PARITY_NONE;
  54              		.loc 1 48 3 is_stmt 1 view .LVU9
  55              		.loc 1 48 22 is_stmt 0 view .LVU10
  56 0014 0361     		str	r3, [r0, #16]
  49:Core/Src/usart.c ****   huart1.Init.Mode = UART_MODE_TX_RX;
  57              		.loc 1 49 3 is_stmt 1 view .LVU11
  58              		.loc 1 49 20 is_stmt 0 view .LVU12
  59 0016 0C22     		movs	r2, #12
  60 0018 4261     		str	r2, [r0, #20]
  50:Core/Src/usart.c ****   huart1.Init.HwFlowCtl = UART_HWCONTROL_NONE;
  61              		.loc 1 50 3 is_stmt 1 view .LVU13
  62              		.loc 1 50 25 is_stmt 0 view .LVU14
  63 001a 8361     		str	r3, [r0, #24]
  51:Core/Src/usart.c ****   huart1.Init.OverSampling = UART_OVERSAMPLING_16;
  64              		.loc 1 51 3 is_stmt 1 view .LVU15
ARM GAS  C:\Users\xixi\AppData\Local\Temp\ccsA5dxe.s 			page 3


  65              		.loc 1 51 28 is_stmt 0 view .LVU16
  66 001c C361     		str	r3, [r0, #28]
  52:Core/Src/usart.c ****   if (HAL_UART_Init(&huart1) != HAL_OK)
  67              		.loc 1 52 3 is_stmt 1 view .LVU17
  68              		.loc 1 52 7 is_stmt 0 view .LVU18
  69 001e FFF7FEFF 		bl	HAL_UART_Init
  70              	.LVL0:
  71              		.loc 1 52 6 view .LVU19
  72 0022 00B9     		cbnz	r0, .L4
  73              	.L1:
  53:Core/Src/usart.c ****   {
  54:Core/Src/usart.c ****     Error_Handler();
  55:Core/Src/usart.c ****   }
  56:Core/Src/usart.c ****   /* USER CODE BEGIN USART1_Init 2 */
  57:Core/Src/usart.c **** 
  58:Core/Src/usart.c ****   /* USER CODE END USART1_Init 2 */
  59:Core/Src/usart.c **** 
  60:Core/Src/usart.c **** }
  74              		.loc 1 60 1 view .LVU20
  75 0024 08BD     		pop	{r3, pc}
  76              	.L4:
  54:Core/Src/usart.c ****   }
  77              		.loc 1 54 5 is_stmt 1 view .LVU21
  78 0026 FFF7FEFF 		bl	Error_Handler
  79              	.LVL1:
  80              		.loc 1 60 1 is_stmt 0 view .LVU22
  81 002a FBE7     		b	.L1
  82              	.L6:
  83              		.align	2
  84              	.L5:
  85 002c 00000000 		.word	.LANCHOR0
  86 0030 00100140 		.word	1073811456
  87              		.cfi_endproc
  88              	.LFE130:
  90              		.section	.text.MX_USART3_UART_Init,"ax",%progbits
  91              		.align	1
  92              		.global	MX_USART3_UART_Init
  93              		.syntax unified
  94              		.thumb
  95              		.thumb_func
  97              	MX_USART3_UART_Init:
  98              	.LFB131:
  61:Core/Src/usart.c **** /* USART3 init function */
  62:Core/Src/usart.c **** 
  63:Core/Src/usart.c **** void MX_USART3_UART_Init(void)
  64:Core/Src/usart.c **** {
  99              		.loc 1 64 1 is_stmt 1 view -0
 100              		.cfi_startproc
 101              		@ args = 0, pretend = 0, frame = 0
 102              		@ frame_needed = 0, uses_anonymous_args = 0
 103 0000 08B5     		push	{r3, lr}
 104              	.LCFI1:
 105              		.cfi_def_cfa_offset 8
 106              		.cfi_offset 3, -8
 107              		.cfi_offset 14, -4
  65:Core/Src/usart.c **** 
  66:Core/Src/usart.c ****   /* USER CODE BEGIN USART3_Init 0 */
ARM GAS  C:\Users\xixi\AppData\Local\Temp\ccsA5dxe.s 			page 4


  67:Core/Src/usart.c **** 
  68:Core/Src/usart.c ****   /* USER CODE END USART3_Init 0 */
  69:Core/Src/usart.c **** 
  70:Core/Src/usart.c ****   /* USER CODE BEGIN USART3_Init 1 */
  71:Core/Src/usart.c **** 
  72:Core/Src/usart.c ****   /* USER CODE END USART3_Init 1 */
  73:Core/Src/usart.c ****   huart3.Instance = USART3;
 108              		.loc 1 73 3 view .LVU24
 109              		.loc 1 73 19 is_stmt 0 view .LVU25
 110 0002 0B48     		ldr	r0, .L11
 111 0004 0B4B     		ldr	r3, .L11+4
 112 0006 0360     		str	r3, [r0]
  74:Core/Src/usart.c ****   huart3.Init.BaudRate = 100000;
 113              		.loc 1 74 3 is_stmt 1 view .LVU26
 114              		.loc 1 74 24 is_stmt 0 view .LVU27
 115 0008 0B4B     		ldr	r3, .L11+8
 116 000a 4360     		str	r3, [r0, #4]
  75:Core/Src/usart.c ****   huart3.Init.WordLength = UART_WORDLENGTH_8B;
 117              		.loc 1 75 3 is_stmt 1 view .LVU28
 118              		.loc 1 75 26 is_stmt 0 view .LVU29
 119 000c 0023     		movs	r3, #0
 120 000e 8360     		str	r3, [r0, #8]
  76:Core/Src/usart.c ****   huart3.Init.StopBits = UART_STOPBITS_1;
 121              		.loc 1 76 3 is_stmt 1 view .LVU30
 122              		.loc 1 76 24 is_stmt 0 view .LVU31
 123 0010 C360     		str	r3, [r0, #12]
  77:Core/Src/usart.c ****   huart3.Init.Parity = UART_PARITY_EVEN;
 124              		.loc 1 77 3 is_stmt 1 view .LVU32
 125              		.loc 1 77 22 is_stmt 0 view .LVU33
 126 0012 4FF48062 		mov	r2, #1024
 127 0016 0261     		str	r2, [r0, #16]
  78:Core/Src/usart.c ****   huart3.Init.Mode = UART_MODE_TX_RX;
 128              		.loc 1 78 3 is_stmt 1 view .LVU34
 129              		.loc 1 78 20 is_stmt 0 view .LVU35
 130 0018 0C22     		movs	r2, #12
 131 001a 4261     		str	r2, [r0, #20]
  79:Core/Src/usart.c ****   huart3.Init.HwFlowCtl = UART_HWCONTROL_NONE;
 132              		.loc 1 79 3 is_stmt 1 view .LVU36
 133              		.loc 1 79 25 is_stmt 0 view .LVU37
 134 001c 8361     		str	r3, [r0, #24]
  80:Core/Src/usart.c ****   huart3.Init.OverSampling = UART_OVERSAMPLING_16;
 135              		.loc 1 80 3 is_stmt 1 view .LVU38
 136              		.loc 1 80 28 is_stmt 0 view .LVU39
 137 001e C361     		str	r3, [r0, #28]
  81:Core/Src/usart.c ****   if (HAL_UART_Init(&huart3) != HAL_OK)
 138              		.loc 1 81 3 is_stmt 1 view .LVU40
 139              		.loc 1 81 7 is_stmt 0 view .LVU41
 140 0020 FFF7FEFF 		bl	HAL_UART_Init
 141              	.LVL2:
 142              		.loc 1 81 6 view .LVU42
 143 0024 00B9     		cbnz	r0, .L10
 144              	.L7:
  82:Core/Src/usart.c ****   {
  83:Core/Src/usart.c ****     Error_Handler();
  84:Core/Src/usart.c ****   }
  85:Core/Src/usart.c ****   /* USER CODE BEGIN USART3_Init 2 */
  86:Core/Src/usart.c **** 
ARM GAS  C:\Users\xixi\AppData\Local\Temp\ccsA5dxe.s 			page 5


  87:Core/Src/usart.c ****   /* USER CODE END USART3_Init 2 */
  88:Core/Src/usart.c **** 
  89:Core/Src/usart.c **** }
 145              		.loc 1 89 1 view .LVU43
 146 0026 08BD     		pop	{r3, pc}
 147              	.L10:
  83:Core/Src/usart.c ****   }
 148              		.loc 1 83 5 is_stmt 1 view .LVU44
 149 0028 FFF7FEFF 		bl	Error_Handler
 150              	.LVL3:
 151              		.loc 1 89 1 is_stmt 0 view .LVU45
 152 002c FBE7     		b	.L7
 153              	.L12:
 154 002e 00BF     		.align	2
 155              	.L11:
 156 0030 00000000 		.word	.LANCHOR1
 157 0034 00480040 		.word	1073760256
 158 0038 A0860100 		.word	100000
 159              		.cfi_endproc
 160              	.LFE131:
 162              		.section	.text.HAL_UART_MspInit,"ax",%progbits
 163              		.align	1
 164              		.global	HAL_UART_MspInit
 165              		.syntax unified
 166              		.thumb
 167              		.thumb_func
 169              	HAL_UART_MspInit:
 170              	.LVL4:
 171              	.LFB132:
  90:Core/Src/usart.c **** 
  91:Core/Src/usart.c **** void HAL_UART_MspInit(UART_HandleTypeDef* uartHandle)
  92:Core/Src/usart.c **** {
 172              		.loc 1 92 1 is_stmt 1 view -0
 173              		.cfi_startproc
 174              		@ args = 0, pretend = 0, frame = 40
 175              		@ frame_needed = 0, uses_anonymous_args = 0
 176              		.loc 1 92 1 is_stmt 0 view .LVU47
 177 0000 2DE9F041 		push	{r4, r5, r6, r7, r8, lr}
 178              	.LCFI2:
 179              		.cfi_def_cfa_offset 24
 180              		.cfi_offset 4, -24
 181              		.cfi_offset 5, -20
 182              		.cfi_offset 6, -16
 183              		.cfi_offset 7, -12
 184              		.cfi_offset 8, -8
 185              		.cfi_offset 14, -4
 186 0004 8AB0     		sub	sp, sp, #40
 187              	.LCFI3:
 188              		.cfi_def_cfa_offset 64
 189 0006 0446     		mov	r4, r0
  93:Core/Src/usart.c **** 
  94:Core/Src/usart.c ****   GPIO_InitTypeDef GPIO_InitStruct = {0};
 190              		.loc 1 94 3 is_stmt 1 view .LVU48
 191              		.loc 1 94 20 is_stmt 0 view .LVU49
 192 0008 0023     		movs	r3, #0
 193 000a 0593     		str	r3, [sp, #20]
 194 000c 0693     		str	r3, [sp, #24]
ARM GAS  C:\Users\xixi\AppData\Local\Temp\ccsA5dxe.s 			page 6


 195 000e 0793     		str	r3, [sp, #28]
 196 0010 0893     		str	r3, [sp, #32]
 197 0012 0993     		str	r3, [sp, #36]
  95:Core/Src/usart.c ****   if(uartHandle->Instance==USART1)
 198              		.loc 1 95 3 is_stmt 1 view .LVU50
 199              		.loc 1 95 16 is_stmt 0 view .LVU51
 200 0014 0368     		ldr	r3, [r0]
 201              		.loc 1 95 5 view .LVU52
 202 0016 584A     		ldr	r2, .L23
 203 0018 9342     		cmp	r3, r2
 204 001a 05D0     		beq	.L19
  96:Core/Src/usart.c ****   {
  97:Core/Src/usart.c ****   /* USER CODE BEGIN USART1_MspInit 0 */
  98:Core/Src/usart.c **** 
  99:Core/Src/usart.c ****   /* USER CODE END USART1_MspInit 0 */
 100:Core/Src/usart.c ****     /* USART1 clock enable */
 101:Core/Src/usart.c ****     __HAL_RCC_USART1_CLK_ENABLE();
 102:Core/Src/usart.c **** 
 103:Core/Src/usart.c ****     __HAL_RCC_GPIOB_CLK_ENABLE();
 104:Core/Src/usart.c ****     __HAL_RCC_GPIOA_CLK_ENABLE();
 105:Core/Src/usart.c ****     /**USART1 GPIO Configuration
 106:Core/Src/usart.c ****     PB7     ------> USART1_RX
 107:Core/Src/usart.c ****     PA9     ------> USART1_TX
 108:Core/Src/usart.c ****     */
 109:Core/Src/usart.c ****     GPIO_InitStruct.Pin = GPIO_PIN_7;
 110:Core/Src/usart.c ****     GPIO_InitStruct.Mode = GPIO_MODE_AF_PP;
 111:Core/Src/usart.c ****     GPIO_InitStruct.Pull = GPIO_NOPULL;
 112:Core/Src/usart.c ****     GPIO_InitStruct.Speed = GPIO_SPEED_FREQ_VERY_HIGH;
 113:Core/Src/usart.c ****     GPIO_InitStruct.Alternate = GPIO_AF7_USART1;
 114:Core/Src/usart.c ****     HAL_GPIO_Init(GPIOB, &GPIO_InitStruct);
 115:Core/Src/usart.c **** 
 116:Core/Src/usart.c ****     GPIO_InitStruct.Pin = GPIO_PIN_9;
 117:Core/Src/usart.c ****     GPIO_InitStruct.Mode = GPIO_MODE_AF_PP;
 118:Core/Src/usart.c ****     GPIO_InitStruct.Pull = GPIO_NOPULL;
 119:Core/Src/usart.c ****     GPIO_InitStruct.Speed = GPIO_SPEED_FREQ_VERY_HIGH;
 120:Core/Src/usart.c ****     GPIO_InitStruct.Alternate = GPIO_AF7_USART1;
 121:Core/Src/usart.c ****     HAL_GPIO_Init(GPIOA, &GPIO_InitStruct);
 122:Core/Src/usart.c **** 
 123:Core/Src/usart.c ****     /* USART1 DMA Init */
 124:Core/Src/usart.c ****     /* USART1_TX Init */
 125:Core/Src/usart.c ****     hdma_usart1_tx.Instance = DMA2_Stream7;
 126:Core/Src/usart.c ****     hdma_usart1_tx.Init.Channel = DMA_CHANNEL_4;
 127:Core/Src/usart.c ****     hdma_usart1_tx.Init.Direction = DMA_MEMORY_TO_PERIPH;
 128:Core/Src/usart.c ****     hdma_usart1_tx.Init.PeriphInc = DMA_PINC_DISABLE;
 129:Core/Src/usart.c ****     hdma_usart1_tx.Init.MemInc = DMA_MINC_ENABLE;
 130:Core/Src/usart.c ****     hdma_usart1_tx.Init.PeriphDataAlignment = DMA_PDATAALIGN_BYTE;
 131:Core/Src/usart.c ****     hdma_usart1_tx.Init.MemDataAlignment = DMA_MDATAALIGN_BYTE;
 132:Core/Src/usart.c ****     hdma_usart1_tx.Init.Mode = DMA_NORMAL;
 133:Core/Src/usart.c ****     hdma_usart1_tx.Init.Priority = DMA_PRIORITY_VERY_HIGH;
 134:Core/Src/usart.c ****     hdma_usart1_tx.Init.FIFOMode = DMA_FIFOMODE_DISABLE;
 135:Core/Src/usart.c ****     if (HAL_DMA_Init(&hdma_usart1_tx) != HAL_OK)
 136:Core/Src/usart.c ****     {
 137:Core/Src/usart.c ****       Error_Handler();
 138:Core/Src/usart.c ****     }
 139:Core/Src/usart.c **** 
 140:Core/Src/usart.c ****     __HAL_LINKDMA(uartHandle,hdmatx,hdma_usart1_tx);
 141:Core/Src/usart.c **** 
ARM GAS  C:\Users\xixi\AppData\Local\Temp\ccsA5dxe.s 			page 7


 142:Core/Src/usart.c ****     /* USART1 interrupt Init */
 143:Core/Src/usart.c ****     HAL_NVIC_SetPriority(USART1_IRQn, 0, 0);
 144:Core/Src/usart.c ****     HAL_NVIC_EnableIRQ(USART1_IRQn);
 145:Core/Src/usart.c ****   /* USER CODE BEGIN USART1_MspInit 1 */
 146:Core/Src/usart.c **** 
 147:Core/Src/usart.c ****   /* USER CODE END USART1_MspInit 1 */
 148:Core/Src/usart.c ****   }
 149:Core/Src/usart.c ****   else if(uartHandle->Instance==USART3)
 205              		.loc 1 149 8 is_stmt 1 view .LVU53
 206              		.loc 1 149 10 is_stmt 0 view .LVU54
 207 001c 574A     		ldr	r2, .L23+4
 208 001e 9342     		cmp	r3, r2
 209 0020 61D0     		beq	.L20
 210              	.LVL5:
 211              	.L13:
 150:Core/Src/usart.c ****   {
 151:Core/Src/usart.c ****   /* USER CODE BEGIN USART3_MspInit 0 */
 152:Core/Src/usart.c **** 
 153:Core/Src/usart.c ****   /* USER CODE END USART3_MspInit 0 */
 154:Core/Src/usart.c ****     /* USART3 clock enable */
 155:Core/Src/usart.c ****     __HAL_RCC_USART3_CLK_ENABLE();
 156:Core/Src/usart.c **** 
 157:Core/Src/usart.c ****     __HAL_RCC_GPIOC_CLK_ENABLE();
 158:Core/Src/usart.c ****     /**USART3 GPIO Configuration
 159:Core/Src/usart.c ****     PC11     ------> USART3_RX
 160:Core/Src/usart.c ****     PC10     ------> USART3_TX
 161:Core/Src/usart.c ****     */
 162:Core/Src/usart.c ****     GPIO_InitStruct.Pin = GPIO_PIN_11|GPIO_PIN_10;
 163:Core/Src/usart.c ****     GPIO_InitStruct.Mode = GPIO_MODE_AF_PP;
 164:Core/Src/usart.c ****     GPIO_InitStruct.Pull = GPIO_NOPULL;
 165:Core/Src/usart.c ****     GPIO_InitStruct.Speed = GPIO_SPEED_FREQ_VERY_HIGH;
 166:Core/Src/usart.c ****     GPIO_InitStruct.Alternate = GPIO_AF7_USART3;
 167:Core/Src/usart.c ****     HAL_GPIO_Init(GPIOC, &GPIO_InitStruct);
 168:Core/Src/usart.c **** 
 169:Core/Src/usart.c ****     /* USART3 DMA Init */
 170:Core/Src/usart.c ****     /* USART3_RX Init */
 171:Core/Src/usart.c ****     hdma_usart3_rx.Instance = DMA1_Stream1;
 172:Core/Src/usart.c ****     hdma_usart3_rx.Init.Channel = DMA_CHANNEL_4;
 173:Core/Src/usart.c ****     hdma_usart3_rx.Init.Direction = DMA_PERIPH_TO_MEMORY;
 174:Core/Src/usart.c ****     hdma_usart3_rx.Init.PeriphInc = DMA_PINC_DISABLE;
 175:Core/Src/usart.c ****     hdma_usart3_rx.Init.MemInc = DMA_MINC_ENABLE;
 176:Core/Src/usart.c ****     hdma_usart3_rx.Init.PeriphDataAlignment = DMA_PDATAALIGN_BYTE;
 177:Core/Src/usart.c ****     hdma_usart3_rx.Init.MemDataAlignment = DMA_MDATAALIGN_BYTE;
 178:Core/Src/usart.c ****     hdma_usart3_rx.Init.Mode = DMA_CIRCULAR;
 179:Core/Src/usart.c ****     hdma_usart3_rx.Init.Priority = DMA_PRIORITY_VERY_HIGH;
 180:Core/Src/usart.c ****     hdma_usart3_rx.Init.FIFOMode = DMA_FIFOMODE_DISABLE;
 181:Core/Src/usart.c ****     if (HAL_DMA_Init(&hdma_usart3_rx) != HAL_OK)
 182:Core/Src/usart.c ****     {
 183:Core/Src/usart.c ****       Error_Handler();
 184:Core/Src/usart.c ****     }
 185:Core/Src/usart.c **** 
 186:Core/Src/usart.c ****     __HAL_LINKDMA(uartHandle,hdmarx,hdma_usart3_rx);
 187:Core/Src/usart.c **** 
 188:Core/Src/usart.c ****     /* USART3 interrupt Init */
 189:Core/Src/usart.c ****     HAL_NVIC_SetPriority(USART3_IRQn, 0, 0);
 190:Core/Src/usart.c ****     HAL_NVIC_EnableIRQ(USART3_IRQn);
 191:Core/Src/usart.c ****   /* USER CODE BEGIN USART3_MspInit 1 */
ARM GAS  C:\Users\xixi\AppData\Local\Temp\ccsA5dxe.s 			page 8


 192:Core/Src/usart.c **** 
 193:Core/Src/usart.c ****   /* USER CODE END USART3_MspInit 1 */
 194:Core/Src/usart.c ****   }
 195:Core/Src/usart.c **** }
 212              		.loc 1 195 1 view .LVU55
 213 0022 0AB0     		add	sp, sp, #40
 214              	.LCFI4:
 215              		.cfi_remember_state
 216              		.cfi_def_cfa_offset 24
 217              		@ sp needed
 218 0024 BDE8F081 		pop	{r4, r5, r6, r7, r8, pc}
 219              	.LVL6:
 220              	.L19:
 221              	.LCFI5:
 222              		.cfi_restore_state
 101:Core/Src/usart.c **** 
 223              		.loc 1 101 5 is_stmt 1 view .LVU56
 224              	.LBB2:
 101:Core/Src/usart.c **** 
 225              		.loc 1 101 5 view .LVU57
 226 0028 0025     		movs	r5, #0
 227 002a 0095     		str	r5, [sp]
 101:Core/Src/usart.c **** 
 228              		.loc 1 101 5 view .LVU58
 229 002c 544B     		ldr	r3, .L23+8
 230 002e 5A6C     		ldr	r2, [r3, #68]
 231 0030 42F01002 		orr	r2, r2, #16
 232 0034 5A64     		str	r2, [r3, #68]
 101:Core/Src/usart.c **** 
 233              		.loc 1 101 5 view .LVU59
 234 0036 5A6C     		ldr	r2, [r3, #68]
 235 0038 02F01002 		and	r2, r2, #16
 236 003c 0092     		str	r2, [sp]
 101:Core/Src/usart.c **** 
 237              		.loc 1 101 5 view .LVU60
 238 003e 009A     		ldr	r2, [sp]
 239              	.LBE2:
 101:Core/Src/usart.c **** 
 240              		.loc 1 101 5 view .LVU61
 103:Core/Src/usart.c ****     __HAL_RCC_GPIOA_CLK_ENABLE();
 241              		.loc 1 103 5 view .LVU62
 242              	.LBB3:
 103:Core/Src/usart.c ****     __HAL_RCC_GPIOA_CLK_ENABLE();
 243              		.loc 1 103 5 view .LVU63
 244 0040 0195     		str	r5, [sp, #4]
 103:Core/Src/usart.c ****     __HAL_RCC_GPIOA_CLK_ENABLE();
 245              		.loc 1 103 5 view .LVU64
 246 0042 1A6B     		ldr	r2, [r3, #48]
 247 0044 42F00202 		orr	r2, r2, #2
 248 0048 1A63     		str	r2, [r3, #48]
 103:Core/Src/usart.c ****     __HAL_RCC_GPIOA_CLK_ENABLE();
 249              		.loc 1 103 5 view .LVU65
 250 004a 1A6B     		ldr	r2, [r3, #48]
 251 004c 02F00202 		and	r2, r2, #2
 252 0050 0192     		str	r2, [sp, #4]
 103:Core/Src/usart.c ****     __HAL_RCC_GPIOA_CLK_ENABLE();
 253              		.loc 1 103 5 view .LVU66
ARM GAS  C:\Users\xixi\AppData\Local\Temp\ccsA5dxe.s 			page 9


 254 0052 019A     		ldr	r2, [sp, #4]
 255              	.LBE3:
 103:Core/Src/usart.c ****     __HAL_RCC_GPIOA_CLK_ENABLE();
 256              		.loc 1 103 5 view .LVU67
 104:Core/Src/usart.c ****     /**USART1 GPIO Configuration
 257              		.loc 1 104 5 view .LVU68
 258              	.LBB4:
 104:Core/Src/usart.c ****     /**USART1 GPIO Configuration
 259              		.loc 1 104 5 view .LVU69
 260 0054 0295     		str	r5, [sp, #8]
 104:Core/Src/usart.c ****     /**USART1 GPIO Configuration
 261              		.loc 1 104 5 view .LVU70
 262 0056 1A6B     		ldr	r2, [r3, #48]
 263 0058 42F00102 		orr	r2, r2, #1
 264 005c 1A63     		str	r2, [r3, #48]
 104:Core/Src/usart.c ****     /**USART1 GPIO Configuration
 265              		.loc 1 104 5 view .LVU71
 266 005e 1B6B     		ldr	r3, [r3, #48]
 267 0060 03F00103 		and	r3, r3, #1
 268 0064 0293     		str	r3, [sp, #8]
 104:Core/Src/usart.c ****     /**USART1 GPIO Configuration
 269              		.loc 1 104 5 view .LVU72
 270 0066 029B     		ldr	r3, [sp, #8]
 271              	.LBE4:
 104:Core/Src/usart.c ****     /**USART1 GPIO Configuration
 272              		.loc 1 104 5 view .LVU73
 109:Core/Src/usart.c ****     GPIO_InitStruct.Mode = GPIO_MODE_AF_PP;
 273              		.loc 1 109 5 view .LVU74
 109:Core/Src/usart.c ****     GPIO_InitStruct.Mode = GPIO_MODE_AF_PP;
 274              		.loc 1 109 25 is_stmt 0 view .LVU75
 275 0068 8023     		movs	r3, #128
 276 006a 0593     		str	r3, [sp, #20]
 110:Core/Src/usart.c ****     GPIO_InitStruct.Pull = GPIO_NOPULL;
 277              		.loc 1 110 5 is_stmt 1 view .LVU76
 110:Core/Src/usart.c ****     GPIO_InitStruct.Pull = GPIO_NOPULL;
 278              		.loc 1 110 26 is_stmt 0 view .LVU77
 279 006c 4FF00208 		mov	r8, #2
 280 0070 CDF81880 		str	r8, [sp, #24]
 111:Core/Src/usart.c ****     GPIO_InitStruct.Speed = GPIO_SPEED_FREQ_VERY_HIGH;
 281              		.loc 1 111 5 is_stmt 1 view .LVU78
 112:Core/Src/usart.c ****     GPIO_InitStruct.Alternate = GPIO_AF7_USART1;
 282              		.loc 1 112 5 view .LVU79
 112:Core/Src/usart.c ****     GPIO_InitStruct.Alternate = GPIO_AF7_USART1;
 283              		.loc 1 112 27 is_stmt 0 view .LVU80
 284 0074 0327     		movs	r7, #3
 285 0076 0897     		str	r7, [sp, #32]
 113:Core/Src/usart.c ****     HAL_GPIO_Init(GPIOB, &GPIO_InitStruct);
 286              		.loc 1 113 5 is_stmt 1 view .LVU81
 113:Core/Src/usart.c ****     HAL_GPIO_Init(GPIOB, &GPIO_InitStruct);
 287              		.loc 1 113 31 is_stmt 0 view .LVU82
 288 0078 0726     		movs	r6, #7
 289 007a 0996     		str	r6, [sp, #36]
 114:Core/Src/usart.c **** 
 290              		.loc 1 114 5 is_stmt 1 view .LVU83
 291 007c 05A9     		add	r1, sp, #20
 292 007e 4148     		ldr	r0, .L23+12
 293              	.LVL7:
ARM GAS  C:\Users\xixi\AppData\Local\Temp\ccsA5dxe.s 			page 10


 114:Core/Src/usart.c **** 
 294              		.loc 1 114 5 is_stmt 0 view .LVU84
 295 0080 FFF7FEFF 		bl	HAL_GPIO_Init
 296              	.LVL8:
 116:Core/Src/usart.c ****     GPIO_InitStruct.Mode = GPIO_MODE_AF_PP;
 297              		.loc 1 116 5 is_stmt 1 view .LVU85
 116:Core/Src/usart.c ****     GPIO_InitStruct.Mode = GPIO_MODE_AF_PP;
 298              		.loc 1 116 25 is_stmt 0 view .LVU86
 299 0084 4FF40073 		mov	r3, #512
 300 0088 0593     		str	r3, [sp, #20]
 117:Core/Src/usart.c ****     GPIO_InitStruct.Pull = GPIO_NOPULL;
 301              		.loc 1 117 5 is_stmt 1 view .LVU87
 117:Core/Src/usart.c ****     GPIO_InitStruct.Pull = GPIO_NOPULL;
 302              		.loc 1 117 26 is_stmt 0 view .LVU88
 303 008a CDF81880 		str	r8, [sp, #24]
 118:Core/Src/usart.c ****     GPIO_InitStruct.Speed = GPIO_SPEED_FREQ_VERY_HIGH;
 304              		.loc 1 118 5 is_stmt 1 view .LVU89
 118:Core/Src/usart.c ****     GPIO_InitStruct.Speed = GPIO_SPEED_FREQ_VERY_HIGH;
 305              		.loc 1 118 26 is_stmt 0 view .LVU90
 306 008e 0795     		str	r5, [sp, #28]
 119:Core/Src/usart.c ****     GPIO_InitStruct.Alternate = GPIO_AF7_USART1;
 307              		.loc 1 119 5 is_stmt 1 view .LVU91
 119:Core/Src/usart.c ****     GPIO_InitStruct.Alternate = GPIO_AF7_USART1;
 308              		.loc 1 119 27 is_stmt 0 view .LVU92
 309 0090 0897     		str	r7, [sp, #32]
 120:Core/Src/usart.c ****     HAL_GPIO_Init(GPIOA, &GPIO_InitStruct);
 310              		.loc 1 120 5 is_stmt 1 view .LVU93
 120:Core/Src/usart.c ****     HAL_GPIO_Init(GPIOA, &GPIO_InitStruct);
 311              		.loc 1 120 31 is_stmt 0 view .LVU94
 312 0092 0996     		str	r6, [sp, #36]
 121:Core/Src/usart.c **** 
 313              		.loc 1 121 5 is_stmt 1 view .LVU95
 314 0094 05A9     		add	r1, sp, #20
 315 0096 3C48     		ldr	r0, .L23+16
 316 0098 FFF7FEFF 		bl	HAL_GPIO_Init
 317              	.LVL9:
 125:Core/Src/usart.c ****     hdma_usart1_tx.Init.Channel = DMA_CHANNEL_4;
 318              		.loc 1 125 5 view .LVU96
 125:Core/Src/usart.c ****     hdma_usart1_tx.Init.Channel = DMA_CHANNEL_4;
 319              		.loc 1 125 29 is_stmt 0 view .LVU97
 320 009c 3B48     		ldr	r0, .L23+20
 321 009e 3C4B     		ldr	r3, .L23+24
 322 00a0 0360     		str	r3, [r0]
 126:Core/Src/usart.c ****     hdma_usart1_tx.Init.Direction = DMA_MEMORY_TO_PERIPH;
 323              		.loc 1 126 5 is_stmt 1 view .LVU98
 126:Core/Src/usart.c ****     hdma_usart1_tx.Init.Direction = DMA_MEMORY_TO_PERIPH;
 324              		.loc 1 126 33 is_stmt 0 view .LVU99
 325 00a2 4FF00063 		mov	r3, #134217728
 326 00a6 4360     		str	r3, [r0, #4]
 127:Core/Src/usart.c ****     hdma_usart1_tx.Init.PeriphInc = DMA_PINC_DISABLE;
 327              		.loc 1 127 5 is_stmt 1 view .LVU100
 127:Core/Src/usart.c ****     hdma_usart1_tx.Init.PeriphInc = DMA_PINC_DISABLE;
 328              		.loc 1 127 35 is_stmt 0 view .LVU101
 329 00a8 4023     		movs	r3, #64
 330 00aa 8360     		str	r3, [r0, #8]
 128:Core/Src/usart.c ****     hdma_usart1_tx.Init.MemInc = DMA_MINC_ENABLE;
 331              		.loc 1 128 5 is_stmt 1 view .LVU102
ARM GAS  C:\Users\xixi\AppData\Local\Temp\ccsA5dxe.s 			page 11


 128:Core/Src/usart.c ****     hdma_usart1_tx.Init.MemInc = DMA_MINC_ENABLE;
 332              		.loc 1 128 35 is_stmt 0 view .LVU103
 333 00ac C560     		str	r5, [r0, #12]
 129:Core/Src/usart.c ****     hdma_usart1_tx.Init.PeriphDataAlignment = DMA_PDATAALIGN_BYTE;
 334              		.loc 1 129 5 is_stmt 1 view .LVU104
 129:Core/Src/usart.c ****     hdma_usart1_tx.Init.PeriphDataAlignment = DMA_PDATAALIGN_BYTE;
 335              		.loc 1 129 32 is_stmt 0 view .LVU105
 336 00ae 4FF48063 		mov	r3, #1024
 337 00b2 0361     		str	r3, [r0, #16]
 130:Core/Src/usart.c ****     hdma_usart1_tx.Init.MemDataAlignment = DMA_MDATAALIGN_BYTE;
 338              		.loc 1 130 5 is_stmt 1 view .LVU106
 130:Core/Src/usart.c ****     hdma_usart1_tx.Init.MemDataAlignment = DMA_MDATAALIGN_BYTE;
 339              		.loc 1 130 45 is_stmt 0 view .LVU107
 340 00b4 4561     		str	r5, [r0, #20]
 131:Core/Src/usart.c ****     hdma_usart1_tx.Init.Mode = DMA_NORMAL;
 341              		.loc 1 131 5 is_stmt 1 view .LVU108
 131:Core/Src/usart.c ****     hdma_usart1_tx.Init.Mode = DMA_NORMAL;
 342              		.loc 1 131 42 is_stmt 0 view .LVU109
 343 00b6 8561     		str	r5, [r0, #24]
 132:Core/Src/usart.c ****     hdma_usart1_tx.Init.Priority = DMA_PRIORITY_VERY_HIGH;
 344              		.loc 1 132 5 is_stmt 1 view .LVU110
 132:Core/Src/usart.c ****     hdma_usart1_tx.Init.Priority = DMA_PRIORITY_VERY_HIGH;
 345              		.loc 1 132 30 is_stmt 0 view .LVU111
 346 00b8 C561     		str	r5, [r0, #28]
 133:Core/Src/usart.c ****     hdma_usart1_tx.Init.FIFOMode = DMA_FIFOMODE_DISABLE;
 347              		.loc 1 133 5 is_stmt 1 view .LVU112
 133:Core/Src/usart.c ****     hdma_usart1_tx.Init.FIFOMode = DMA_FIFOMODE_DISABLE;
 348              		.loc 1 133 34 is_stmt 0 view .LVU113
 349 00ba 4FF44033 		mov	r3, #196608
 350 00be 0362     		str	r3, [r0, #32]
 134:Core/Src/usart.c ****     if (HAL_DMA_Init(&hdma_usart1_tx) != HAL_OK)
 351              		.loc 1 134 5 is_stmt 1 view .LVU114
 134:Core/Src/usart.c ****     if (HAL_DMA_Init(&hdma_usart1_tx) != HAL_OK)
 352              		.loc 1 134 34 is_stmt 0 view .LVU115
 353 00c0 4562     		str	r5, [r0, #36]
 135:Core/Src/usart.c ****     {
 354              		.loc 1 135 5 is_stmt 1 view .LVU116
 135:Core/Src/usart.c ****     {
 355              		.loc 1 135 9 is_stmt 0 view .LVU117
 356 00c2 FFF7FEFF 		bl	HAL_DMA_Init
 357              	.LVL10:
 135:Core/Src/usart.c ****     {
 358              		.loc 1 135 8 view .LVU118
 359 00c6 58B9     		cbnz	r0, .L21
 360              	.L15:
 140:Core/Src/usart.c **** 
 361              		.loc 1 140 5 is_stmt 1 view .LVU119
 140:Core/Src/usart.c **** 
 362              		.loc 1 140 5 view .LVU120
 363 00c8 304B     		ldr	r3, .L23+20
 364 00ca 6363     		str	r3, [r4, #52]
 140:Core/Src/usart.c **** 
 365              		.loc 1 140 5 view .LVU121
 366 00cc 9C63     		str	r4, [r3, #56]
 140:Core/Src/usart.c **** 
 367              		.loc 1 140 5 view .LVU122
 143:Core/Src/usart.c ****     HAL_NVIC_EnableIRQ(USART1_IRQn);
ARM GAS  C:\Users\xixi\AppData\Local\Temp\ccsA5dxe.s 			page 12


 368              		.loc 1 143 5 view .LVU123
 369 00ce 0022     		movs	r2, #0
 370 00d0 1146     		mov	r1, r2
 371 00d2 2520     		movs	r0, #37
 372 00d4 FFF7FEFF 		bl	HAL_NVIC_SetPriority
 373              	.LVL11:
 144:Core/Src/usart.c ****   /* USER CODE BEGIN USART1_MspInit 1 */
 374              		.loc 1 144 5 view .LVU124
 375 00d8 2520     		movs	r0, #37
 376 00da FFF7FEFF 		bl	HAL_NVIC_EnableIRQ
 377              	.LVL12:
 378 00de A0E7     		b	.L13
 379              	.L21:
 137:Core/Src/usart.c ****     }
 380              		.loc 1 137 7 view .LVU125
 381 00e0 FFF7FEFF 		bl	Error_Handler
 382              	.LVL13:
 383 00e4 F0E7     		b	.L15
 384              	.LVL14:
 385              	.L20:
 155:Core/Src/usart.c **** 
 386              		.loc 1 155 5 view .LVU126
 387              	.LBB5:
 155:Core/Src/usart.c **** 
 388              		.loc 1 155 5 view .LVU127
 389 00e6 0025     		movs	r5, #0
 390 00e8 0395     		str	r5, [sp, #12]
 155:Core/Src/usart.c **** 
 391              		.loc 1 155 5 view .LVU128
 392 00ea 254B     		ldr	r3, .L23+8
 393 00ec 1A6C     		ldr	r2, [r3, #64]
 394 00ee 42F48022 		orr	r2, r2, #262144
 395 00f2 1A64     		str	r2, [r3, #64]
 155:Core/Src/usart.c **** 
 396              		.loc 1 155 5 view .LVU129
 397 00f4 1A6C     		ldr	r2, [r3, #64]
 398 00f6 02F48022 		and	r2, r2, #262144
 399 00fa 0392     		str	r2, [sp, #12]
 155:Core/Src/usart.c **** 
 400              		.loc 1 155 5 view .LVU130
 401 00fc 039A     		ldr	r2, [sp, #12]
 402              	.LBE5:
 155:Core/Src/usart.c **** 
 403              		.loc 1 155 5 view .LVU131
 157:Core/Src/usart.c ****     /**USART3 GPIO Configuration
 404              		.loc 1 157 5 view .LVU132
 405              	.LBB6:
 157:Core/Src/usart.c ****     /**USART3 GPIO Configuration
 406              		.loc 1 157 5 view .LVU133
 407 00fe 0495     		str	r5, [sp, #16]
 157:Core/Src/usart.c ****     /**USART3 GPIO Configuration
 408              		.loc 1 157 5 view .LVU134
 409 0100 1A6B     		ldr	r2, [r3, #48]
 410 0102 42F00402 		orr	r2, r2, #4
 411 0106 1A63     		str	r2, [r3, #48]
 157:Core/Src/usart.c ****     /**USART3 GPIO Configuration
 412              		.loc 1 157 5 view .LVU135
ARM GAS  C:\Users\xixi\AppData\Local\Temp\ccsA5dxe.s 			page 13


 413 0108 1B6B     		ldr	r3, [r3, #48]
 414 010a 03F00403 		and	r3, r3, #4
 415 010e 0493     		str	r3, [sp, #16]
 157:Core/Src/usart.c ****     /**USART3 GPIO Configuration
 416              		.loc 1 157 5 view .LVU136
 417 0110 049B     		ldr	r3, [sp, #16]
 418              	.LBE6:
 157:Core/Src/usart.c ****     /**USART3 GPIO Configuration
 419              		.loc 1 157 5 view .LVU137
 162:Core/Src/usart.c ****     GPIO_InitStruct.Mode = GPIO_MODE_AF_PP;
 420              		.loc 1 162 5 view .LVU138
 162:Core/Src/usart.c ****     GPIO_InitStruct.Mode = GPIO_MODE_AF_PP;
 421              		.loc 1 162 25 is_stmt 0 view .LVU139
 422 0112 4FF44063 		mov	r3, #3072
 423 0116 0593     		str	r3, [sp, #20]
 163:Core/Src/usart.c ****     GPIO_InitStruct.Pull = GPIO_NOPULL;
 424              		.loc 1 163 5 is_stmt 1 view .LVU140
 163:Core/Src/usart.c ****     GPIO_InitStruct.Pull = GPIO_NOPULL;
 425              		.loc 1 163 26 is_stmt 0 view .LVU141
 426 0118 0223     		movs	r3, #2
 427 011a 0693     		str	r3, [sp, #24]
 164:Core/Src/usart.c ****     GPIO_InitStruct.Speed = GPIO_SPEED_FREQ_VERY_HIGH;
 428              		.loc 1 164 5 is_stmt 1 view .LVU142
 165:Core/Src/usart.c ****     GPIO_InitStruct.Alternate = GPIO_AF7_USART3;
 429              		.loc 1 165 5 view .LVU143
 165:Core/Src/usart.c ****     GPIO_InitStruct.Alternate = GPIO_AF7_USART3;
 430              		.loc 1 165 27 is_stmt 0 view .LVU144
 431 011c 0323     		movs	r3, #3
 432 011e 0893     		str	r3, [sp, #32]
 166:Core/Src/usart.c ****     HAL_GPIO_Init(GPIOC, &GPIO_InitStruct);
 433              		.loc 1 166 5 is_stmt 1 view .LVU145
 166:Core/Src/usart.c ****     HAL_GPIO_Init(GPIOC, &GPIO_InitStruct);
 434              		.loc 1 166 31 is_stmt 0 view .LVU146
 435 0120 0723     		movs	r3, #7
 436 0122 0993     		str	r3, [sp, #36]
 167:Core/Src/usart.c **** 
 437              		.loc 1 167 5 is_stmt 1 view .LVU147
 438 0124 05A9     		add	r1, sp, #20
 439 0126 1B48     		ldr	r0, .L23+28
 440              	.LVL15:
 167:Core/Src/usart.c **** 
 441              		.loc 1 167 5 is_stmt 0 view .LVU148
 442 0128 FFF7FEFF 		bl	HAL_GPIO_Init
 443              	.LVL16:
 171:Core/Src/usart.c ****     hdma_usart3_rx.Init.Channel = DMA_CHANNEL_4;
 444              		.loc 1 171 5 is_stmt 1 view .LVU149
 171:Core/Src/usart.c ****     hdma_usart3_rx.Init.Channel = DMA_CHANNEL_4;
 445              		.loc 1 171 29 is_stmt 0 view .LVU150
 446 012c 1A48     		ldr	r0, .L23+32
 447 012e 1B4B     		ldr	r3, .L23+36
 448 0130 0360     		str	r3, [r0]
 172:Core/Src/usart.c ****     hdma_usart3_rx.Init.Direction = DMA_PERIPH_TO_MEMORY;
 449              		.loc 1 172 5 is_stmt 1 view .LVU151
 172:Core/Src/usart.c ****     hdma_usart3_rx.Init.Direction = DMA_PERIPH_TO_MEMORY;
 450              		.loc 1 172 33 is_stmt 0 view .LVU152
 451 0132 4FF00063 		mov	r3, #134217728
 452 0136 4360     		str	r3, [r0, #4]
ARM GAS  C:\Users\xixi\AppData\Local\Temp\ccsA5dxe.s 			page 14


 173:Core/Src/usart.c ****     hdma_usart3_rx.Init.PeriphInc = DMA_PINC_DISABLE;
 453              		.loc 1 173 5 is_stmt 1 view .LVU153
 173:Core/Src/usart.c ****     hdma_usart3_rx.Init.PeriphInc = DMA_PINC_DISABLE;
 454              		.loc 1 173 35 is_stmt 0 view .LVU154
 455 0138 8560     		str	r5, [r0, #8]
 174:Core/Src/usart.c ****     hdma_usart3_rx.Init.MemInc = DMA_MINC_ENABLE;
 456              		.loc 1 174 5 is_stmt 1 view .LVU155
 174:Core/Src/usart.c ****     hdma_usart3_rx.Init.MemInc = DMA_MINC_ENABLE;
 457              		.loc 1 174 35 is_stmt 0 view .LVU156
 458 013a C560     		str	r5, [r0, #12]
 175:Core/Src/usart.c ****     hdma_usart3_rx.Init.PeriphDataAlignment = DMA_PDATAALIGN_BYTE;
 459              		.loc 1 175 5 is_stmt 1 view .LVU157
 175:Core/Src/usart.c ****     hdma_usart3_rx.Init.PeriphDataAlignment = DMA_PDATAALIGN_BYTE;
 460              		.loc 1 175 32 is_stmt 0 view .LVU158
 461 013c 4FF48063 		mov	r3, #1024
 462 0140 0361     		str	r3, [r0, #16]
 176:Core/Src/usart.c ****     hdma_usart3_rx.Init.MemDataAlignment = DMA_MDATAALIGN_BYTE;
 463              		.loc 1 176 5 is_stmt 1 view .LVU159
 176:Core/Src/usart.c ****     hdma_usart3_rx.Init.MemDataAlignment = DMA_MDATAALIGN_BYTE;
 464              		.loc 1 176 45 is_stmt 0 view .LVU160
 465 0142 4561     		str	r5, [r0, #20]
 177:Core/Src/usart.c ****     hdma_usart3_rx.Init.Mode = DMA_CIRCULAR;
 466              		.loc 1 177 5 is_stmt 1 view .LVU161
 177:Core/Src/usart.c ****     hdma_usart3_rx.Init.Mode = DMA_CIRCULAR;
 467              		.loc 1 177 42 is_stmt 0 view .LVU162
 468 0144 8561     		str	r5, [r0, #24]
 178:Core/Src/usart.c ****     hdma_usart3_rx.Init.Priority = DMA_PRIORITY_VERY_HIGH;
 469              		.loc 1 178 5 is_stmt 1 view .LVU163
 178:Core/Src/usart.c ****     hdma_usart3_rx.Init.Priority = DMA_PRIORITY_VERY_HIGH;
 470              		.loc 1 178 30 is_stmt 0 view .LVU164
 471 0146 4FF48073 		mov	r3, #256
 472 014a C361     		str	r3, [r0, #28]
 179:Core/Src/usart.c ****     hdma_usart3_rx.Init.FIFOMode = DMA_FIFOMODE_DISABLE;
 473              		.loc 1 179 5 is_stmt 1 view .LVU165
 179:Core/Src/usart.c ****     hdma_usart3_rx.Init.FIFOMode = DMA_FIFOMODE_DISABLE;
 474              		.loc 1 179 34 is_stmt 0 view .LVU166
 475 014c 4FF44033 		mov	r3, #196608
 476 0150 0362     		str	r3, [r0, #32]
 180:Core/Src/usart.c ****     if (HAL_DMA_Init(&hdma_usart3_rx) != HAL_OK)
 477              		.loc 1 180 5 is_stmt 1 view .LVU167
 180:Core/Src/usart.c ****     if (HAL_DMA_Init(&hdma_usart3_rx) != HAL_OK)
 478              		.loc 1 180 34 is_stmt 0 view .LVU168
 479 0152 4562     		str	r5, [r0, #36]
 181:Core/Src/usart.c ****     {
 480              		.loc 1 181 5 is_stmt 1 view .LVU169
 181:Core/Src/usart.c ****     {
 481              		.loc 1 181 9 is_stmt 0 view .LVU170
 482 0154 FFF7FEFF 		bl	HAL_DMA_Init
 483              	.LVL17:
 181:Core/Src/usart.c ****     {
 484              		.loc 1 181 8 view .LVU171
 485 0158 58B9     		cbnz	r0, .L22
 486              	.L17:
 186:Core/Src/usart.c **** 
 487              		.loc 1 186 5 is_stmt 1 view .LVU172
 186:Core/Src/usart.c **** 
 488              		.loc 1 186 5 view .LVU173
ARM GAS  C:\Users\xixi\AppData\Local\Temp\ccsA5dxe.s 			page 15


 489 015a 0F4B     		ldr	r3, .L23+32
 490 015c A363     		str	r3, [r4, #56]
 186:Core/Src/usart.c **** 
 491              		.loc 1 186 5 view .LVU174
 492 015e 9C63     		str	r4, [r3, #56]
 186:Core/Src/usart.c **** 
 493              		.loc 1 186 5 view .LVU175
 189:Core/Src/usart.c ****     HAL_NVIC_EnableIRQ(USART3_IRQn);
 494              		.loc 1 189 5 view .LVU176
 495 0160 0022     		movs	r2, #0
 496 0162 1146     		mov	r1, r2
 497 0164 2720     		movs	r0, #39
 498 0166 FFF7FEFF 		bl	HAL_NVIC_SetPriority
 499              	.LVL18:
 190:Core/Src/usart.c ****   /* USER CODE BEGIN USART3_MspInit 1 */
 500              		.loc 1 190 5 view .LVU177
 501 016a 2720     		movs	r0, #39
 502 016c FFF7FEFF 		bl	HAL_NVIC_EnableIRQ
 503              	.LVL19:
 504              		.loc 1 195 1 is_stmt 0 view .LVU178
 505 0170 57E7     		b	.L13
 506              	.L22:
 183:Core/Src/usart.c ****     }
 507              		.loc 1 183 7 is_stmt 1 view .LVU179
 508 0172 FFF7FEFF 		bl	Error_Handler
 509              	.LVL20:
 510 0176 F0E7     		b	.L17
 511              	.L24:
 512              		.align	2
 513              	.L23:
 514 0178 00100140 		.word	1073811456
 515 017c 00480040 		.word	1073760256
 516 0180 00380240 		.word	1073887232
 517 0184 00040240 		.word	1073873920
 518 0188 00000240 		.word	1073872896
 519 018c 00000000 		.word	.LANCHOR2
 520 0190 B8640240 		.word	1073898680
 521 0194 00080240 		.word	1073874944
 522 0198 00000000 		.word	.LANCHOR3
 523 019c 28600240 		.word	1073897512
 524              		.cfi_endproc
 525              	.LFE132:
 527              		.section	.text.HAL_UART_MspDeInit,"ax",%progbits
 528              		.align	1
 529              		.global	HAL_UART_MspDeInit
 530              		.syntax unified
 531              		.thumb
 532              		.thumb_func
 534              	HAL_UART_MspDeInit:
 535              	.LVL21:
 536              	.LFB133:
 196:Core/Src/usart.c **** 
 197:Core/Src/usart.c **** void HAL_UART_MspDeInit(UART_HandleTypeDef* uartHandle)
 198:Core/Src/usart.c **** {
 537              		.loc 1 198 1 view -0
 538              		.cfi_startproc
 539              		@ args = 0, pretend = 0, frame = 0
ARM GAS  C:\Users\xixi\AppData\Local\Temp\ccsA5dxe.s 			page 16


 540              		@ frame_needed = 0, uses_anonymous_args = 0
 541              		.loc 1 198 1 is_stmt 0 view .LVU181
 542 0000 10B5     		push	{r4, lr}
 543              	.LCFI6:
 544              		.cfi_def_cfa_offset 8
 545              		.cfi_offset 4, -8
 546              		.cfi_offset 14, -4
 547 0002 0446     		mov	r4, r0
 199:Core/Src/usart.c **** 
 200:Core/Src/usart.c ****   if(uartHandle->Instance==USART1)
 548              		.loc 1 200 3 is_stmt 1 view .LVU182
 549              		.loc 1 200 16 is_stmt 0 view .LVU183
 550 0004 0368     		ldr	r3, [r0]
 551              		.loc 1 200 5 view .LVU184
 552 0006 174A     		ldr	r2, .L31
 553 0008 9342     		cmp	r3, r2
 554 000a 03D0     		beq	.L29
 201:Core/Src/usart.c ****   {
 202:Core/Src/usart.c ****   /* USER CODE BEGIN USART1_MspDeInit 0 */
 203:Core/Src/usart.c **** 
 204:Core/Src/usart.c ****   /* USER CODE END USART1_MspDeInit 0 */
 205:Core/Src/usart.c ****     /* Peripheral clock disable */
 206:Core/Src/usart.c ****     __HAL_RCC_USART1_CLK_DISABLE();
 207:Core/Src/usart.c **** 
 208:Core/Src/usart.c ****     /**USART1 GPIO Configuration
 209:Core/Src/usart.c ****     PB7     ------> USART1_RX
 210:Core/Src/usart.c ****     PA9     ------> USART1_TX
 211:Core/Src/usart.c ****     */
 212:Core/Src/usart.c ****     HAL_GPIO_DeInit(GPIOB, GPIO_PIN_7);
 213:Core/Src/usart.c **** 
 214:Core/Src/usart.c ****     HAL_GPIO_DeInit(GPIOA, GPIO_PIN_9);
 215:Core/Src/usart.c **** 
 216:Core/Src/usart.c ****     /* USART1 DMA DeInit */
 217:Core/Src/usart.c ****     HAL_DMA_DeInit(uartHandle->hdmatx);
 218:Core/Src/usart.c **** 
 219:Core/Src/usart.c ****     /* USART1 interrupt Deinit */
 220:Core/Src/usart.c ****     HAL_NVIC_DisableIRQ(USART1_IRQn);
 221:Core/Src/usart.c ****   /* USER CODE BEGIN USART1_MspDeInit 1 */
 222:Core/Src/usart.c **** 
 223:Core/Src/usart.c ****   /* USER CODE END USART1_MspDeInit 1 */
 224:Core/Src/usart.c ****   }
 225:Core/Src/usart.c ****   else if(uartHandle->Instance==USART3)
 555              		.loc 1 225 8 is_stmt 1 view .LVU185
 556              		.loc 1 225 10 is_stmt 0 view .LVU186
 557 000c 164A     		ldr	r2, .L31+4
 558 000e 9342     		cmp	r3, r2
 559 0010 16D0     		beq	.L30
 560              	.LVL22:
 561              	.L25:
 226:Core/Src/usart.c ****   {
 227:Core/Src/usart.c ****   /* USER CODE BEGIN USART3_MspDeInit 0 */
 228:Core/Src/usart.c **** 
 229:Core/Src/usart.c ****   /* USER CODE END USART3_MspDeInit 0 */
 230:Core/Src/usart.c ****     /* Peripheral clock disable */
 231:Core/Src/usart.c ****     __HAL_RCC_USART3_CLK_DISABLE();
 232:Core/Src/usart.c **** 
 233:Core/Src/usart.c ****     /**USART3 GPIO Configuration
ARM GAS  C:\Users\xixi\AppData\Local\Temp\ccsA5dxe.s 			page 17


 234:Core/Src/usart.c ****     PC11     ------> USART3_RX
 235:Core/Src/usart.c ****     PC10     ------> USART3_TX
 236:Core/Src/usart.c ****     */
 237:Core/Src/usart.c ****     HAL_GPIO_DeInit(GPIOC, GPIO_PIN_11|GPIO_PIN_10);
 238:Core/Src/usart.c **** 
 239:Core/Src/usart.c ****     /* USART3 DMA DeInit */
 240:Core/Src/usart.c ****     HAL_DMA_DeInit(uartHandle->hdmarx);
 241:Core/Src/usart.c **** 
 242:Core/Src/usart.c ****     /* USART3 interrupt Deinit */
 243:Core/Src/usart.c ****     HAL_NVIC_DisableIRQ(USART3_IRQn);
 244:Core/Src/usart.c ****   /* USER CODE BEGIN USART3_MspDeInit 1 */
 245:Core/Src/usart.c **** 
 246:Core/Src/usart.c ****   /* USER CODE END USART3_MspDeInit 1 */
 247:Core/Src/usart.c ****   }
 248:Core/Src/usart.c **** }
 562              		.loc 1 248 1 view .LVU187
 563 0012 10BD     		pop	{r4, pc}
 564              	.LVL23:
 565              	.L29:
 206:Core/Src/usart.c **** 
 566              		.loc 1 206 5 is_stmt 1 view .LVU188
 567 0014 02F59432 		add	r2, r2, #75776
 568 0018 536C     		ldr	r3, [r2, #68]
 569 001a 23F01003 		bic	r3, r3, #16
 570 001e 5364     		str	r3, [r2, #68]
 212:Core/Src/usart.c **** 
 571              		.loc 1 212 5 view .LVU189
 572 0020 8021     		movs	r1, #128
 573 0022 1248     		ldr	r0, .L31+8
 574              	.LVL24:
 212:Core/Src/usart.c **** 
 575              		.loc 1 212 5 is_stmt 0 view .LVU190
 576 0024 FFF7FEFF 		bl	HAL_GPIO_DeInit
 577              	.LVL25:
 214:Core/Src/usart.c **** 
 578              		.loc 1 214 5 is_stmt 1 view .LVU191
 579 0028 4FF40071 		mov	r1, #512
 580 002c 1048     		ldr	r0, .L31+12
 581 002e FFF7FEFF 		bl	HAL_GPIO_DeInit
 582              	.LVL26:
 217:Core/Src/usart.c **** 
 583              		.loc 1 217 5 view .LVU192
 584 0032 606B     		ldr	r0, [r4, #52]
 585 0034 FFF7FEFF 		bl	HAL_DMA_DeInit
 586              	.LVL27:
 220:Core/Src/usart.c ****   /* USER CODE BEGIN USART1_MspDeInit 1 */
 587              		.loc 1 220 5 view .LVU193
 588 0038 2520     		movs	r0, #37
 589 003a FFF7FEFF 		bl	HAL_NVIC_DisableIRQ
 590              	.LVL28:
 591 003e E8E7     		b	.L25
 592              	.LVL29:
 593              	.L30:
 231:Core/Src/usart.c **** 
 594              		.loc 1 231 5 view .LVU194
 595 0040 02F5F832 		add	r2, r2, #126976
 596 0044 136C     		ldr	r3, [r2, #64]
ARM GAS  C:\Users\xixi\AppData\Local\Temp\ccsA5dxe.s 			page 18


 597 0046 23F48023 		bic	r3, r3, #262144
 598 004a 1364     		str	r3, [r2, #64]
 237:Core/Src/usart.c **** 
 599              		.loc 1 237 5 view .LVU195
 600 004c 4FF44061 		mov	r1, #3072
 601 0050 0848     		ldr	r0, .L31+16
 602              	.LVL30:
 237:Core/Src/usart.c **** 
 603              		.loc 1 237 5 is_stmt 0 view .LVU196
 604 0052 FFF7FEFF 		bl	HAL_GPIO_DeInit
 605              	.LVL31:
 240:Core/Src/usart.c **** 
 606              		.loc 1 240 5 is_stmt 1 view .LVU197
 607 0056 A06B     		ldr	r0, [r4, #56]
 608 0058 FFF7FEFF 		bl	HAL_DMA_DeInit
 609              	.LVL32:
 243:Core/Src/usart.c ****   /* USER CODE BEGIN USART3_MspDeInit 1 */
 610              		.loc 1 243 5 view .LVU198
 611 005c 2720     		movs	r0, #39
 612 005e FFF7FEFF 		bl	HAL_NVIC_DisableIRQ
 613              	.LVL33:
 614              		.loc 1 248 1 is_stmt 0 view .LVU199
 615 0062 D6E7     		b	.L25
 616              	.L32:
 617              		.align	2
 618              	.L31:
 619 0064 00100140 		.word	1073811456
 620 0068 00480040 		.word	1073760256
 621 006c 00040240 		.word	1073873920
 622 0070 00000240 		.word	1073872896
 623 0074 00080240 		.word	1073874944
 624              		.cfi_endproc
 625              	.LFE133:
 627              		.global	hdma_usart3_rx
 628              		.global	hdma_usart1_tx
 629              		.global	huart3
 630              		.global	huart1
 631              		.section	.bss.hdma_usart1_tx,"aw",%nobits
 632              		.align	2
 633              		.set	.LANCHOR2,. + 0
 636              	hdma_usart1_tx:
 637 0000 00000000 		.space	96
 637      00000000 
 637      00000000 
 637      00000000 
 637      00000000 
 638              		.section	.bss.hdma_usart3_rx,"aw",%nobits
 639              		.align	2
 640              		.set	.LANCHOR3,. + 0
 643              	hdma_usart3_rx:
 644 0000 00000000 		.space	96
 644      00000000 
 644      00000000 
 644      00000000 
 644      00000000 
 645              		.section	.bss.huart1,"aw",%nobits
 646              		.align	2
ARM GAS  C:\Users\xixi\AppData\Local\Temp\ccsA5dxe.s 			page 19


 647              		.set	.LANCHOR0,. + 0
 650              	huart1:
 651 0000 00000000 		.space	68
 651      00000000 
 651      00000000 
 651      00000000 
 651      00000000 
 652              		.section	.bss.huart3,"aw",%nobits
 653              		.align	2
 654              		.set	.LANCHOR1,. + 0
 657              	huart3:
 658 0000 00000000 		.space	68
 658      00000000 
 658      00000000 
 658      00000000 
 658      00000000 
 659              		.text
 660              	.Letext0:
 661              		.file 2 "c:\\program files (x86)\\gnu arm embedded toolchain\\10 2021.10\\arm-none-eabi\\include\\
 662              		.file 3 "c:\\program files (x86)\\gnu arm embedded toolchain\\10 2021.10\\arm-none-eabi\\include\\
 663              		.file 4 "Drivers/CMSIS/Device/ST/STM32F4xx/Include/stm32f407xx.h"
 664              		.file 5 "Drivers/STM32F4xx_HAL_Driver/Inc/stm32f4xx_hal_def.h"
 665              		.file 6 "Drivers/STM32F4xx_HAL_Driver/Inc/stm32f4xx_hal_gpio.h"
 666              		.file 7 "Drivers/STM32F4xx_HAL_Driver/Inc/stm32f4xx_hal_dma.h"
 667              		.file 8 "Drivers/STM32F4xx_HAL_Driver/Inc/stm32f4xx_hal_uart.h"
 668              		.file 9 "Core/Inc/usart.h"
 669              		.file 10 "Drivers/STM32F4xx_HAL_Driver/Inc/stm32f4xx_hal_cortex.h"
 670              		.file 11 "Core/Inc/main.h"
ARM GAS  C:\Users\xixi\AppData\Local\Temp\ccsA5dxe.s 			page 20

